Microchip MPLAB XC8 Compiler V1.45 ()

Linker command line:

-W9 --edf=C:\Program Files (x86)\Microchip\xc8\v1.45\dat\en_msgs.txt -cs \
  -h+dist/default/production\midi_transmit_18F4680_2_octave_v1.1a.production.sym \
  --cmf=dist/default/production\midi_transmit_18F4680_2_octave_v1.1a.production.cmf \
  -z -Q18F4680 -oC:\Users\Bill\AppData\Local\Temp\s5fg.2 \
  -Mdist/default/production/midi_transmit_18F4680_2_octave_v1.1a.production.map \
  -E1 -ver=XC8 --acfsm=1493 -ASTACK=0389h-0cffh -pstack=STACK \
  -ACODE=00h-0FFFFh -ACONST=00h-0FFFFh -ASMALLCONST=0D00h-0DFFhx243 \
  -AMEDIUMCONST=0D00h-0FFFFh -ACOMRAM=01h-05Fh -AABS1=00h-0CFFh \
  -ABIGRAM=01h-0CFFh -ARAM=060h-0FFh,0100h-01FFhx12 -ABANK0=060h-0FFh \
  -ABANK1=0100h-01FFh -ABANK2=0200h-02FFh -ABANK3=0300h-03FFh \
  -ABANK4=0400h-04FFh -ABANK5=0500h-05FFh -ABANK6=0600h-06FFh \
  -ABANK7=0700h-07FFh -ABANK8=0800h-08FFh -ABANK9=0900h-09FFh \
  -ABANK10=0A00h-0AFFh -ABANK11=0B00h-0BFFh -ABANK12=0C00h-0CFFh \
  -ASFR=0D00h-0DFFhx2,0F00h-0F5Fh,0F60h-0FFFh \
  -preset_vec=00h,intcode=08h,intcodelo,powerup,init -pramtop=0D00h \
  -psmallconst=SMALLCONST -pmediumconst=MEDIUMCONST -pconst=CONST \
  -AFARRAM=00h-00h -ACONFIG=0300000h-030000Dh -pconfig=CONFIG \
  -AIDLOC=0200000h-0200007h -pidloc=IDLOC -AEEDATA=0F00000h-0F003FFh \
  -peeprom_data=EEDATA \
  -prdata=COMRAM,nvrram=COMRAM,nvbit=COMRAM,rbss=COMRAM,rbit=COMRAM \
  -pfarbss=FARRAM,fardata=FARRAM,nvFARRAM=FARRAM \
  -pintsave_regs=BIGRAM,bigbss=BIGRAM,bigdata=BIGRAM -pbss=RAM \
  -pidata=CODE,irdata=CODE,ibigdata=CODE,ifardata=CODE -prparam=COMRAM \
  C:\Users\Bill\AppData\Local\Temp\s5fg.obj \
  dist/default/production\midi_transmit_18F4680_2_octave_v1.1a.production.obj 

Object code version is 3.11

Machine type is 18F4680

Call graph: (short form)




                Name                               Link     Load   Length Selector   Space Scale
C:\Users\Bill\AppData\Local\Temp\s5fg.obj
                stack                               389      389      977      389       2
                init                                  C        C        8        4       0
                reset_vec                             0        0        4        0       0
                idloc                            200000   200000        8   200000       0
                config                           300000   300000        E   300000       0
dist/default/production\midi_transmit_18F4680_2_octave_v1.1a.production.obj
                eeprom_data                      F00000   F00000        8   F00000       0
                intcode                               8        8        4        4       0
                temp                                 3F       3F        C        1       1
                mediumconst                        E8C2     E8C2     173E     7461       0
                text146                            3982     3982      2B8        4       0
                text145                            65CE     65CE      10C        4       0
                text144                            996E     996E       18     4CAB       0
                text143                            8670     8670       80        4       0
                text142                            64B6     64B6      118        4       0
                text141                            1198     1198      700        4       0
                intcode_body                       539A     539A      1AA        4       0
                text139                            99B0     99B0       14     4CAB       0
                text138                            977E     977E       30     486C       0
                text137                            987C     987C       26     486C       0
                text136                            8350     8350       8C        4       0
                text135                            971C     971C       32     486C       0
                text134                            85F0     85F0       80        4       0
                text133                            9854     9854       28     486C       0
                text132                            4DE6     4DE6      202        4       0
                text131                            9922     9922       1A     486C       0
                text130                            99F4     99F4        6     4CF4       0
                text129                            94D8     94D8       42     486C       0
                text128                            4FE8     4FE8      1F4        4       0
                text127                            936E     936E       4A     486C       0
                text126                            856C     856C       84        4       0
                text125                            84E8     84E8       84        4       0
                text124                            8FBA     8FBA       62     4714       0
                text123                            982C     982C       28     486C       0
                text122                            9804     9804       28     486C       0
                text121                            967C     967C       38     486C       0
                text120                            3336     3336      33E        4       0
                text119                            2FE4     2FE4      352        4       0
                text118                            974E     974E       30     486C       0
                text117                            6F78     6F78       DE        4       0
                text116                            5FE4     5FE4      154        4       0
                text115                            747C     747C       CE        4       0
                text114                            754A     754A       C6        4       0
                text113                            66DA     66DA      106        4       0
                text112                            82C2     82C2       8E        4       0
                text111                            6CC8     6CC8       EE        4       0
                text110                            6DB6     6DB6       E4        4       0
                text109                            9490     9490       48     486C       0
                text108                            5D16     5D16      168        4       0
                text107                            918E     918E       58     486C       0
                text106                            9448     9448       48     486C       0
                text105                            419E     419E      2A8        4       0
                text104                             A30      A30      768        4       0
                text103                            9400     9400       48     486C       0
                text102                            99EE     99EE        6     4CF4       0
                text101                            99E8     99E8        6     4CF4       0
                text100                            86F0     86F0       7C        4       0
                text99                             999C     999C       14     4CAB       0
                text98                             97DA     97DA       2A     486C       0
                text97                             4446     4446      2A6        4       0
                text96                             96E8     96E8       34     486C       0
                text95                             91E6     91E6       54     486C       0
                text94                             1DB2     1DB2      506        4       0
                text93                             88DA     88DA       78        4       0
                text92                             69E4     69E4       FE        4       0
                text91                             9558     9558       3C     486C       0
                text90                             96B4     96B4       34     486C       0
                text89                             951A     951A       3E     486C       0
                text88                             8F58     8F58       62     4714       0
                text87                             68E4     68E4      100        4       0
                text86                             83DC     83DC       88        4       0
                text85                             8B98     8B98       72        4       0
                text84                             78F4     78F4       AE        4       0
                text83                             8AB2     8AB2       74        4       0
                text82                             9904     9904       1E     486C       0
                text81                             8B26     8B26       72        4       0
                text80                             5870     5870      192        4       0
                text79                             5B92     5B92      184        4       0
                text78                             67E0     67E0      104        4       0
                text77                             1898     1898      51A        4       0
                text76                             56DE     56DE      192        4       0
                text75                             494E     494E      260        4       0
                text74                             5A02     5A02      190        4       0
                text73                             46EC     46EC      262        4       0
                text72                             27AE     27AE      434        4       0
                text71                             2BE2     2BE2      402        4       0
                text70                             5544     5544      19A        4       0
                text69                             3EF0     3EF0      2AE        4       0
                text68                             8D52     8D52       6C        4       0
                text67                             98E4     98E4       20     486C       0
                text66                             51DC     51DC      1BE        4       0
                text65                             3674     3674      30E        4       0
                text64                             923A     923A       52     486C       0
                text63                               14       14      A1C        4       0
                text62                             9956     9956       18     4CAB       0
                text61                             72D8     72D8       D6        4       0
                text60                             7202     7202       D6        4       0
                text59                             712C     712C       D6        4       0
                text58                             73AE     73AE       CE        4       0
                text57                             8860     8860       7A        4       0
                text56                             8234     8234       8E        4       0
                text55                             6138     6138      132        4       0
                text54                             7610     7610       C4        4       0
                text53                             6390     6390      126        4       0
                text52                             626A     626A      126        4       0
                text51                             8082     8082       92        4       0
                text50                             97AE     97AE       2C     486C       0
                text49                             8464     8464       84        4       0
                text48                             3C3A     3C3A      2B6        4       0
                text47                             9324     9324       4A     486C       0
                text46                             901C     901C       5E     4714       0
                text45                             22B8     22B8      4F6        4       0
                text44                             89C8     89C8       76        4       0
                text43                             87E6     87E6       7A        4       0
                text42                             876C     876C       7A        4       0
                text41                             81A4     81A4       90        4       0
                text40                             92D8     92D8       4C     486C       0
                text39                             928C     928C       4C     486C       0
                text38                             8CE6     8CE6       6C        4       0
                text37                             93B8     93B8       48     486C       0
                text36                             8E8E     8E8E       66     4714       0
                text35                             9642     9642       3A     486C       0
                text34                             9608     9608       3A     486C       0
                text33                             7E16     7E16       A0        4       0
                text32                             95CE     95CE       3A     486C       0
                text31                             5E7E     5E7E      166        4       0
                text30                             4BAE     4BAE      238        4       0
                text29                             7D76     7D76       A0        4       0
                text28                             90D8     90D8       5C     486C       0
                text27                             9594     9594       3A     486C       0
                text26                             7F52     7F52       9A        4       0
                text25                             8114     8114       90        4       0
                text24                             7056     7056       D6        4       0
                text23                             8E28     8E28       66     4714       0
                text22                             9134     9134       5A     486C       0
                text21                             7794     7794       B2        4       0
                text20                             7A4C     7A4C       AA        4       0
                text19                             7EB6     7EB6       9C        4       0
                text18                             79A2     79A2       AA        4       0
                text17                             8C78     8C78       6E        4       0
                text16                             7846     7846       AE        4       0
                text15                             8952     8952       76        4       0
                text14                             8EF4     8EF4       64     4714       0
                text13                             8C0A     8C0A       6E        4       0
                text12                             7CD6     7CD6       A0        4       0
                text11                             7C36     7C36       A0        4       0
                text10                             7B96     7B96       A0        4       0
                text9                              7AF6     7AF6       A0        4       0
                text8                              7FEC     7FEC       96        4       0
                text7                              76D4     76D4       C0        4       0
                text6                              9986     9986       16     4CAB       0
                text5                              6E9A     6E9A       DE        4       0
                text4                              98A2     98A2       22     486C       0
                text3                              98C4     98C4       20     486C       0
                text2                              8A3E     8A3E       74        4       0
                text1                              99C4     99C4       10     4CAB       0
                text0                              6AE2     6AE2       F4        4       0
                cstackCOMRAM                          7        7       23        1       1
                cstackBANK0                          60       60       6C       60       1
                cstackBANK1                         197      197       50      100       1
                cstackBANK2                         2E5      2E5        2      200       1
                dataBANK3                           300      300       69      300       1
                bssBANK3                            369      369       20      300       1
                dataBANK2                           288      288       5D      200       1
                bssBANK2                            200      200       88      200       1
                dataBANK1                           1E7      1E7       19      100       1
                bssBANK1                            100      100       97      100       1
                dataBANK0                            F5       F5        B       60       1
                bssBANK0                             CC       CC       29       60       1
                dataCOMRAM                           4B       4B        8        1       1
                bssCOMRAM                            2A       2A       15        1       1
                bitbssCOMRAM                          8        1       2B        1       1     8
                cinit                              6BD6     6BD6       F2        4       0
                idataBANK3                         8DBE     8DBE       69        4       0
                idataBANK2                         907A     907A       5D     4714       0
                idataBANK1                         993C     993C       19     486C       0
                idataBANK0                         99D4     99D4        B     4CAB       0
                idataCOMRAM                        99DF     99DF        8     4CAB       0

TOTAL           Name                               Link     Load   Length     Space
        CLASS   STACK          
                stack                               389      389      977         2

        CLASS   CODE           
                intcode                               8        8        4         0
                init                                  C        C        8         0
                reset_vec                             0        0        4         0
                text146                            3982     3982      2B8         0
                text145                            65CE     65CE      10C         0
                text144                            996E     996E       18         0
                text143                            8670     8670       80         0
                text142                            64B6     64B6      118         0
                text141                            1198     1198      700         0
                intcode_body                       539A     539A      1AA         0
                text139                            99B0     99B0       14         0
                text138                            977E     977E       30         0
                text137                            987C     987C       26         0
                text136                            8350     8350       8C         0
                text135                            971C     971C       32         0
                text134                            85F0     85F0       80         0
                text133                            9854     9854       28         0
                text132                            4DE6     4DE6      202         0
                text131                            9922     9922       1A         0
                text130                            99F4     99F4        6         0
                text129                            94D8     94D8       42         0
                text128                            4FE8     4FE8      1F4         0
                text127                            936E     936E       4A         0
                text126                            856C     856C       84         0
                text125                            84E8     84E8       84         0
                text124                            8FBA     8FBA       62         0
                text123                            982C     982C       28         0
                text122                            9804     9804       28         0
                text121                            967C     967C       38         0
                text120                            3336     3336      33E         0
                text119                            2FE4     2FE4      352         0
                text118                            974E     974E       30         0
                text117                            6F78     6F78       DE         0
                text116                            5FE4     5FE4      154         0
                text115                            747C     747C       CE         0
                text114                            754A     754A       C6         0
                text113                            66DA     66DA      106         0
                text112                            82C2     82C2       8E         0
                text111                            6CC8     6CC8       EE         0
                text110                            6DB6     6DB6       E4         0
                text109                            9490     9490       48         0
                text108                            5D16     5D16      168         0
                text107                            918E     918E       58         0
                text106                            9448     9448       48         0
                text105                            419E     419E      2A8         0
                text104                             A30      A30      768         0
                text103                            9400     9400       48         0
                text102                            99EE     99EE        6         0
                text101                            99E8     99E8        6         0
                text100                            86F0     86F0       7C         0
                text99                             999C     999C       14         0
                text98                             97DA     97DA       2A         0
                text97                             4446     4446      2A6         0
                text96                             96E8     96E8       34         0
                text95                             91E6     91E6       54         0
                text94                             1DB2     1DB2      506         0
                text93                             88DA     88DA       78         0
                text92                             69E4     69E4       FE         0
                text91                             9558     9558       3C         0
                text90                             96B4     96B4       34         0
                text89                             951A     951A       3E         0
                text88                             8F58     8F58       62         0
                text87                             68E4     68E4      100         0
                text86                             83DC     83DC       88         0
                text85                             8B98     8B98       72         0
                text84                             78F4     78F4       AE         0
                text83                             8AB2     8AB2       74         0
                text82                             9904     9904       1E         0
                text81                             8B26     8B26       72         0
                text80                             5870     5870      192         0
                text79                             5B92     5B92      184         0
                text78                             67E0     67E0      104         0
                text77                             1898     1898      51A         0
                text76                             56DE     56DE      192         0
                text75                             494E     494E      260         0
                text74                             5A02     5A02      190         0
                text73                             46EC     46EC      262         0
                text72                             27AE     27AE      434         0
                text71                             2BE2     2BE2      402         0
                text70                             5544     5544      19A         0
                text69                             3EF0     3EF0      2AE         0
                text68                             8D52     8D52       6C         0
                text67                             98E4     98E4       20         0
                text66                             51DC     51DC      1BE         0
                text65                             3674     3674      30E         0
                text64                             923A     923A       52         0
                text63                               14       14      A1C         0
                text62                             9956     9956       18         0
                text61                             72D8     72D8       D6         0
                text60                             7202     7202       D6         0
                text59                             712C     712C       D6         0
                text58                             73AE     73AE       CE         0
                text57                             8860     8860       7A         0
                text56                             8234     8234       8E         0
                text55                             6138     6138      132         0
                text54                             7610     7610       C4         0
                text53                             6390     6390      126         0
                text52                             626A     626A      126         0
                text51                             8082     8082       92         0
                text50                             97AE     97AE       2C         0
                text49                             8464     8464       84         0
                text48                             3C3A     3C3A      2B6         0
                text47                             9324     9324       4A         0
                text46                             901C     901C       5E         0
                text45                             22B8     22B8      4F6         0
                text44                             89C8     89C8       76         0
                text43                             87E6     87E6       7A         0
                text42                             876C     876C       7A         0
                text41                             81A4     81A4       90         0
                text40                             92D8     92D8       4C         0
                text39                             928C     928C       4C         0
                text38                             8CE6     8CE6       6C         0
                text37                             93B8     93B8       48         0
                text36                             8E8E     8E8E       66         0
                text35                             9642     9642       3A         0
                text34                             9608     9608       3A         0
                text33                             7E16     7E16       A0         0
                text32                             95CE     95CE       3A         0
                text31                             5E7E     5E7E      166         0
                text30                             4BAE     4BAE      238         0
                text29                             7D76     7D76       A0         0
                text28                             90D8     90D8       5C         0
                text27                             9594     9594       3A         0
                text26                             7F52     7F52       9A         0
                text25                             8114     8114       90         0
                text24                             7056     7056       D6         0
                text23                             8E28     8E28       66         0
                text22                             9134     9134       5A         0
                text21                             7794     7794       B2         0
                text20                             7A4C     7A4C       AA         0
                text19                             7EB6     7EB6       9C         0
                text18                             79A2     79A2       AA         0
                text17                             8C78     8C78       6E         0
                text16                             7846     7846       AE         0
                text15                             8952     8952       76         0
                text14                             8EF4     8EF4       64         0
                text13                             8C0A     8C0A       6E         0
                text12                             7CD6     7CD6       A0         0
                text11                             7C36     7C36       A0         0
                text10                             7B96     7B96       A0         0
                text9                              7AF6     7AF6       A0         0
                text8                              7FEC     7FEC       96         0
                text7                              76D4     76D4       C0         0
                text6                              9986     9986       16         0
                text5                              6E9A     6E9A       DE         0
                text4                              98A2     98A2       22         0
                text3                              98C4     98C4       20         0
                text2                              8A3E     8A3E       74         0
                text1                              99C4     99C4       10         0
                text0                              6AE2     6AE2       F4         0
                cinit                              6BD6     6BD6       F2         0
                idataBANK3                         8DBE     8DBE       69         0
                idataBANK2                         907A     907A       5D         0
                idataBANK1                         993C     993C       19         0
                idataBANK0                         99D4     99D4        B         0
                idataCOMRAM                        99DF     99DF        8         0

        CLASS   CONST          

        CLASS   SMALLCONST     

        CLASS   MEDIUMCONST    
                mediumconst                        E8C2     E8C2     173E         0

        CLASS   COMRAM         
                temp                                 3F       3F        C         1
                cstackCOMRAM                          7        7       23         1
                dataCOMRAM                           4B       4B        8         1
                bssCOMRAM                            2A       2A       15         1
                bitbssCOMRAM                          8        1       2B         1

        CLASS   ABS1           

        CLASS   BIGRAM         

        CLASS   RAM            

        CLASS   BANK0          
                cstackBANK0                          60       60       6C         1
                dataBANK0                            F5       F5        B         1
                bssBANK0                             CC       CC       29         1

        CLASS   BANK1          
                cstackBANK1                         197      197       50         1
                dataBANK1                           1E7      1E7       19         1
                bssBANK1                            100      100       97         1

        CLASS   BANK2          
                cstackBANK2                         2E5      2E5        2         1
                dataBANK2                           288      288       5D         1
                bssBANK2                            200      200       88         1

        CLASS   BANK3          
                dataBANK3                           300      300       69         1
                bssBANK3                            369      369       20         1

        CLASS   BANK4          

        CLASS   BANK5          

        CLASS   BANK6          

        CLASS   BANK7          

        CLASS   BANK8          

        CLASS   BANK9          

        CLASS   BANK10         

        CLASS   BANK11         

        CLASS   BANK12         

        CLASS   SFR            

        CLASS   FARRAM         

        CLASS   CONFIG         
                config                           300000   300000        E         0

        CLASS   IDLOC          
                idloc                            200000   200000        8         0

        CLASS   EEDATA         
                eeprom_data                      F00000   F00000        8         0



SEGMENTS        Name                           Load    Length   Top    Selector   Space  Class

                reset_vec                      000000  000004  000004         0       0  CODE    
                bitbssCOMRAM                   000001  000052  000053         1       1  COMRAM  
                intcode                        000008  008E1F  008E27         4       0  CODE    
                cstackBANK0                    000060  0000A0  000100        60       1  BANK0   
                bssBANK1                       000100  000100  000200       100       1  BANK1   
                bssBANK2                       000200  0000E7  0002E7       200       1  BANK2   
                dataBANK3                      000300  000089  000389       300       1  BANK3   
                stack                          000389  000977  000D00       389       2  STACK   
                text23                         008E28  0002AF  0090D7      4714       0  CODE    
                text28                         0090D8  00087D  009955      486C       0  CODE    
                text62                         009956  000091  0099E7      4CAB       0  CODE    
                text101                        0099E8  000012  0099FA      4CF4       0  CODE    
                mediumconst                    00E8C2  00173E  010000      7461       0  MEDIUMCO
                idloc                          200000  000008  200008    200000       0  IDLOC   
                config                         300000  00000E  30000E    300000       0  CONFIG  
                eeprom_data                    F00000  000008  F00008    F00000       0  EEDATA  


UNUSED ADDRESS RANGES

        Name                Unused          Largest block    Delta
        BANK10           000A00-000AFF              100
        BANK11           000B00-000BFF              100
        BANK12           000C00-000CFF              100
        BANK2            0002E7-0002FF               19
        BANK3            000389-0003FF               77
        BANK4            000400-0004FF              100
        BANK5            000500-0005FF              100
        BANK6            000600-0006FF              100
        BANK7            000700-0007FF              100
        BANK8            000800-0008FF              100
        BANK9            000900-0009FF              100
        BIGRAM           000053-00005F                D
                         0002E7-0002FF               19
                         000389-000CFF              977
        CODE             000004-000007                4
                         008E27-008E27                1
                         0090D7-0090D7                1
                         009955-009955                1
                         0099E7-0099E7                1
                         0099FA-00E8C1             4EC8
        COMRAM           000053-00005F                D
        CONST            000004-000007                4
                         008E27-008E27                1
                         0090D7-0090D7                1
                         009955-009955                1
                         0099E7-0099E7                1
                         0099FA-00E8C1             4EC8
        EEDATA           F00008-F003FF              3F8
        MEDIUMCONST      008E27-008E27                1
                         0090D7-0090D7                1
                         009955-009955                1
                         0099E7-0099E7                1
                         0099FA-00E8C1             4EC8
        RAM              0002E7-0002FF               19
                         000389-000CFF              100
        SFR              000D00-000FFF              100
        SMALLCONST       008E27-008E27                1
                         0090D7-0090D7                1
                         009955-009955                1
                         0099E7-0099E7                1
                         0099FA-00E8C1              100

                                  Symbol Table

?_ADC_Read                                        cstackBANK0  000060
?___aldiv                                         cstackBANK0  000060
?___fladd                                         cstackBANK0  0000A4
?___fldiv                                         cstackBANK0  000087
?___flmul                                         cstackBANK0  00006E
?___flneg                                         cstackBANK0  0000A0
?___fltol                                         cstackBANK0  0000B8
?___wmul                                          cstackBANK0  000060
?___xxtofl                                        cstackBANK0  000060
?_calculate_pulse_length                          cstackBANK0  0000C2
?_map                                             cstackBANK0  00006E
ADC_Read@adc_channel                              cstackBANK0  000064
Function_C_2@array_index                          cstackBANK0  0000C8
Function_C_3@array_index                          cstackBANK0  0000C8
Function_D_3@array_index                          cstackBANK0  0000C7
Function_D_4@array_index                          cstackBANK0  0000C7
Function_D_5@array_index                          cstackBANK0  0000C7
Function_H_1@temp                                 cstackBANK0  0000C7
Function_H_5@i                                    cstackBANK0  0000C8
Function_H_6_1@temp                               cstackBANK0  0000C7
Lcd_Cmd@a                                         cstackBANK0  000062
Lcd_Print_Char@Lower_Nibble                       cstackBANK0  000061
Lcd_Print_Char@Upper_Nibble                       cstackBANK0  000062
Lcd_Print_Char@data                               cstackBANK0  000063
Lcd_Print_Char@i                                  cstackBANK0  000064
Lcd_Print_Char@i_59                               cstackBANK0  000066
Lcd_Print_String@a                                cstackBANK0  000068
Lcd_Print_String@i                                cstackBANK0  00006C
Lcd_SetBit@data_bit                               cstackBANK0  000060
Lcd_Set_Cursor@a                                  cstackBANK0  000064
Lcd_Set_Cursor@b                                  cstackBANK0  000063
Lcd_Set_Cursor@temp                               cstackBANK0  000067
Lcd_Set_Cursor@y                                  cstackBANK0  000066
Lcd_Set_Cursor@z                                  cstackBANK0  000065
Lcd_Start@i                                       cstackBANK0  000064
Read_b_eep@badd                                   cstackBANK0  000060
Write_b_eep@GIE_BIT_VAL                           cstackBANK0  000063
Write_b_eep@badd                                  cstackBANK0  000060
Write_b_eep@bdat                                  cstackBANK0  000062
_ADCON0                                           (abs)        000FC2
_ADCON1                                           (abs)        000FC1
_ADCON2                                           (abs)        000FC0
_ADC_Initialize                                   text139      0099B0
_ADC_Read                                         text121      00967C
_ADON                                             (abs)        007E10
_ADRESH                                           (abs)        000FC4
_ADRESL                                           (abs)        000FC3
_ARPEGGIO                                         bssBANK1     000182
_ARPEGGIO_IS_PLAYING                              bitbssCOMRAM 000032
_ARPEGGIO_ON                                      bitbssCOMRAM 000023
_ARPEGGIO_RANDOM                                  bssBANK2     000268
_ARPEGGIO_SORTED                                  bssBANK2     000278
_ARPEGGIO_TYPE                                    bssCOMRAM    000035
_ARRAY_INDEX                                      bssBANK0     0000EB
_AUTO_LATCH                                       bitbssCOMRAM 00001E
_AUTO_RANDOMIZE                                   bitbssCOMRAM 00001C
_BPM                                              dataBANK0    0000FF
_BRGH                                             (abs)        007D62
_Busy_eep                                         text130      0099F4
_CMCON                                            (abs)        000FB4
_CONTROL_CHANGE_IS_BEING_SENT                     bitbssCOMRAM 000031
_CONTROL_MODE                                     bitbssCOMRAM 00000B
_CREN                                             (abs)        007D5C
_DIGIT_MODE                                       bssCOMRAM    00003A
_DISPLAY_MODE                                     bssBANK0     0000EE
_DISPLAY_STEP_NUMBER                              bitbssCOMRAM 00000D
_DRUM_CC                                          dataBANK0    0000F5
_DRUM_MODE                                        bitbssCOMRAM 00000C
_DRUM_NOTE                                        dataBANK1    0001E7
_EEADR                                            (abs)        000FA9
_EEADRH                                           (abs)        000FAA
_EECON1bits                                       (abs)        000FA6
_EECON2                                           (abs)        000FA7
_EEDATA                                           (abs)        000FA8
_FIRST_READING                                    bitbssCOMRAM 00002E
_Function_A                                       text58       0073AE
_Function_A_1                                     text61       0072D8
_Function_A_2                                     text60       007202
_Function_A_3                                     text59       00712C
_Function_B                                       text57       008860
_Function_C                                       text51       008082
_Function_C_1                                     text56       008234
_Function_C_2                                     text53       006390
_Function_C_3                                     text52       00626A
_Function_D                                       text41       0081A4
_Function_D_1                                     text49       008464
_Function_D_2                                     text46       00901C
_Function_D_3                                     text44       0089C8
_Function_D_4                                     text43       0087E6
_Function_D_5                                     text42       00876C
_Function_E                                       text38       008CE6
_Function_E_1                                     text40       0092D8
_Function_E_2                                     text39       00928C
_Function_F                                       text36       008E8E
_Function_G                                       text25       008114
_Function_G_1                                     text33       007E16
_Function_G_2                                     text29       007D76
_Function_G_3                                     text28       0090D8
_Function_G_4                                     text26       007F52
_Function_H                                       text7        0076D4
_Function_H_1                                     text24       007056
_Function_H_2                                     text23       008E28
_Function_H_3                                     text22       009134
_Function_H_4                                     text21       007794
_Function_H_5                                     text20       007A4C
_Function_H_6                                     text17       008C78
_Function_H_6_1                                   text19       007EB6
_Function_H_6_2                                   text18       0079A2
_Function_H_7                                     text16       007846
_Function_H_8                                     text13       008C0A
_Function_H_8_1                                   text15       008952
_Function_H_8_2                                   text14       008EF4
_Function_H_9                                     text8        007FEC
_Function_H_9_1                                   text12       007CD6
_Function_H_9_2                                   text11       007C36
_Function_H_9_3                                   text10       007B96
_Function_H_9_4                                   text9        007AF6
_GIE                                              (abs)        007F97
_GLOBAL_CC_NUMBER                                 bssBANK0     0000F4
_GLOBAL_CC_VALUE                                  bssBANK1     000180
_GLOBAL_STATUS_BYTE                               bssBANK1     000181
_GO_nDONE                                         (abs)        007E11
_HYST_VAL                                         dataBANK1    0001F3
_INT0IE                                           (abs)        007F94
_INT0IF                                           (abs)        007F91
_INTCONbits                                       (abs)        000FF2
_INTEDG0                                          (abs)        007F8E
_IPEN                                             (abs)        007E87
_ISR                                              intcode      000008
_KEYBOARD_MODE                                    bssBANK0     0000F2
_LAST_NOTE_MODE_KEY_PRESS                         bitbssCOMRAM 000019
_LAST_NOTE_MODE_KEY_RELEASE                       bitbssCOMRAM 000018
_LAST_NOTE_MODE_RESET                             bitbssCOMRAM 000016
_LAST_NOTE_MODE_TRANSPOSE                         bitbssCOMRAM 000017
_LATCH                                            bitbssCOMRAM 000020
_LCD_STRINGS                                      mediumconst  00F39E
_Lcd_Clear                                        text6        009986
_Lcd_Cmd                                          text137      00987C
_Lcd_Print_Char                                   text126      00856C
_Lcd_Print_String                                 text125      0084E8
_Lcd_SetBit                                       text138      00977E
_Lcd_Set_Cursor                                   text124      008FBA
_Lcd_Start                                        text136      008350
_MAX_NUM_NOTES                                    mediumconst  00F39D
_NOTE_LENGTH_PULSES                               dataCOMRAM   00004D
_NOTE_LENGTH_PULSES_ARRAY                         dataBANK2    0002B8
_NUM_NOTES_PRESSED                                bssCOMRAM    00002F
_OCTAVES                                          dataCOMRAM   00004E
_ON_OFF                                           bitbssCOMRAM 00002F
_PEIE                                             (abs)        007F96
_PORTA                                            (abs)        000F80
_PORTB                                            (abs)        000F81
_PORTC                                            (abs)        000F82
_PORTD                                            (abs)        000F83
_PORTE                                            (abs)        000F84
_POT_MODE                                         bitbssCOMRAM 00002D
_PPQN                                             dataBANK1    0001F6
_PRESCALER                                        dataBANK1    0001F5
_PSA                                              (abs)        007EAB
_RA5                                              (abs)        007C05
_RB0                                              (abs)        007C08
_RB1                                              (abs)        007C09
_RB2                                              (abs)        007C0A
_RB4                                              (abs)        007C0C
_RB5                                              (abs)        007C0D
_RBIE                                             (abs)        007F93
_RBIF                                             (abs)        007F90
_RC0                                              (abs)        007C10
_RC1                                              (abs)        007C11
_RC2                                              (abs)        007C12
_RC3                                              (abs)        007C13
_RC4                                              (abs)        007C14
_RC5                                              (abs)        007C15
_RD4                                              (abs)        007C1C
_RD5                                              (abs)        007C1D
_RD6                                              (abs)        007C1E
_RD7                                              (abs)        007C1F
_RE0                                              (abs)        007C20
_RE1                                              (abs)        007C21
_RE2                                              (abs)        007C22
_RESET_ON_KEY_PRESS                               bitbssCOMRAM 000022
_RESET_ON_KEY_RELEASE                             bitbssCOMRAM 000021
_Read_b_eep                                       text131      009922
_SORT_DIRECTION                                   bitbssCOMRAM 000024
_SPBRG                                            (abs)        000FAF
_SPEN                                             (abs)        007D5F
_SYNC                                             (abs)        007D64
_T08BIT                                           (abs)        007EAE
_T0CON                                            (abs)        000FD5
_T0CS                                             (abs)        007EAD
_T1CON                                            (abs)        000FCD
_T2CON                                            (abs)        000FCA
_TIMER_OVERFLOWS                                  bssCOMRAM    00002E
_TIMER_PRELOAD                                    bssBANK1     00017B
_TMR0                                             (abs)        000FD6
_TMR0IE                                           (abs)        007F95
_TMR0IF                                           (abs)        007F92
_TMR0ON                                           (abs)        007EAF
_TMR1                                             (abs)        000FCE
_TMR1IE                                           (abs)        007CE8
_TMR1IF                                           (abs)        007CF0
_TMR1ON                                           (abs)        007E68
_TMR2                                             (abs)        000FCC
_TMR2IE                                           (abs)        007CE9
_TMR2IF                                           (abs)        007CF1
_TMR2ON                                           (abs)        007E52
_TRANSPOSE_MODE                                   bitbssCOMRAM 000025
_TRISA                                            (abs)        000F92
_TRISB                                            (abs)        000F93
_TRISC                                            (abs)        000F94
_TRISD                                            (abs)        000F95
_TRISE                                            (abs)        000F96
_TRMT                                             (abs)        007D61
_TXEN                                             (abs)        007D65
_TXIF                                             (abs)        007CF4
_TXREG                                            (abs)        000FAD
_UN_LATCH_MODE                                    bitbssCOMRAM 00001F
_Write_b_eep                                      text129      0094D8
__CFG_BBSIZ$1024                                  (abs)        000000
__CFG_BOREN$OFF                                   (abs)        000000
__CFG_BORV$3                                      (abs)        000000
__CFG_CP0$OFF                                     (abs)        000000
__CFG_CP1$OFF                                     (abs)        000000
__CFG_CP2$OFF                                     (abs)        000000
__CFG_CP3$OFF                                     (abs)        000000
__CFG_CPB$OFF                                     (abs)        000000
__CFG_CPD$OFF                                     (abs)        000000
__CFG_EBTR0$OFF                                   (abs)        000000
__CFG_EBTR1$OFF                                   (abs)        000000
__CFG_EBTR2$OFF                                   (abs)        000000
__CFG_EBTR3$OFF                                   (abs)        000000
__CFG_EBTRB$OFF                                   (abs)        000000
__CFG_FCMEN$OFF                                   (abs)        000000
__CFG_IESO$OFF                                    (abs)        000000
__CFG_LPT1OSC$OFF                                 (abs)        000000
__CFG_LVP$OFF                                     (abs)        000000
__CFG_MCLRE$ON                                    (abs)        000000
__CFG_OSC$HS                                      (abs)        000000
__CFG_PBADEN$OFF                                  (abs)        000000
__CFG_PWRT$OFF                                    (abs)        000000
__CFG_STVREN$OFF                                  (abs)        000000
__CFG_WDT$OFF                                     (abs)        000000
__CFG_WDTPS$32768                                 (abs)        000000
__CFG_WRT0$OFF                                    (abs)        000000
__CFG_WRT1$OFF                                    (abs)        000000
__CFG_WRT2$OFF                                    (abs)        000000
__CFG_WRT3$OFF                                    (abs)        000000
__CFG_WRTB$OFF                                    (abs)        000000
__CFG_WRTC$OFF                                    (abs)        000000
__CFG_WRTD$OFF                                    (abs)        000000
__CFG_XINST$OFF                                   (abs)        000000
__HRAM                                            (abs)        000000
__Habs1                                           abs1         000000
__Hbank0                                          bank0        000000
__Hbank1                                          bank1        000000
__Hbank10                                         bank10       000000
__Hbank11                                         bank11       000000
__Hbank12                                         bank12       000000
__Hbank2                                          bank2        000000
__Hbank3                                          bank3        000000
__Hbank4                                          bank4        000000
__Hbank5                                          bank5        000000
__Hbank6                                          bank6        000000
__Hbank7                                          bank7        000000
__Hbank8                                          bank8        000000
__Hbank9                                          bank9        000000
__Hbigbss                                         bigbss       000000
__Hbigdata                                        bigdata      000000
__Hbigram                                         bigram       000000
__HbitbssCOMRAM                                   bitbssCOMRAM 000000
__Hbss                                            bss          000000
__HbssBANK0                                       bssBANK0     000000
__HbssBANK1                                       bssBANK1     000000
__HbssBANK2                                       bssBANK2     000000
__HbssBANK3                                       bssBANK3     000000
__HbssCOMRAM                                      bssCOMRAM    000000
__Hcinit                                          cinit        000000
__Hclrtext                                        clrtext      000000
__Hcomram                                         comram       000000
__Hconfig                                         config       30000E
__Hconst                                          const        000000
__HcstackBANK0                                    cstackBANK0  000000
__HcstackBANK1                                    cstackBANK1  000000
__HcstackBANK2                                    cstackBANK2  000000
__HcstackCOMRAM                                   cstackCOMRAM 000000
__Hdata                                           data         000000
__HdataBANK0                                      dataBANK0    000000
__HdataBANK1                                      dataBANK1    000000
__HdataBANK2                                      dataBANK2    000000
__HdataBANK3                                      dataBANK3    000000
__HdataCOMRAM                                     dataCOMRAM   000000
__Heeprom_data                                    eeprom_data  F00008
__Hfarbss                                         farbss       000000
__Hfardata                                        fardata      000000
__Hibigdata                                       ibigdata     000000
__Hidata                                          idata        000000
__HidataBANK0                                     idataBANK0   000000
__HidataBANK1                                     idataBANK1   000000
__HidataBANK2                                     idataBANK2   000000
__HidataBANK3                                     idataBANK3   000000
__HidataCOMRAM                                    idataCOMRAM  000000
__Hidloc                                          idloc        200008
__Hifardata                                       ifardata     000000
__Hinit                                           init         000014
__Hintcode                                        intcode      00000C
__Hintcode_body                                   intcode_body 000000
__Hintcodelo                                      intcodelo    00000C
__Hintentry                                       intentry     000000
__Hintret                                         intret       000000
__Hintsave_regs                                   intsave_regs 000000
__Hirdata                                         irdata       000000
__Hmediumconst                                    mediumconst  010000
__HnvFARRAM                                       nvFARRAM     000000
__Hnvbit                                          nvbit        000000
__Hnvrram                                         nvrram       000000
__Hparam                                          rparam       000000
__Hpowerup                                        powerup      00000C
__Hram                                            ram          000000
__Hramtop                                         ramtop       000D00
__Hrbit                                           rbit         000000
__Hrbss                                           rbss         000000
__Hrdata                                          rdata        000000
__Hreset_vec                                      reset_vec    000004
__Hrparam                                         rparam       000000
__Hsfr                                            sfr          000000
__Hsmallconst                                     smallconst   000000
__Hspace_0                                        (abs)        F00008
__Hspace_1                                        (abs)        000389
__Hspace_2                                        (abs)        000D00
__Hstack                                          stack        000D00
__Hstruct                                         struct       000000
__Htemp                                           temp         00004B
__Htext                                           text         000000
__Htext0                                          text0        000000
__Htext1                                          text1        000000
__Htext10                                         text10       000000
__Htext100                                        text100      000000
__Htext101                                        text101      000000
__Htext102                                        text102      000000
__Htext103                                        text103      000000
__Htext104                                        text104      000000
__Htext105                                        text105      000000
__Htext106                                        text106      000000
__Htext107                                        text107      000000
__Htext108                                        text108      000000
__Htext109                                        text109      000000
__Htext11                                         text11       000000
__Htext110                                        text110      000000
__Htext111                                        text111      000000
__Htext112                                        text112      000000
__Htext113                                        text113      000000
__Htext114                                        text114      000000
__Htext115                                        text115      000000
__Htext116                                        text116      000000
__Htext117                                        text117      000000
__Htext118                                        text118      000000
__Htext119                                        text119      000000
__Htext12                                         text12       000000
__Htext120                                        text120      000000
__Htext121                                        text121      000000
__Htext122                                        text122      000000
__Htext123                                        text123      000000
__Htext124                                        text124      000000
__Htext125                                        text125      000000
__Htext126                                        text126      000000
__Htext127                                        text127      000000
__Htext128                                        text128      000000
__Htext129                                        text129      000000
__Htext13                                         text13       000000
__Htext130                                        text130      000000
__Htext131                                        text131      000000
__Htext132                                        text132      000000
__Htext133                                        text133      000000
__Htext134                                        text134      000000
__Htext135                                        text135      000000
__Htext136                                        text136      000000
__Htext137                                        text137      000000
__Htext138                                        text138      000000
__Htext139                                        text139      000000
__Htext14                                         text14       000000
__Htext141                                        text141      000000
__Htext142                                        text142      000000
__Htext143                                        text143      000000
__Htext144                                        text144      000000
__Htext145                                        text145      000000
__Htext146                                        text146      000000
__Htext15                                         text15       000000
__Htext16                                         text16       000000
__Htext17                                         text17       000000
__Htext18                                         text18       000000
__Htext19                                         text19       000000
__Htext2                                          text2        000000
__Htext20                                         text20       000000
__Htext21                                         text21       000000
__Htext22                                         text22       000000
__Htext23                                         text23       000000
__Htext24                                         text24       000000
__Htext25                                         text25       000000
__Htext26                                         text26       000000
__Htext27                                         text27       000000
__Htext28                                         text28       000000
__Htext29                                         text29       000000
__Htext3                                          text3        000000
__Htext30                                         text30       000000
__Htext31                                         text31       000000
__Htext32                                         text32       000000
__Htext33                                         text33       000000
__Htext34                                         text34       000000
__Htext35                                         text35       000000
__Htext36                                         text36       000000
__Htext37                                         text37       000000
__Htext38                                         text38       000000
__Htext39                                         text39       000000
__Htext4                                          text4        000000
__Htext40                                         text40       000000
__Htext41                                         text41       000000
__Htext42                                         text42       000000
__Htext43                                         text43       000000
__Htext44                                         text44       000000
__Htext45                                         text45       000000
__Htext46                                         text46       000000
__Htext47                                         text47       000000
__Htext48                                         text48       000000
__Htext49                                         text49       000000
__Htext5                                          text5        000000
__Htext50                                         text50       000000
__Htext51                                         text51       000000
__Htext52                                         text52       000000
__Htext53                                         text53       000000
__Htext54                                         text54       000000
__Htext55                                         text55       000000
__Htext56                                         text56       000000
__Htext57                                         text57       000000
__Htext58                                         text58       000000
__Htext59                                         text59       000000
__Htext6                                          text6        000000
__Htext60                                         text60       000000
__Htext61                                         text61       000000
__Htext62                                         text62       000000
__Htext63                                         text63       000000
__Htext64                                         text64       000000
__Htext65                                         text65       000000
__Htext66                                         text66       000000
__Htext67                                         text67       000000
__Htext68                                         text68       000000
__Htext69                                         text69       000000
__Htext7                                          text7        000000
__Htext70                                         text70       000000
__Htext71                                         text71       000000
__Htext72                                         text72       000000
__Htext73                                         text73       000000
__Htext74                                         text74       000000
__Htext75                                         text75       000000
__Htext76                                         text76       000000
__Htext77                                         text77       000000
__Htext78                                         text78       000000
__Htext79                                         text79       000000
__Htext8                                          text8        000000
__Htext80                                         text80       000000
__Htext81                                         text81       000000
__Htext82                                         text82       000000
__Htext83                                         text83       000000
__Htext84                                         text84       000000
__Htext85                                         text85       000000
__Htext86                                         text86       000000
__Htext87                                         text87       000000
__Htext88                                         text88       000000
__Htext89                                         text89       000000
__Htext9                                          text9        000000
__Htext90                                         text90       000000
__Htext91                                         text91       000000
__Htext92                                         text92       000000
__Htext93                                         text93       000000
__Htext94                                         text94       000000
__Htext95                                         text95       000000
__Htext96                                         text96       000000
__Htext97                                         text97       000000
__Htext98                                         text98       000000
__Htext99                                         text99       000000
__LRAM                                            (abs)        000001
__Labs1                                           abs1         000000
__Lbank0                                          bank0        000000
__Lbank1                                          bank1        000000
__Lbank10                                         bank10       000000
__Lbank11                                         bank11       000000
__Lbank12                                         bank12       000000
__Lbank2                                          bank2        000000
__Lbank3                                          bank3        000000
__Lbank4                                          bank4        000000
__Lbank5                                          bank5        000000
__Lbank6                                          bank6        000000
__Lbank7                                          bank7        000000
__Lbank8                                          bank8        000000
__Lbank9                                          bank9        000000
__Lbigbss                                         bigbss       000000
__Lbigdata                                        bigdata      000000
__Lbigram                                         bigram       000000
__LbitbssCOMRAM                                   bitbssCOMRAM 000000
__Lbss                                            bss          000000
__LbssBANK0                                       bssBANK0     000000
__LbssBANK1                                       bssBANK1     000000
__LbssBANK2                                       bssBANK2     000000
__LbssBANK3                                       bssBANK3     000000
__LbssCOMRAM                                      bssCOMRAM    000000
__Lcinit                                          cinit        000000
__Lclrtext                                        clrtext      000000
__Lcomram                                         comram       000000
__Lconfig                                         config       300000
__Lconst                                          const        000000
__LcstackBANK0                                    cstackBANK0  000000
__LcstackBANK1                                    cstackBANK1  000000
__LcstackBANK2                                    cstackBANK2  000000
__LcstackCOMRAM                                   cstackCOMRAM 000000
__Ldata                                           data         000000
__LdataBANK0                                      dataBANK0    000000
__LdataBANK1                                      dataBANK1    000000
__LdataBANK2                                      dataBANK2    000000
__LdataBANK3                                      dataBANK3    000000
__LdataCOMRAM                                     dataCOMRAM   000000
__Leeprom_data                                    eeprom_data  F00000
__Lfarbss                                         farbss       000000
__Lfardata                                        fardata      000000
__Libigdata                                       ibigdata     000000
__Lidata                                          idata        000000
__LidataBANK0                                     idataBANK0   000000
__LidataBANK1                                     idataBANK1   000000
__LidataBANK2                                     idataBANK2   000000
__LidataBANK3                                     idataBANK3   000000
__LidataCOMRAM                                    idataCOMRAM  000000
__Lidloc                                          idloc        200000
__Lifardata                                       ifardata     000000
__Linit                                           init         00000C
__Lintcode                                        intcode      000008
__Lintcode_body                                   intcode_body 000000
__Lintcodelo                                      intcodelo    00000C
__Lintentry                                       intentry     000000
__Lintret                                         intret       000000
__Lintsave_regs                                   intsave_regs 000000
__Lirdata                                         irdata       000000
__Lmediumconst                                    mediumconst  00E8C2
__LnvFARRAM                                       nvFARRAM     000000
__Lnvbit                                          nvbit        000000
__Lnvrram                                         nvrram       000000
__Lparam                                          rparam       000000
__Lpowerup                                        powerup      00000C
__Lram                                            ram          000000
__Lramtop                                         ramtop       000D00
__Lrbit                                           rbit         000000
__Lrbss                                           rbss         000000
__Lrdata                                          rdata        000000
__Lreset_vec                                      reset_vec    000000
__Lrparam                                         rparam       000000
__Lsfr                                            sfr          000000
__Lsmallconst                                     smallconst   000000
__Lspace_0                                        (abs)        000000
__Lspace_1                                        (abs)        000000
__Lspace_2                                        (abs)        000000
__Lstack                                          stack        000389
__Lstruct                                         struct       000000
__Ltemp                                           temp         00003F
__Ltext                                           text         000000
__Ltext0                                          text0        000000
__Ltext1                                          text1        000000
__Ltext10                                         text10       000000
__Ltext100                                        text100      000000
__Ltext101                                        text101      000000
__Ltext102                                        text102      000000
__Ltext103                                        text103      000000
__Ltext104                                        text104      000000
__Ltext105                                        text105      000000
__Ltext106                                        text106      000000
__Ltext107                                        text107      000000
__Ltext108                                        text108      000000
__Ltext109                                        text109      000000
__Ltext11                                         text11       000000
__Ltext110                                        text110      000000
__Ltext111                                        text111      000000
__Ltext112                                        text112      000000
__Ltext113                                        text113      000000
__Ltext114                                        text114      000000
__Ltext115                                        text115      000000
__Ltext116                                        text116      000000
__Ltext117                                        text117      000000
__Ltext118                                        text118      000000
__Ltext119                                        text119      000000
__Ltext12                                         text12       000000
__Ltext120                                        text120      000000
__Ltext121                                        text121      000000
__Ltext122                                        text122      000000
__Ltext123                                        text123      000000
__Ltext124                                        text124      000000
__Ltext125                                        text125      000000
__Ltext126                                        text126      000000
__Ltext127                                        text127      000000
__Ltext128                                        text128      000000
__Ltext129                                        text129      000000
__Ltext13                                         text13       000000
__Ltext130                                        text130      000000
__Ltext131                                        text131      000000
__Ltext132                                        text132      000000
__Ltext133                                        text133      000000
__Ltext134                                        text134      000000
__Ltext135                                        text135      000000
__Ltext136                                        text136      000000
__Ltext137                                        text137      000000
__Ltext138                                        text138      000000
__Ltext139                                        text139      000000
__Ltext14                                         text14       000000
__Ltext141                                        text141      000000
__Ltext142                                        text142      000000
__Ltext143                                        text143      000000
__Ltext144                                        text144      000000
__Ltext145                                        text145      000000
__Ltext146                                        text146      000000
__Ltext15                                         text15       000000
__Ltext16                                         text16       000000
__Ltext17                                         text17       000000
__Ltext18                                         text18       000000
__Ltext19                                         text19       000000
__Ltext2                                          text2        000000
__Ltext20                                         text20       000000
__Ltext21                                         text21       000000
__Ltext22                                         text22       000000
__Ltext23                                         text23       000000
__Ltext24                                         text24       000000
__Ltext25                                         text25       000000
__Ltext26                                         text26       000000
__Ltext27                                         text27       000000
__Ltext28                                         text28       000000
__Ltext29                                         text29       000000
__Ltext3                                          text3        000000
__Ltext30                                         text30       000000
__Ltext31                                         text31       000000
__Ltext32                                         text32       000000
__Ltext33                                         text33       000000
__Ltext34                                         text34       000000
__Ltext35                                         text35       000000
__Ltext36                                         text36       000000
__Ltext37                                         text37       000000
__Ltext38                                         text38       000000
__Ltext39                                         text39       000000
__Ltext4                                          text4        000000
__Ltext40                                         text40       000000
__Ltext41                                         text41       000000
__Ltext42                                         text42       000000
__Ltext43                                         text43       000000
__Ltext44                                         text44       000000
__Ltext45                                         text45       000000
__Ltext46                                         text46       000000
__Ltext47                                         text47       000000
__Ltext48                                         text48       000000
__Ltext49                                         text49       000000
__Ltext5                                          text5        000000
__Ltext50                                         text50       000000
__Ltext51                                         text51       000000
__Ltext52                                         text52       000000
__Ltext53                                         text53       000000
__Ltext54                                         text54       000000
__Ltext55                                         text55       000000
__Ltext56                                         text56       000000
__Ltext57                                         text57       000000
__Ltext58                                         text58       000000
__Ltext59                                         text59       000000
__Ltext6                                          text6        000000
__Ltext60                                         text60       000000
__Ltext61                                         text61       000000
__Ltext62                                         text62       000000
__Ltext63                                         text63       000000
__Ltext64                                         text64       000000
__Ltext65                                         text65       000000
__Ltext66                                         text66       000000
__Ltext67                                         text67       000000
__Ltext68                                         text68       000000
__Ltext69                                         text69       000000
__Ltext7                                          text7        000000
__Ltext70                                         text70       000000
__Ltext71                                         text71       000000
__Ltext72                                         text72       000000
__Ltext73                                         text73       000000
__Ltext74                                         text74       000000
__Ltext75                                         text75       000000
__Ltext76                                         text76       000000
__Ltext77                                         text77       000000
__Ltext78                                         text78       000000
__Ltext79                                         text79       000000
__Ltext8                                          text8        000000
__Ltext80                                         text80       000000
__Ltext81                                         text81       000000
__Ltext82                                         text82       000000
__Ltext83                                         text83       000000
__Ltext84                                         text84       000000
__Ltext85                                         text85       000000
__Ltext86                                         text86       000000
__Ltext87                                         text87       000000
__Ltext88                                         text88       000000
__Ltext89                                         text89       000000
__Ltext9                                          text9        000000
__Ltext90                                         text90       000000
__Ltext91                                         text91       000000
__Ltext92                                         text92       000000
__Ltext93                                         text93       000000
__Ltext94                                         text94       000000
__Ltext95                                         text95       000000
__Ltext96                                         text96       000000
__Ltext97                                         text97       000000
__Ltext98                                         text98       000000
__Ltext99                                         text99       000000
__S0                                              (abs)        F00008
__S1                                              (abs)        000389
__S2                                              (abs)        000D00
___aldiv                                          text115      00747C
___aldiv@counter                                  cstackBANK0  000068
___aldiv@dividend                                 cstackBANK0  000060
___aldiv@divisor                                  cstackBANK0  000064
___aldiv@quotient                                 cstackBANK0  00006A
___aldiv@sign                                     cstackBANK0  000069
___awdiv                                          text55       006138
___awmod                                          text87       0068E4
___fladd                                          text120      003336
___fladd@a                                        cstackBANK0  0000A8
___fladd@aexp                                     cstackBANK0  0000B5
___fladd@b                                        cstackBANK0  0000A4
___fladd@bexp                                     cstackBANK0  0000B6
___fladd@grs                                      cstackBANK0  0000B7
___fladd@signs                                    cstackBANK0  0000B4
___fldiv                                          text48       003C3A
___fldiv@a                                        cstackBANK0  00008B
___fldiv@aexp                                     cstackBANK0  00009F
___fldiv@b                                        cstackBANK0  000087
___fldiv@bexp                                     cstackBANK0  00009E
___fldiv@grs                                      cstackBANK0  00009A
___fldiv@new_exp                                  cstackBANK0  000098
___fldiv@rem                                      cstackBANK0  000094
___fldiv@sign                                     cstackBANK0  000093
___flmul                                          text119      002FE4
___flmul@a                                        cstackBANK0  000072
___flmul@aexp                                     cstackBANK0  00007B
___flmul@b                                        cstackBANK0  00006E
___flmul@bexp                                     cstackBANK0  000080
___flmul@grs                                      cstackBANK0  00007C
___flmul@prod                                     cstackBANK0  000081
___flmul@sign                                     cstackBANK0  00007A
___flmul@temp                                     cstackBANK0  000085
___flneg                                          text118      00974E
___flneg@f1                                       cstackBANK0  0000A0
___fltol                                          text117      006F78
___fltol@exp1                                     cstackBANK0  0000C1
___fltol@f1                                       cstackBANK0  0000B8
___fltol@sign1                                    cstackBANK0  0000C0
___inthi_sp                                       stack        0006B2
___intlo_sp                                       stack        0009D9
___lbmod                                          text112      0082C2
___lmul                                           text114      00754A
___param_bank                                     (abs)        000000
___rparam_used                                    (abs)        000001
___sp                                             stack        000389
___wmul                                           text133      009854
___wmul@multiplicand                              cstackBANK0  000062
___wmul@multiplier                                cstackBANK0  000060
___wmul@product                                   cstackBANK0  000064
___xxtofl                                         text116      005FE4
___xxtofl@arg                                     cstackBANK0  00006A
___xxtofl@exp                                     cstackBANK0  000069
___xxtofl@sign                                    cstackBANK0  000068
___xxtofl@val                                     cstackBANK0  000060
__accesstop                                       (abs)        000060
__activetblptr                                    (abs)        000002
__end_of_ADC_Initialize                           text139      0099C4
__end_of_ADC_Read                                 text121      0096B4
__end_of_Busy_eep                                 text130      0099FA
__end_of_Function_A                               text58       00747C
__end_of_Function_A_1                             text61       0073AE
__end_of_Function_A_2                             text60       0072D8
__end_of_Function_A_3                             text59       007202
__end_of_Function_B                               text57       0088DA
__end_of_Function_C                               text51       008114
__end_of_Function_C_1                             text56       0082C2
__end_of_Function_C_2                             text53       0064B6
__end_of_Function_C_3                             text52       006390
__end_of_Function_D                               text41       008234
__end_of_Function_D_1                             text49       0084E8
__end_of_Function_D_2                             text46       00907A
__end_of_Function_D_3                             text44       008A3E
__end_of_Function_D_4                             text43       008860
__end_of_Function_D_5                             text42       0087E6
__end_of_Function_E                               text38       008D52
__end_of_Function_E_1                             text40       009324
__end_of_Function_E_2                             text39       0092D8
__end_of_Function_F                               text36       008EF4
__end_of_Function_G                               text25       0081A4
__end_of_Function_G_1                             text33       007EB6
__end_of_Function_G_2                             text29       007E16
__end_of_Function_G_3                             text28       009134
__end_of_Function_G_4                             text26       007FEC
__end_of_Function_H                               text7        007794
__end_of_Function_H_1                             text24       00712C
__end_of_Function_H_2                             text23       008E8E
__end_of_Function_H_3                             text22       00918E
__end_of_Function_H_4                             text21       007846
__end_of_Function_H_5                             text20       007AF6
__end_of_Function_H_6                             text17       008CE6
__end_of_Function_H_6_1                           text19       007F52
__end_of_Function_H_6_2                           text18       007A4C
__end_of_Function_H_7                             text16       0078F4
__end_of_Function_H_8                             text13       008C78
__end_of_Function_H_8_1                           text15       0089C8
__end_of_Function_H_8_2                           text14       008F58
__end_of_Function_H_9                             text8        008082
__end_of_Function_H_9_1                           text12       007D76
__end_of_Function_H_9_2                           text11       007CD6
__end_of_Function_H_9_3                           text10       007C36
__end_of_Function_H_9_4                           text9        007B96
__end_of_ISR                                      intcode_body 005544
__end_of_LCD_STRINGS                              mediumconst  00FCFB
__end_of_Lcd_Clear                                text6        00999C
__end_of_Lcd_Cmd                                  text137      0098A2
__end_of_Lcd_Print_Char                           text126      0085F0
__end_of_Lcd_Print_String                         text125      00856C
__end_of_Lcd_SetBit                               text138      0097AE
__end_of_Lcd_Set_Cursor                           text124      00901C
__end_of_Lcd_Start                                text136      0083DC
__end_of_MAX_NUM_NOTES                            mediumconst  00F39E
__end_of_Read_b_eep                               text131      00993C
__end_of_Write_b_eep                              text129      00951A
__end_of___aldiv                                  text115      00754A
__end_of___awdiv                                  text55       00626A
__end_of___awmod                                  text87       0069E4
__end_of___fladd                                  text120      003674
__end_of___fldiv                                  text48       003EF0
__end_of___flmul                                  text119      003336
__end_of___flneg                                  text118      00977E
__end_of___fltol                                  text117      007056
__end_of___lbmod                                  text112      008350
__end_of___lmul                                   text114      007610
__end_of___wmul                                   text133      00987C
__end_of___xxtofl                                 text116      006138
__end_of__initialization                          cinit        006CBE
__end_of_add_notes_to_arpeggio                    text92       006AE2
__end_of_aeolian_key                              mediumconst  00FD19
__end_of_analogInputs                             text103      009448
__end_of_buttonInputsSerial                       text100      00876C
__end_of_calculate_alpha                          text47       00936E
__end_of_calculate_pulse_length                   text31       005FE4
__end_of_clear_row1                               text123      009854
__end_of_clear_row2                               text122      00982C
__end_of_clock                                    text102      0099F4
__end_of_controlChange                            text107      0091E6
__end_of_copy_array                               text88       008FBA
__end_of_delete_notes_from_arpeggio               text90       0096E8
__end_of_diatonic_major                           mediumconst  00F33D
__end_of_diatonic_minor                           mediumconst  00F310
__end_of_diatonic_seventh_major                   mediumconst  00F2E3
__end_of_diatonic_seventh_minor                   mediumconst  00F2A7
__end_of_digitalInputs                            text64       00928C
__end_of_display                                  text144      009986
__end_of_displayDigits                            text146      003C3A
__end_of_displayString                            text145      0066DA
__end_of_displayTest                              text134      008670
__end_of_doTheLatch                               text67       009904
__end_of_doTheUnLatch                             text66       00539A
__end_of_dorian_key                               mediumconst  00FD55
__end_of_eepromExit                               text35       00967C
__end_of_encoderInputsBuxton                      text143      0086F0
__end_of_exitFunction                             text27       0095CE
__end_of_exitLoad                                 text32       009608
__end_of_exitSave                                 text34       009642
__end_of_findArrayIndex                           text91       009594
__end_of_finish_arpeggio_setup                    text82       009922
__end_of_initializeMenuArray                      text132      004FE8
__end_of_initializeSaveSlotsOnce                  text127      0093B8
__end_of_int2string                               text54       0076D4
__end_of_ionian_key                               mediumconst  00FD64
__end_of_key_press_release_note_off               text108      005E7E
__end_of_keyboardTranspose                        text97       0046EC
__end_of_keyboard_all_note_efficient              text77       001DB2
__end_of_keyboard_eight_note_efficient            text71       002FE4
__end_of_keyboard_sharps_only_efficient           text69       00419E
__end_of_load                                     text101      0099EE
__end_of_loadFromEEPROM                           text30       004DE6
__end_of_locrian_key                              mediumconst  00FD0A
__end_of_lydian_key                               mediumconst  00FD37
__end_of_main                                     text0        006BD6
__end_of_major_key                                mediumconst  00F387
__end_of_map                                      text113      0067E0
__end_of_menu_lcd                                 text5        006F78
__end_of_minor_key                                mediumconst  00F378
__end_of_mixolydian_key                           mediumconst  00FD28
__end_of_noteOff                                  text109      0094D8
__end_of_noteOffDrum                              text96       00971C
__end_of_noteOn                                   text81       008B98
__end_of_noteOnDrum                               text95       00923A
__end_of_panic_button                             text4        0098C4
__end_of_pentatonic_major_key                     mediumconst  00F39D
__end_of_pentatonic_minor_key                     mediumconst  00F392
__end_of_phrygian_key                             mediumconst  00FD46
__end_of_pitchBend                                text106      009490
__end_of_playArpeggio                             text141      001898
__end_of_playDiatonicSeventhMajor                 text76       005870
__end_of_playDiatonicSeventhMinor                 text75       004BAE
__end_of_playDiatonicTriadMajor                   text74       005B92
__end_of_playDiatonicTriadMinor                   text73       00494E
__end_of_playSeventh                              text80       005A02
__end_of_playThisNote                             text78       0068E4
__end_of_playThisNote8                            text72       002BE2
__end_of_playThisNotePentatonic                   text70       0056DE
__end_of_playTriad                                text79       005D16
__end_of_printThisNumber                          text99       0099B0
__end_of_processDrumpad                           text94       0022B8
__end_of_processEncoderBuxton                     text63       000A30
__end_of_processKeyboard                          text68       008DBE
__end_of_processOctave                            text65       003982
__end_of_processPotentiometers                    text105      004446
__end_of_programChange                            text37       009400
__end_of_rand                                     text86       008464
__end_of_random_pitches                           text85       008C0A
__end_of_random_pitches_non_repeating             text84       0079A2
__end_of_readPotentiometers                       text104      001198
__end_of_resetArpeggio                            text89       009558
__end_of_rotateArrayLeft                          text93       008952
__end_of_saveToEEPROM                             text128      0051DC
__end_of_seg_ascii                                mediumconst  00F26B
__end_of_seg_bcd_hex                              mediumconst  00F369
__end_of_selectSlotOnBoot                         text3        0098E4
__end_of_sendOut                                  text111      006DB6
__end_of_sendUSB                                  text110      006E9A
__end_of_setControllerNumbers                     text45       0027AE
__end_of_setControllerResolution                  text50       0097DA
__end_of_setup                                    text2        008AB2
__end_of_setupArpeggio                            text83       008B26
__end_of_sort_pitches                             text142      0065CE
__end_of_srand                                    text1        0099D4
__end_of_strcpy                                   text135      00974E
__end_of_ttable                                   mediumconst  00F359
__end_of_un_block_code                            text62       00996E
__end_of_wait_one_pulse                           text98       009804
__end_ofascii@LCD_STRINGS                         mediumconst  00F220
__initialization                                  cinit        006BD6
__mediumconst                                     mediumconst  00E8C2
__pbitbssCOMRAM                                   bitbssCOMRAM 000008
__pbssBANK0                                       bssBANK0     0000CC
__pbssBANK1                                       bssBANK1     000100
__pbssBANK2                                       bssBANK2     000200
__pbssBANK3                                       bssBANK3     000369
__pbssCOMRAM                                      bssCOMRAM    00002A
__pcinit                                          cinit        006BD6
__pcstackBANK0                                    cstackBANK0  000060
__pcstackBANK1                                    cstackBANK1  000197
__pcstackBANK2                                    cstackBANK2  0002E5
__pcstackCOMRAM                                   cstackCOMRAM 000007
__pdataBANK0                                      dataBANK0    0000F5
__pdataBANK1                                      dataBANK1    0001E7
__pdataBANK2                                      dataBANK2    000288
__pdataBANK3                                      dataBANK3    000300
__pdataCOMRAM                                     dataCOMRAM   00004B
__pidataBANK0                                     idataBANK0   0099D4
__pidataBANK1                                     idataBANK1   00993C
__pidataBANK2                                     idataBANK2   00907A
__pidataBANK3                                     idataBANK3   008DBE
__pidataCOMRAM                                    idataCOMRAM  0099DF
__pintcode                                        intcode      000008
__pintcode_body                                   intcode_body 00539A
__pmediumconst                                    mediumconst  00E8C2
__ptext0                                          text0        006AE2
__ptext1                                          text1        0099C4
__ptext10                                         text10       007B96
__ptext100                                        text100      0086F0
__ptext101                                        text101      0099E8
__ptext102                                        text102      0099EE
__ptext103                                        text103      009400
__ptext104                                        text104      000A30
__ptext105                                        text105      00419E
__ptext106                                        text106      009448
__ptext107                                        text107      00918E
__ptext108                                        text108      005D16
__ptext109                                        text109      009490
__ptext11                                         text11       007C36
__ptext110                                        text110      006DB6
__ptext111                                        text111      006CC8
__ptext112                                        text112      0082C2
__ptext113                                        text113      0066DA
__ptext114                                        text114      00754A
__ptext115                                        text115      00747C
__ptext116                                        text116      005FE4
__ptext117                                        text117      006F78
__ptext118                                        text118      00974E
__ptext119                                        text119      002FE4
__ptext12                                         text12       007CD6
__ptext120                                        text120      003336
__ptext121                                        text121      00967C
__ptext122                                        text122      009804
__ptext123                                        text123      00982C
__ptext124                                        text124      008FBA
__ptext125                                        text125      0084E8
__ptext126                                        text126      00856C
__ptext127                                        text127      00936E
__ptext128                                        text128      004FE8
__ptext129                                        text129      0094D8
__ptext13                                         text13       008C0A
__ptext130                                        text130      0099F4
__ptext131                                        text131      009922
__ptext132                                        text132      004DE6
__ptext133                                        text133      009854
__ptext134                                        text134      0085F0
__ptext135                                        text135      00971C
__ptext136                                        text136      008350
__ptext137                                        text137      00987C
__ptext138                                        text138      00977E
__ptext139                                        text139      0099B0
__ptext14                                         text14       008EF4
__ptext141                                        text141      001198
__ptext142                                        text142      0064B6
__ptext143                                        text143      008670
__ptext144                                        text144      00996E
__ptext145                                        text145      0065CE
__ptext146                                        text146      003982
__ptext15                                         text15       008952
__ptext16                                         text16       007846
__ptext17                                         text17       008C78
__ptext18                                         text18       0079A2
__ptext19                                         text19       007EB6
__ptext2                                          text2        008A3E
__ptext20                                         text20       007A4C
__ptext21                                         text21       007794
__ptext22                                         text22       009134
__ptext23                                         text23       008E28
__ptext24                                         text24       007056
__ptext25                                         text25       008114
__ptext26                                         text26       007F52
__ptext27                                         text27       009594
__ptext28                                         text28       0090D8
__ptext29                                         text29       007D76
__ptext3                                          text3        0098C4
__ptext30                                         text30       004BAE
__ptext31                                         text31       005E7E
__ptext32                                         text32       0095CE
__ptext33                                         text33       007E16
__ptext34                                         text34       009608
__ptext35                                         text35       009642
__ptext36                                         text36       008E8E
__ptext37                                         text37       0093B8
__ptext38                                         text38       008CE6
__ptext39                                         text39       00928C
__ptext4                                          text4        0098A2
__ptext40                                         text40       0092D8
__ptext41                                         text41       0081A4
__ptext42                                         text42       00876C
__ptext43                                         text43       0087E6
__ptext44                                         text44       0089C8
__ptext45                                         text45       0022B8
__ptext46                                         text46       00901C
__ptext47                                         text47       009324
__ptext48                                         text48       003C3A
__ptext49                                         text49       008464
__ptext5                                          text5        006E9A
__ptext50                                         text50       0097AE
__ptext51                                         text51       008082
__ptext52                                         text52       00626A
__ptext53                                         text53       006390
__ptext54                                         text54       007610
__ptext55                                         text55       006138
__ptext56                                         text56       008234
__ptext57                                         text57       008860
__ptext58                                         text58       0073AE
__ptext59                                         text59       00712C
__ptext6                                          text6        009986
__ptext60                                         text60       007202
__ptext61                                         text61       0072D8
__ptext62                                         text62       009956
__ptext63                                         text63       000014
__ptext64                                         text64       00923A
__ptext65                                         text65       003674
__ptext66                                         text66       0051DC
__ptext67                                         text67       0098E4
__ptext68                                         text68       008D52
__ptext69                                         text69       003EF0
__ptext7                                          text7        0076D4
__ptext70                                         text70       005544
__ptext71                                         text71       002BE2
__ptext72                                         text72       0027AE
__ptext73                                         text73       0046EC
__ptext74                                         text74       005A02
__ptext75                                         text75       00494E
__ptext76                                         text76       0056DE
__ptext77                                         text77       001898
__ptext78                                         text78       0067E0
__ptext79                                         text79       005B92
__ptext8                                          text8        007FEC
__ptext80                                         text80       005870
__ptext81                                         text81       008B26
__ptext82                                         text82       009904
__ptext83                                         text83       008AB2
__ptext84                                         text84       0078F4
__ptext85                                         text85       008B98
__ptext86                                         text86       0083DC
__ptext87                                         text87       0068E4
__ptext88                                         text88       008F58
__ptext89                                         text89       00951A
__ptext9                                          text9        007AF6
__ptext90                                         text90       0096B4
__ptext91                                         text91       009558
__ptext92                                         text92       0069E4
__ptext93                                         text93       0088DA
__ptext94                                         text94       001DB2
__ptext95                                         text95       0091E6
__ptext96                                         text96       0096E8
__ptext97                                         text97       004446
__ptext98                                         text98       0097DA
__ptext99                                         text99       00999C
__ramtop                                          ramtop       000D00
__size_of_ADC_Initialize                          (abs)        000000
__size_of_ADC_Read                                (abs)        000000
__size_of_Busy_eep                                (abs)        000000
__size_of_Function_A                              (abs)        000000
__size_of_Function_A_1                            (abs)        000000
__size_of_Function_A_2                            (abs)        000000
__size_of_Function_A_3                            (abs)        000000
__size_of_Function_B                              (abs)        000000
__size_of_Function_C                              (abs)        000000
__size_of_Function_C_1                            (abs)        000000
__size_of_Function_C_2                            (abs)        000000
__size_of_Function_C_3                            (abs)        000000
__size_of_Function_D                              (abs)        000000
__size_of_Function_D_1                            (abs)        000000
__size_of_Function_D_2                            (abs)        000000
__size_of_Function_D_3                            (abs)        000000
__size_of_Function_D_4                            (abs)        000000
__size_of_Function_D_5                            (abs)        000000
__size_of_Function_E                              (abs)        000000
__size_of_Function_E_1                            (abs)        000000
__size_of_Function_E_2                            (abs)        000000
__size_of_Function_F                              (abs)        000000
__size_of_Function_G                              (abs)        000000
__size_of_Function_G_1                            (abs)        000000
__size_of_Function_G_2                            (abs)        000000
__size_of_Function_G_3                            (abs)        000000
__size_of_Function_G_4                            (abs)        000000
__size_of_Function_H                              (abs)        000000
__size_of_Function_H_1                            (abs)        000000
__size_of_Function_H_2                            (abs)        000000
__size_of_Function_H_3                            (abs)        000000
__size_of_Function_H_4                            (abs)        000000
__size_of_Function_H_5                            (abs)        000000
__size_of_Function_H_6                            (abs)        000000
__size_of_Function_H_6_1                          (abs)        000000
__size_of_Function_H_6_2                          (abs)        000000
__size_of_Function_H_7                            (abs)        000000
__size_of_Function_H_8                            (abs)        000000
__size_of_Function_H_8_1                          (abs)        000000
__size_of_Function_H_8_2                          (abs)        000000
__size_of_Function_H_9                            (abs)        000000
__size_of_Function_H_9_1                          (abs)        000000
__size_of_Function_H_9_2                          (abs)        000000
__size_of_Function_H_9_3                          (abs)        000000
__size_of_Function_H_9_4                          (abs)        000000
__size_of_ISR                                     (abs)        000000
__size_of_Lcd_Clear                               (abs)        000000
__size_of_Lcd_Cmd                                 (abs)        000000
__size_of_Lcd_Print_Char                          (abs)        000000
__size_of_Lcd_Print_String                        (abs)        000000
__size_of_Lcd_SetBit                              (abs)        000000
__size_of_Lcd_Set_Cursor                          (abs)        000000
__size_of_Lcd_Start                               (abs)        000000
__size_of_Read_b_eep                              (abs)        000000
__size_of_Write_b_eep                             (abs)        000000
__size_of___aldiv                                 (abs)        000000
__size_of___awdiv                                 (abs)        000000
__size_of___awmod                                 (abs)        000000
__size_of___fladd                                 (abs)        000000
__size_of___fldiv                                 (abs)        000000
__size_of___flmul                                 (abs)        000000
__size_of___flneg                                 (abs)        000000
__size_of___fltol                                 (abs)        000000
__size_of___lbmod                                 (abs)        000000
__size_of___lmul                                  (abs)        000000
__size_of___wmul                                  (abs)        000000
__size_of___xxtofl                                (abs)        000000
__size_of_add_notes_to_arpeggio                   (abs)        000000
__size_of_analogInputs                            (abs)        000000
__size_of_buttonInputsSerial                      (abs)        000000
__size_of_calculate_alpha                         (abs)        000000
__size_of_calculate_pulse_length                  (abs)        000000
__size_of_clear_row1                              (abs)        000000
__size_of_clear_row2                              (abs)        000000
__size_of_clock                                   (abs)        000000
__size_of_controlChange                           (abs)        000000
__size_of_copy_array                              (abs)        000000
__size_of_delete_notes_from_arpeggio              (abs)        000000
__size_of_digitalInputs                           (abs)        000000
__size_of_display                                 (abs)        000000
__size_of_displayDigits                           (abs)        000000
__size_of_displayString                           (abs)        000000
__size_of_displayTest                             (abs)        000000
__size_of_doTheLatch                              (abs)        000000
__size_of_doTheUnLatch                            (abs)        000000
__size_of_eepromExit                              (abs)        000000
__size_of_encoderInputsBuxton                     (abs)        000000
__size_of_exitFunction                            (abs)        000000
__size_of_exitLoad                                (abs)        000000
__size_of_exitSave                                (abs)        000000
__size_of_findArrayIndex                          (abs)        000000
__size_of_finish_arpeggio_setup                   (abs)        000000
__size_of_initializeMenuArray                     (abs)        000000
__size_of_initializeSaveSlotsOnce                 (abs)        000000
__size_of_int2string                              (abs)        000000
__size_of_key_press_release_note_off              (abs)        000000
__size_of_keyboardTranspose                       (abs)        000000
__size_of_keyboard_all_note_efficient             (abs)        000000
__size_of_keyboard_eight_note_efficient           (abs)        000000
__size_of_keyboard_sharps_only_efficient          (abs)        000000
__size_of_load                                    (abs)        000000
__size_of_loadFromEEPROM                          (abs)        000000
__size_of_main                                    (abs)        000000
__size_of_map                                     (abs)        000000
__size_of_menu_lcd                                (abs)        000000
__size_of_noteOff                                 (abs)        000000
__size_of_noteOffDrum                             (abs)        000000
__size_of_noteOn                                  (abs)        000000
__size_of_noteOnDrum                              (abs)        000000
__size_of_panic_button                            (abs)        000000
__size_of_pitchBend                               (abs)        000000
__size_of_playArpeggio                            (abs)        000000
__size_of_playDiatonicSeventhMajor                (abs)        000000
__size_of_playDiatonicSeventhMinor                (abs)        000000
__size_of_playDiatonicTriadMajor                  (abs)        000000
__size_of_playDiatonicTriadMinor                  (abs)        000000
__size_of_playSeventh                             (abs)        000000
__size_of_playThisNote                            (abs)        000000
__size_of_playThisNote8                           (abs)        000000
__size_of_playThisNotePentatonic                  (abs)        000000
__size_of_playTriad                               (abs)        000000
__size_of_printThisNumber                         (abs)        000000
__size_of_processDrumpad                          (abs)        000000
__size_of_processEncoderBuxton                    (abs)        000000
__size_of_processKeyboard                         (abs)        000000
__size_of_processOctave                           (abs)        000000
__size_of_processPotentiometers                   (abs)        000000
__size_of_programChange                           (abs)        000000
__size_of_rand                                    (abs)        000000
__size_of_random_pitches                          (abs)        000000
__size_of_random_pitches_non_repeating            (abs)        000000
__size_of_readPotentiometers                      (abs)        000000
__size_of_resetArpeggio                           (abs)        000000
__size_of_rotateArrayLeft                         (abs)        000000
__size_of_saveToEEPROM                            (abs)        000000
__size_of_selectSlotOnBoot                        (abs)        000000
__size_of_sendOut                                 (abs)        000000
__size_of_sendUSB                                 (abs)        000000
__size_of_setControllerNumbers                    (abs)        000000
__size_of_setControllerResolution                 (abs)        000000
__size_of_setup                                   (abs)        000000
__size_of_setupArpeggio                           (abs)        000000
__size_of_sort_pitches                            (abs)        000000
__size_of_srand                                   (abs)        000000
__size_of_strcpy                                  (abs)        000000
__size_of_un_block_code                           (abs)        000000
__size_of_wait_one_pulse                          (abs)        000000
__smallconst                                      smallconst   000000
_add_notes_to_arpeggio                            text92       0069E4
_aeolian_key                                      mediumconst  00FD0A
_analogInputs                                     text103      009400
_arpeggiatorAutoLatchOnOffMenu                    bssBANK1     000120
_arpeggiatorLastNoteModeKeyPressMenu              bssBANK1     000111
_arpeggiatorLastNoteModeKeyReleaseMenu            bssBANK1     00010E
_arpeggiatorLastNoteModeMenu                      bssBANK0     0000DC
_arpeggiatorLastNoteModeResetMenu                 bssBANK1     000108
_arpeggiatorLastNoteModeTransposeMenu             bssBANK1     00010B
_arpeggiatorLatchMenu                             bssBANK1     000126
_arpeggiatorLatchOnOffMenu                        bssBANK1     000123
_arpeggiatorMenu                                  bssBANK0     0000DF
_arpeggiatorNoteLengthMenu                        bssBANK1     000129
_arpeggiatorOctavesMenu                           bssBANK1     00012F
_arpeggiatorOnOffMenu                             bssBANK1     000135
_arpeggiatorRandomizeSkipMenu                     bssBANK1     00011A
_arpeggiatorRandomizeTypeMenu                     bssBANK1     000117
_arpeggiatorSkipFirstLastMenu                     bssBANK1     000114
_arpeggiatorTempoMenu                             bssBANK1     000132
_arpeggiatorTypeMenu                              bssBANK1     00012C
_arpeggiatorUnLatchModeMenu                       bssBANK1     00011D
_arpeggioPtr                                      bssCOMRAM    00002A
_augmented_triad                                  dataBANK2    0002DF
_buttonInputsSerial                               text100      0086F0
_button_state_last                                bssBANK0     0000D4
_button_state_now                                 bssBANK0     0000D8
_calculate_alpha                                  text47       009324
_calculate_pulse_length                           text31       005E7E
_calculate_pulse_length$5908                      cstackBANK0  0000C8
_channel                                          bssCOMRAM    00003E
_clear_row1                                       text123      00982C
_clear_row2                                       text122      009804
_clock                                            text102      0099EE
_command                                          dataBANK1    0001F7
_controlChange                                    text107      00918E
_copy_array                                       text88       008F58
_count_ISR                                        bssBANK2     000264
_delete_notes_from_arpeggio                       text90       0096B4
_diatonic_major                                   mediumconst  00F310
_diatonic_minor                                   mediumconst  00F2E3
_diatonic_seventh_major                           mediumconst  00F2A7
_diatonic_seventh_minor                           mediumconst  00F26B
_digitalInputs                                    text64       00923A
_diminished_7th                                   dataBANK2    0002C8
_diminished_triad                                 dataBANK2    0002DC
_display                                          text144      00996E
_displayDigits                                    text146      003982
_displayString                                    text145      0065CE
_displayTest                                      text134      0085F0
_doTheLatch                                       text67       0098E4
_doTheUnLatch                                     text66       0051DC
_dominant_7th                                     dataBANK2    0002D8
_dorian_key                                       mediumconst  00FD46
_drum                                             bssCOMRAM    000037
_drumCCMenu                                       bssBANK1     00015C
_drumCCTypeMenu                                   bssBANK1     000162
_drumChannelMenu                                  bssBANK1     00013E
_drumMenu                                         bssBANK1     000165
_drumNNMenu                                       bssBANK1     00015F
_drum_button_state_last                           bssCOMRAM    000038
_drum_button_state_now                            bssCOMRAM    000039
_drumchannel                                      dataCOMRAM   000052
_eepromExit                                       text35       009642
_eepromMenu                                       bssBANK1     00013B
_ema_alpha                                        bssBANK1     000104
_ema_integer                                      dataBANK0    0000FE
_ema_sum                                          bssBANK2     000240
_encoderA                                         bitbssCOMRAM 00002C
_encoderB                                         bitbssCOMRAM 00002B
_encoderInputsBuxton                              text143      008670
_encoderPolarity                                  bitbssCOMRAM 00002A
_encoderPolarityMenu                              bssBANK1     000138
_encoder_click                                    bitbssCOMRAM 000029
_encoder_direction                                bssCOMRAM    000036
_encoder_state_last                               bssBANK1     00017E
_encoder_state_now                                bssBANK1     00017F
_exitFunction                                     text27       009594
_exitLoad                                         text32       0095CE
_exitSave                                         text34       009608
_findArrayIndex                                   text91       009558
_finishLastNote                                   bitbssCOMRAM 000015
_finish_arpeggio_setup                            text82       009904
_flag1                                            bitbssCOMRAM 00000F
_flag2                                            bitbssCOMRAM 00000E
_half_diminished_7th                              dataBANK2    0002CC
_initializeMenuArray                              text132      004DE6
_initializeSaveSlotsOnce                          text127      00936E
_inputPotsArray                                   dataBANK2    000288
_int2string                                       text54       007610
_ionian_key                                       mediumconst  00FD55
_iterator_focus                                   dataBANK0    0000FD
_joystickCCMenu                                   bssBANK1     00014A
_key_press_release_note_off                       text108      005D16
_keyboard                                         bssBANK0     0000D0
_keyboardMenu                                     bssBANK0     0000E5
_keyboardTranspose                                text97       004446
_keyboard_all_note_efficient                      text77       001898
_keyboard_eight_note_efficient                    text71       002BE2
_keyboard_sharps_only_efficient                   text69       003EF0
_lastNoteMode                                     bitbssCOMRAM 00001A
_last_note                                        bssBANK0     0000EC
_last_octave                                      bssBANK1     00017D
_latch_was_pressed                                bitbssCOMRAM 00001D
_lcd_print_once                                   bitbssCOMRAM 000027
_light_decimal_points                             bitbssCOMRAM 000030
_load                                             text101      0099E8
_loadFromEEPROM                                   text30       004BAE
_locrian_key                                      mediumconst  00FCFB
_lydian_key                                       mediumconst  00FD28
_main                                             text0        006AE2
_mainChannelMenu                                  bssBANK1     000141
_mainMenu                                         bssBANK1     000174
_major_7th                                        dataBANK2    0002D4
_major_key                                        mediumconst  00F378
_major_triad                                      dataBANK1    0001FD
_map                                              text113      0066DA
_menuArray                                        dataBANK3    000300
_menu_lcd                                         text5        006E9A
_midiChannelMenu                                  bssBANK1     000147
_minor_7th                                        dataBANK2    0002D0
_minor_key                                        mediumconst  00F369
_minor_triad                                      dataBANK2    0002E2
_mixolydian_key                                   mediumconst  00FD19
_modeMenu                                         bssBANK1     000171
_noteNumber                                       bssCOMRAM    00003C
_noteOff                                          text109      009490
_noteOffDrum                                      text96       0096E8
_noteOn                                           text81       008B26
_noteOnDrum                                       text95       0091E6
_note_off_was_sent                                bitbssCOMRAM 000010
_number_of_interrupts                             dataBANK2    0002C4
_number_to_display                                dataCOMRAM   00004B
_octave                                           dataCOMRAM   000050
_octave_overflow                                  bitbssCOMRAM 000011
_overflow                                         bitbssCOMRAM 000012
_panic_button                                     text4        0098A2
_parallel                                         bssCOMRAM    000030
_patch_number                                     bssBANK0     0000F3
_pentatonic_major_key                             mediumconst  00F392
_pentatonic_minor_key                             mediumconst  00F387
_phrygian_key                                     mediumconst  00FD37
_pitchBend                                        text106      009448
_playArpeggio                                     text141      001198
_playDiatonicSeventhMajor                         text76       0056DE
_playDiatonicSeventhMinor                         text75       00494E
_playDiatonicTriadMajor                           text74       005A02
_playDiatonicTriadMinor                           text73       0046EC
_playSeventh                                      text80       005870
_playThisNote                                     text78       0067E0
_playThisNote8                                    text72       0027AE
_playThisNotePentatonic                           text70       005544
_playTriad                                        text79       005B92
_potentiometer_filtered_last                      bssBANK2     000200
_potentiometer_filtered_now                       bssBANK2     000220
_potentiometer_raw                                bssBANK3     000369
_potsAlphaMenu                                    bssBANK1     000153
_potsCCMenu                                       bssBANK1     000150
_potsMenu                                         bssBANK1     000159
_potsResoMenu                                     bssBANK1     000156
_printThisNumber                                  text99       00999C
_print_row_2_once                                 bitbssCOMRAM 000026
_processDrumpad                                   text94       001DB2
_processEncoderBuxton                             text63       000014
_processKeyboard                                  text68       008D52
_processOctave                                    text65       003674
_processPotentiometers                            text105      00419E
_programChange                                    text37       0093B8
_programChangeMenu                                bssBANK1     000144
_rand                                             text86       0083DC
_random_pitches                                   text85       008B98
_random_pitches_non_repeating                     text84       0078F4
_randx                                            dataBANK1    0001EF
_readPotentiometers                               text104      000A30
_readPotentiometers$5907                          cstackBANK1  000197
_resetArpeggio                                    text89       00951A
_rotateArrayLeft                                  text93       0088DA
_saveToEEPROM                                     text128      004FE8
_savesMenu                                        bssBANK0     0000E2
_seg_ascii                                        mediumconst  00F220
_seg_bcd_hex                                      mediumconst  00F359
_selectSlotOnBoot                                 text3        0098C4
_semitone                                         bssCOMRAM    00003B
_sendOut                                          text111      006CC8
_sendUSB                                          text110      006DB6
_setControllerNumbers                             text45       0022B8
_setControllerResolution                          text50       0097AE
_setup                                            text2        008A3E
_setupArpeggio                                    text83       008AB2
_seventhMenu                                      bssBANK1     00016B
_skipFirstLast                                    bitbssCOMRAM 00001B
_slidepotsCCMenu                                  bssBANK1     00014D
_sort_pitches                                     text142      0064B6
_srand                                            text1        0099C4
_startingDirection                                bssCOMRAM    000034
_state                                            bssBANK0     0000ED
_statusByte                                       bssCOMRAM    00003D
_stored_octave                                    bssCOMRAM    000031
_strcpy                                           text135      00971C
_string2display                                   bssBANK1     000192
_string_to_display                                dataBANK1    0001F8
_suppress_note_off                                bitbssCOMRAM 000013
_suppress_note_on                                 bitbssCOMRAM 000014
_toggle_state                                     bssCOMRAM    00002D
_transposeMenu                                    bssBANK1     000168
_triadMenu                                        bssBANK1     00016E
_ttable                                           mediumconst  00F33D
_un_block_code                                    text62       009956
_velocity                                         dataCOMRAM   000051
_wait_one_pulse                                   text98       0097DA
_which_functions_are_unblocked                    bitbssCOMRAM 000028
_which_mode                                       bssBANK0     0000F1
_which_note                                       bssCOMRAM    000033
_which_octave                                     bssCOMRAM    000032
_which_screen                                     dataCOMRAM   00004F
_which_seventh                                    bssBANK0     0000EF
_which_triad                                      bssBANK0     0000F0
add_notes_to_arpeggio@pitch                       cstackBANK0  000070
btemp                                             temp         00003F
buttonInputsSerial@i                              cstackBANK0  000064
buttonInputsSerial@i_4479                         cstackBANK0  000065
calculate_pulse_length@s_tick                     cstackBANK0  0000C4
controlChange@channel                             cstackBANK0  000062
controlChange@controllerNumber                    cstackBANK0  000060
controlChange@value                               cstackBANK0  000061
copy_array@i                                      cstackBANK0  000060
delete_notes_from_arpeggio@INDEX_TO_SHIFT_LEFT_AT cstackBANK0  00006A
delete_notes_from_arpeggio@pitch                  cstackBANK0  000069
displayDigits@digit                               bssBANK0     0000CC
displayDigits@digit_counter                       bssBANK0     0000E9
displayDigits@highByte                            cstackCOMRAM 00000B
displayDigits@lowByte                             cstackCOMRAM 00000A
displayDigits@number_to_display_last              bssBANK1     000179
displayDigits@number_to_display_temp              bssBANK1     000177
displayString@i                                   cstackCOMRAM 000008
displayString@letter                              bssBANK1     000100
displayString@letter_counter                      bssBANK0     0000E8
doTheUnLatch@once                                 bitbssCOMRAM 000009
encoderInputsBuxton@pinstate                      cstackCOMRAM 00000C
encoderInputsBuxton@tempA                         cstackCOMRAM 00000A
encoderInputsBuxton@tempB                         cstackCOMRAM 00000B
end_of_initialization                             cinit        006CBE
findArrayIndex@i                                  cstackBANK0  000062
findArrayIndex@pitch_of_key_release               cstackBANK0  000061
initializeMenuArray@NumberOfElements              cstackBANK0  000067
initializeMenuArray@i                             cstackBANK0  000068
initializeSaveSlotsOnce@initializeSlotsOnce       cstackBANK0  0000B4
int2string@isNegative                             bitbssCOMRAM 000008
int2string@number                                 cstackBANK0  000060
int2string@number_to_display_temp                 cstackBANK0  000064
int_func                                          intcode_body 00539A
intlevel0                                         text         000000
intlevel1                                         text         000000
intlevel2                                         text         000000
intlevel3                                         text         000000
key_press_release_note_off@temp                   bssCOMRAM    00002C
keyboardTranspose@keyPress                        bitbssCOMRAM 00000A
keyboardTranspose@semitone_temp                   bssBANK0     0000EA
keyboard_all_note_efficient@pitch                 cstackBANK0  000076
keyboard_eight_note_efficient@index               cstackBANK0  00007B
keyboard_eight_note_efficient@pitch               cstackBANK0  00007A
keyboard_sharps_only_efficient@index              cstackBANK0  000078
keyboard_sharps_only_efficient@pitch              cstackBANK0  000077
loadFromEEPROM@baseAddress                        cstackBANK1  0001E2
loadFromEEPROM@byte_count                         cstackBANK1  0001E5
loadFromEEPROM@slotNumber                         cstackBANK1  0001E4
loadFromEEPROM@to_load                            cstackBANK1  000197
ltemp0                                            temp         00003F
ltemp1                                            temp         000043
ltemp2                                            temp         000047
map@in_max                                        cstackBANK0  000076
map@in_min                                        cstackBANK0  000072
map@out_max                                       cstackBANK0  00007E
map@out_min                                       cstackBANK0  00007A
map@x                                             cstackBANK0  00006E
noteOffDrum@channel                               cstackBANK0  000062
noteOffDrum@pitch                                 cstackBANK0  000060
noteOffDrum@velocity                              cstackBANK0  000061
noteOnDrum@channel                                cstackBANK0  000062
noteOnDrum@pitch                                  cstackBANK0  000060
noteOnDrum@velocity                               cstackBANK0  000061
pitchBend@channel                                 cstackBANK0  000062
pitchBend@highByte                                cstackBANK0  000061
pitchBend@lowByte                                 cstackBANK0  000060
playDiatonicSeventhMajor@i                        cstackBANK0  000066
playDiatonicSeventhMajor@i_1718                   cstackBANK0  000067
playDiatonicSeventhMajor@index                    cstackBANK0  000061
playDiatonicSeventhMajor@pitch                    cstackBANK0  000068
playDiatonicSeventhMinor@i                        cstackBANK0  000067
playDiatonicSeventhMinor@i_1728                   cstackBANK0  000068
playDiatonicSeventhMinor@index                    cstackBANK0  000061
playDiatonicSeventhMinor@pitch                    cstackBANK0  000066
playDiatonicTriadMajor@i                          cstackBANK0  000066
playDiatonicTriadMajor@i_1713                     cstackBANK0  000067
playDiatonicTriadMajor@index                      cstackBANK0  000061
playDiatonicTriadMajor@pitch                      cstackBANK0  000068
playDiatonicTriadMinor@i                          cstackBANK0  000067
playDiatonicTriadMinor@i_1723                     cstackBANK0  000068
playDiatonicTriadMinor@index                      cstackBANK0  000061
playDiatonicTriadMinor@pitch                      cstackBANK0  000066
playSeventh@i                                     cstackBANK0  000067
playSeventh@i_1696                                cstackBANK0  000068
playSeventh@pitch                                 cstackBANK0  000069
playSeventh@seventh_p                             cstackBANK0  000065
playThisNote8@index                               cstackBANK0  000071
playThisNote8@mode_p                              cstackBANK0  000078
playThisNote8@pitch                               cstackBANK0  000076
playThisNote8@temp_pitch                          cstackBANK0  000077
playThisNote@pitch                                cstackBANK0  000075
playThisNotePentatonic@index                      cstackBANK0  000071
playThisNotePentatonic@temp_pitch                 cstackBANK0  000076
playTriad@i                                       cstackBANK0  000067
playTriad@i_1691                                  cstackBANK0  000068
playTriad@pitch                                   cstackBANK0  000069
playTriad@triad_p                                 cstackBANK0  000065
printThisNumber@n                                 cstackBANK0  000060
processPotentiometers@highByte                    cstackBANK0  000067
processPotentiometers@i                           cstackBANK0  000068
processPotentiometers@lowByte                     cstackBANK0  000066
programChange@channel                             cstackBANK0  000062
programChange@data1                               cstackBANK0  000060
programChange@data2                               cstackBANK0  000061
readPotentiometers@count                          bssBANK2     000260
readPotentiometers@i                              cstackBANK1  00019C
readPotentiometers@i_3434                         cstackBANK1  00019B
readPotentiometers@i_3435                         cstackBANK1  00019D
rotateArrayLeft@array_index                       cstackBANK0  000067
rotateArrayLeft@i                                 cstackBANK0  000068
saveToEEPROM@baseAddress                          cstackBANK0  0000AF
saveToEEPROM@byte_count                           cstackBANK0  0000B2
saveToEEPROM@slotNumber                           cstackBANK0  0000B1
saveToEEPROM@to_save                              cstackBANK0  000064
selectSlotOnBoot@slot                             cstackBANK2  0002E5
setControllerNumbers@array_index                  cstackBANK0  00006F
setControllerResolution@i                         cstackBANK0  000060
sort_pitches@a                                    cstackCOMRAM 000009
sort_pitches@i                                    cstackCOMRAM 00000B
sort_pitches@j                                    cstackCOMRAM 00000A
srand@x                                           cstackBANK0  000060
stackhi                                           (abs)        000CFF
stacklo                                           (abs)        000389
start                                             init         00000C
start_initialization                              cinit        006BD6
strcpy@cp                                         cstackBANK0  000064
strcpy@from                                       cstackBANK0  000062
strcpy@to                                         cstackBANK0  000060
ttemp0                                            temp         00003F
ttemp1                                            temp         000042
ttemp2                                            temp         000045
ttemp3                                            temp         000048
wait_one_pulse@mode                               cstackBANK0  000060
wtemp0                                            temp         00003F
wtemp1                                            temp         000041
wtemp2                                            temp         000043
wtemp3                                            temp         000045
wtemp4                                            temp         000047
wtemp5                                            temp         000049
wtemp6                                            temp         000040


FUNCTION INFORMATION:

 *************** function _main *****************
 Defined at:
		line 522 in file "main.c"
 Parameters:    Size  Location     Type
		None
 Auto vars:     Size  Location     Type
		None
 Return value:  Size  Location     Type
                  2  5022[None  ] int 
 Registers used:
		wreg, fsr0l, fsr0h, fsr1l, fsr1h, fsr2l, fsr2h, status,2, status,0, btemp, btemp+1, btemp+2, btemp+3, btemp+4, btemp+5, btemp+6, btemp+7, btemp+9, btemp+10, btemp+11, tblptrl, tblptrh, tblptru, prodl, prodh, cstack
 Tracked objects:
		On entry : 
		On exit  : 
		Unchanged: 
 Data sizes:     COMRAM   BANK0   BANK1   BANK2   BANK3   BANK4   BANK5   BANK6   BANK7   BANK8   BANK9  BANK10  BANK11  BANK12
      Params:         0       0       0       0       0       0       0       0       0       0       0       0       0       0
      Locals:         0       0       0       0       0       0       0       0       0       0       0       0       0       0
      Temps:          0       0       0       1       0       0       0       0       0       0       0       0       0       0
      Totals:         0       0       0       1       0       0       0       0       0       0       0       0       0       0
Total ram usage:        1 bytes
 Hardware stack levels required when called:   20
 This function calls:
		_ADC_Initialize
		_Lcd_Start
		_Read_b_eep
		_analogInputs
		_calculate_alpha
		_calculate_pulse_length
		_digitalInputs
		_displayTest
		_initializeMenuArray
		_initializeSaveSlotsOnce
		_menu_lcd
		_panic_button
		_processEncoderBuxton
		_selectSlotOnBoot
		_setup
		_srand
 This function is called by:
		Startup code after reset
 This function uses a non-reentrant model


 *************** function _srand *****************
 Defined at:
		line 6 in file "C:\Program Files (x86)\Microchip\xc8\v1.45\sources\common\rand.c"
 Parameters:    Size  Location     Type
  x               2    0[BANK0 ] unsigned int 
 Auto vars:     Size  Location     Type
		None
 Return value:  Size  Location     Type
                  1    wreg      void 
 Registers used:
		status,2
 Tracked objects:
		On entry : 
		On exit  : 
		Unchanged: 
 Data sizes:     COMRAM   BANK0   BANK1   BANK2   BANK3   BANK4   BANK5   BANK6   BANK7   BANK8   BANK9  BANK10  BANK11  BANK12
      Params:         0       2       0       0       0       0       0       0       0       0       0       0       0       0
      Locals:         0       0       0       0       0       0       0       0       0       0       0       0       0       0
      Temps:          0       0       0       0       0       0       0       0       0       0       0       0       0       0
      Totals:         0       2       0       0       0       0       0       0       0       0       0       0       0       0
Total ram usage:        2 bytes
 Hardware stack levels used:    1
 Hardware stack levels required when called:    5
 This function calls:
		Nothing
 This function is called by:
		_main
 This function uses a non-reentrant model


 *************** function _setup *****************
 Defined at:
		line 209 in file "main.c"
 Parameters:    Size  Location     Type
		None
 Auto vars:     Size  Location     Type
		None
 Return value:  Size  Location     Type
                  1    wreg      void 
 Registers used:
		wreg, status,2, status,0
 Tracked objects:
		On entry : 
		On exit  : 
		Unchanged: 
 Data sizes:     COMRAM   BANK0   BANK1   BANK2   BANK3   BANK4   BANK5   BANK6   BANK7   BANK8   BANK9  BANK10  BANK11  BANK12
      Params:         0       0       0       0       0       0       0       0       0       0       0       0       0       0
      Locals:         0       0       0       0       0       0       0       0       0       0       0       0       0       0
      Temps:          0       0       0       0       0       0       0       0       0       0       0       0       0       0
      Totals:         0       0       0       0       0       0       0       0       0       0       0       0       0       0
Total ram usage:        0 bytes
 Hardware stack levels used:    1
 Hardware stack levels required when called:    5
 This function calls:
		Nothing
 This function is called by:
		_main
 This function uses a non-reentrant model


 *************** function _selectSlotOnBoot *****************
 Defined at:
		line 41 in file "eeprom.c"
 Parameters:    Size  Location     Type
		None
 Auto vars:     Size  Location     Type
  slot            1    0[BANK2 ] unsigned char 
 Return value:  Size  Location     Type
                  1    wreg      void 
 Registers used:
		wreg, fsr2l, fsr2h, status,2, status,0, prodl, prodh, cstack
 Tracked objects:
		On entry : 
		On exit  : 
		Unchanged: 
 Data sizes:     COMRAM   BANK0   BANK1   BANK2   BANK3   BANK4   BANK5   BANK6   BANK7   BANK8   BANK9  BANK10  BANK11  BANK12
      Params:         0       0       0       0       0       0       0       0       0       0       0       0       0       0
      Locals:         0       0       0       1       0       0       0       0       0       0       0       0       0       0
      Temps:          0       0       0       0       0       0       0       0       0       0       0       0       0       0
      Totals:         0       0       0       1       0       0       0       0       0       0       0       0       0       0
Total ram usage:        1 bytes
 Hardware stack levels used:    1
 Hardware stack levels required when called:    8
 This function calls:
		_Read_b_eep
		_loadFromEEPROM
 This function is called by:
		_main
 This function uses a non-reentrant model


 *************** function _panic_button *****************
 Defined at:
		line 507 in file "main.c"
 Parameters:    Size  Location     Type
		None
 Auto vars:     Size  Location     Type
		None
 Return value:  Size  Location     Type
                  1    wreg      void 
 Registers used:
		wreg, fsr1l, fsr1h, fsr2l, fsr2h, status,2, status,0, btemp, btemp+1, btemp+2, btemp+9, btemp+10, btemp+11, prodl, prodh, cstack
 Tracked objects:
		On entry : 
		On exit  : 
		Unchanged: 
 Data sizes:     COMRAM   BANK0   BANK1   BANK2   BANK3   BANK4   BANK5   BANK6   BANK7   BANK8   BANK9  BANK10  BANK11  BANK12
      Params:         0       0       0       0       0       0       0       0       0       0       0       0       0       0
      Locals:         0       0       0       0       0       0       0       0       0       0       0       0       0       0
      Temps:          0       0       0       0       0       0       0       0       0       0       0       0       0       0
      Totals:         0       0       0       0       0       0       0       0       0       0       0       0       0       0
Total ram usage:        0 bytes
 Hardware stack levels used:    1
 Hardware stack levels required when called:    9
 This function calls:
		_controlChange
 This function is called by:
		_main
 This function uses a non-reentrant model


 *************** function _menu_lcd *****************
 Defined at:
		line 325 in file "menu.c"
 Parameters:    Size  Location     Type
		None
 Auto vars:     Size  Location     Type
		None
 Return value:  Size  Location     Type
                  1    wreg      void 
 Registers used:
		wreg, fsr0l, fsr0h, fsr1l, fsr1h, fsr2l, fsr2h, status,2, status,0, btemp, btemp+1, btemp+2, btemp+3, btemp+4, btemp+5, btemp+6, btemp+7, btemp+9, btemp+10, btemp+11, tblptrl, tblptrh, tblptru, prodl, prodh, cstack
 Tracked objects:
		On entry : 
		On exit  : 
		Unchanged: 
 Data sizes:     COMRAM   BANK0   BANK1   BANK2   BANK3   BANK4   BANK5   BANK6   BANK7   BANK8   BANK9  BANK10  BANK11  BANK12
      Params:         0       0       0       0       0       0       0       0       0       0       0       0       0       0
      Locals:         0       0       0       0       0       0       0       0       0       0       0       0       0       0
      Temps:          0       0       0       0       0       0       0       0       0       0       0       0       0       0
      Totals:         0       0       0       0       0       0       0       0       0       0       0       0       0       0
Total ram usage:        0 bytes
 Hardware stack levels used:    1
 Hardware stack levels required when called:   19
 This function calls:
		_Function_A
		_Function_B
		_Function_C
		_Function_D
		_Function_E
		_Function_F
		_Function_G
		_Function_H
		_Lcd_Clear
		_Lcd_Print_String
		_Lcd_Set_Cursor
		___lbmod
		___wmul
		_exitFunction
 This function is called by:
		_main
 This function uses a non-reentrant model


 *************** function _Lcd_Clear *****************
 Defined at:
		line 53 in file "lcd.c"
 Parameters:    Size  Location     Type
		None
 Auto vars:     Size  Location     Type
		None
 Return value:  Size  Location     Type
                  1    wreg      void 
 Registers used:
		wreg, status,2, status,0, cstack
 Tracked objects:
		On entry : 
		On exit  : 
		Unchanged: 
 Data sizes:     COMRAM   BANK0   BANK1   BANK2   BANK3   BANK4   BANK5   BANK6   BANK7   BANK8   BANK9  BANK10  BANK11  BANK12
      Params:         0       0       0       0       0       0       0       0       0       0       0       0       0       0
      Locals:         0       0       0       0       0       0       0       0       0       0       0       0       0       0
      Temps:          0       0       0       0       0       0       0       0       0       0       0       0       0       0
      Totals:         0       0       0       0       0       0       0       0       0       0       0       0       0       0
Total ram usage:        0 bytes
 Hardware stack levels used:    1
 Hardware stack levels required when called:    7
 This function calls:
		_Lcd_Cmd
 This function is called by:
		_menu_lcd
 This function uses a non-reentrant model


 *************** function _Function_H *****************
 Defined at:
		line 1200 in file "menu.c"
 Parameters:    Size  Location     Type
		None
 Auto vars:     Size  Location     Type
		None
 Return value:  Size  Location     Type
                  1    wreg      void 
 Registers used:
		wreg, fsr0l, fsr0h, fsr1l, fsr1h, fsr2l, fsr2h, status,2, status,0, btemp, btemp+1, btemp+2, btemp+3, btemp+4, btemp+5, btemp+6, btemp+7, btemp+9, btemp+10, btemp+11, tblptrl, tblptrh, tblptru, prodl, prodh, cstack
 Tracked objects:
		On entry : 
		On exit  : 
		Unchanged: 
 Data sizes:     COMRAM   BANK0   BANK1   BANK2   BANK3   BANK4   BANK5   BANK6   BANK7   BANK8   BANK9  BANK10  BANK11  BANK12
      Params:         0       0       0       0       0       0       0       0       0       0       0       0       0       0
      Locals:         0       0       0       0       0       0       0       0       0       0       0       0       0       0
      Temps:          0       0       0       0       0       0       0       0       0       0       0       0       0       0
      Totals:         0       0       0       0       0       0       0       0       0       0       0       0       0       0
Total ram usage:        0 bytes
 Hardware stack levels used:    1
 Hardware stack levels required when called:   18
 This function calls:
		_Function_H_1
		_Function_H_2
		_Function_H_3
		_Function_H_4
		_Function_H_5
		_Function_H_6
		_Function_H_7
		_Function_H_8
		_Function_H_9
		_Lcd_Print_String
		___lbmod
		___wmul
		_clear_row2
		_un_block_code
 This function is called by:
		_menu_lcd
 This function uses a non-reentrant model


 *************** function _Function_H_9 *****************
 Defined at:
		line 1829 in file "menu.c"
 Parameters:    Size  Location     Type
		None
 Auto vars:     Size  Location     Type
		None
 Return value:  Size  Location     Type
                  1    wreg      void 
 Registers used:
		wreg, fsr0l, fsr0h, fsr1l, fsr1h, fsr2l, fsr2h, status,2, status,0, btemp, btemp+1, btemp+2, btemp+3, btemp+4, btemp+5, btemp+6, btemp+7, btemp+9, btemp+10, btemp+11, tblptrl, tblptrh, tblptru, prodl, prodh, cstack
 Tracked objects:
		On entry : 
		On exit  : 
		Unchanged: 
 Data sizes:     COMRAM   BANK0   BANK1   BANK2   BANK3   BANK4   BANK5   BANK6   BANK7   BANK8   BANK9  BANK10  BANK11  BANK12
      Params:         0       0       0       0       0       0       0       0       0       0       0       0       0       0
      Locals:         0       0       0       0       0       0       0       0       0       0       0       0       0       0
      Temps:          0       0       0       0       0       0       0       0       0       0       0       0       0       0
      Totals:         0       0       0       0       0       0       0       0       0       0       0       0       0       0
Total ram usage:        0 bytes
 Hardware stack levels used:    1
 Hardware stack levels required when called:   17
 This function calls:
		_Function_H_9_1
		_Function_H_9_2
		_Function_H_9_3
		_Function_H_9_4
		_Lcd_Print_String
		___lbmod
		___wmul
		_clear_row1
		_clear_row2
		_un_block_code
 This function is called by:
		_Function_H
 This function uses a non-reentrant model


 *************** function _Function_H_9_4 *****************
 Defined at:
		line 1800 in file "menu.c"
 Parameters:    Size  Location     Type
		None
 Auto vars:     Size  Location     Type
		None
 Return value:  Size  Location     Type
                  1    wreg      void 
 Registers used:
		wreg, fsr0l, fsr0h, fsr1l, fsr1h, fsr2l, fsr2h, status,2, status,0, btemp, btemp+1, btemp+2, btemp+3, btemp+4, btemp+5, btemp+6, btemp+7, btemp+9, btemp+10, btemp+11, tblptrl, tblptrh, tblptru, prodl, prodh, cstack
 Tracked objects:
		On entry : 
		On exit  : 
		Unchanged: 
 Data sizes:     COMRAM   BANK0   BANK1   BANK2   BANK3   BANK4   BANK5   BANK6   BANK7   BANK8   BANK9  BANK10  BANK11  BANK12
      Params:         0       0       0       0       0       0       0       0       0       0       0       0       0       0
      Locals:         0       0       0       0       0       0       0       0       0       0       0       0       0       0
      Temps:          0       0       0       0       0       0       0       0       0       0       0       0       0       0
      Totals:         0       0       0       0       0       0       0       0       0       0       0       0       0       0
Total ram usage:        0 bytes
 Hardware stack levels used:    1
 Hardware stack levels required when called:   16
 This function calls:
		_Lcd_Print_String
		___lbmod
		___wmul
		_clear_row1
		_clear_row2
		_un_block_code
 This function is called by:
		_Function_H_9
 This function uses a non-reentrant model


 *************** function _Function_H_9_3 *****************
 Defined at:
		line 1772 in file "menu.c"
 Parameters:    Size  Location     Type
		None
 Auto vars:     Size  Location     Type
		None
 Return value:  Size  Location     Type
                  1    wreg      void 
 Registers used:
		wreg, fsr0l, fsr0h, fsr1l, fsr1h, fsr2l, fsr2h, status,2, status,0, btemp, btemp+1, btemp+2, btemp+3, btemp+4, btemp+5, btemp+6, btemp+7, btemp+9, btemp+10, btemp+11, tblptrl, tblptrh, tblptru, prodl, prodh, cstack
 Tracked objects:
		On entry : 
		On exit  : 
		Unchanged: 
 Data sizes:     COMRAM   BANK0   BANK1   BANK2   BANK3   BANK4   BANK5   BANK6   BANK7   BANK8   BANK9  BANK10  BANK11  BANK12
      Params:         0       0       0       0       0       0       0       0       0       0       0       0       0       0
      Locals:         0       0       0       0       0       0       0       0       0       0       0       0       0       0
      Temps:          0       0       0       0       0       0       0       0       0       0       0       0       0       0
      Totals:         0       0       0       0       0       0       0       0       0       0       0       0       0       0
Total ram usage:        0 bytes
 Hardware stack levels used:    1
 Hardware stack levels required when called:   16
 This function calls:
		_Lcd_Print_String
		___lbmod
		___wmul
		_clear_row1
		_clear_row2
		_un_block_code
 This function is called by:
		_Function_H_9
 This function uses a non-reentrant model


 *************** function _Function_H_9_2 *****************
 Defined at:
		line 1745 in file "menu.c"
 Parameters:    Size  Location     Type
		None
 Auto vars:     Size  Location     Type
		None
 Return value:  Size  Location     Type
                  1    wreg      void 
 Registers used:
		wreg, fsr0l, fsr0h, fsr1l, fsr1h, fsr2l, fsr2h, status,2, status,0, btemp, btemp+1, btemp+2, btemp+3, btemp+4, btemp+5, btemp+6, btemp+7, btemp+9, btemp+10, btemp+11, tblptrl, tblptrh, tblptru, prodl, prodh, cstack
 Tracked objects:
		On entry : 
		On exit  : 
		Unchanged: 
 Data sizes:     COMRAM   BANK0   BANK1   BANK2   BANK3   BANK4   BANK5   BANK6   BANK7   BANK8   BANK9  BANK10  BANK11  BANK12
      Params:         0       0       0       0       0       0       0       0       0       0       0       0       0       0
      Locals:         0       0       0       0       0       0       0       0       0       0       0       0       0       0
      Temps:          0       0       0       0       0       0       0       0       0       0       0       0       0       0
      Totals:         0       0       0       0       0       0       0       0       0       0       0       0       0       0
Total ram usage:        0 bytes
 Hardware stack levels used:    1
 Hardware stack levels required when called:   16
 This function calls:
		_Lcd_Print_String
		___lbmod
		___wmul
		_clear_row1
		_clear_row2
		_un_block_code
 This function is called by:
		_Function_H_9
 This function uses a non-reentrant model


 *************** function _Function_H_9_1 *****************
 Defined at:
		line 1718 in file "menu.c"
 Parameters:    Size  Location     Type
		None
 Auto vars:     Size  Location     Type
		None
 Return value:  Size  Location     Type
                  1    wreg      void 
 Registers used:
		wreg, fsr0l, fsr0h, fsr1l, fsr1h, fsr2l, fsr2h, status,2, status,0, btemp, btemp+1, btemp+2, btemp+3, btemp+4, btemp+5, btemp+6, btemp+7, btemp+9, btemp+10, btemp+11, tblptrl, tblptrh, tblptru, prodl, prodh, cstack
 Tracked objects:
		On entry : 
		On exit  : 
		Unchanged: 
 Data sizes:     COMRAM   BANK0   BANK1   BANK2   BANK3   BANK4   BANK5   BANK6   BANK7   BANK8   BANK9  BANK10  BANK11  BANK12
      Params:         0       0       0       0       0       0       0       0       0       0       0       0       0       0
      Locals:         0       0       0       0       0       0       0       0       0       0       0       0       0       0
      Temps:          0       0       0       0       0       0       0       0       0       0       0       0       0       0
      Totals:         0       0       0       0       0       0       0       0       0       0       0       0       0       0
Total ram usage:        0 bytes
 Hardware stack levels used:    1
 Hardware stack levels required when called:   16
 This function calls:
		_Lcd_Print_String
		___lbmod
		___wmul
		_clear_row1
		_clear_row2
		_un_block_code
 This function is called by:
		_Function_H_9
 This function uses a non-reentrant model


 *************** function _Function_H_8 *****************
 Defined at:
		line 1692 in file "menu.c"
 Parameters:    Size  Location     Type
		None
 Auto vars:     Size  Location     Type
		None
 Return value:  Size  Location     Type
                  1    wreg      void 
 Registers used:
		wreg, fsr0l, fsr0h, fsr1l, fsr1h, fsr2l, fsr2h, status,2, status,0, btemp, btemp+1, btemp+2, btemp+3, btemp+4, btemp+5, btemp+6, btemp+7, btemp+9, btemp+10, btemp+11, tblptrl, tblptrh, tblptru, prodl, prodh, cstack
 Tracked objects:
		On entry : 
		On exit  : 
		Unchanged: 
 Data sizes:     COMRAM   BANK0   BANK1   BANK2   BANK3   BANK4   BANK5   BANK6   BANK7   BANK8   BANK9  BANK10  BANK11  BANK12
      Params:         0       0       0       0       0       0       0       0       0       0       0       0       0       0
      Locals:         0       0       0       0       0       0       0       0       0       0       0       0       0       0
      Temps:          0       0       0       0       0       0       0       0       0       0       0       0       0       0
      Totals:         0       0       0       0       0       0       0       0       0       0       0       0       0       0
Total ram usage:        0 bytes
 Hardware stack levels used:    1
 Hardware stack levels required when called:   17
 This function calls:
		_Function_H_8_1
		_Function_H_8_2
		_Lcd_Print_String
		___lbmod
		___wmul
		_clear_row2
		_un_block_code
 This function is called by:
		_Function_H
 This function uses a non-reentrant model


 *************** function _Function_H_8_2 *****************
 Defined at:
		line 1666 in file "menu.c"
 Parameters:    Size  Location     Type
		None
 Auto vars:     Size  Location     Type
		None
 Return value:  Size  Location     Type
                  1    wreg      void 
 Registers used:
		wreg, fsr0l, fsr0h, fsr1l, fsr1h, fsr2l, fsr2h, status,2, status,0, btemp, btemp+1, btemp+2, btemp+3, btemp+4, btemp+5, btemp+6, btemp+7, btemp+9, btemp+10, btemp+11, tblptrl, tblptrh, tblptru, prodl, prodh, cstack
 Tracked objects:
		On entry : 
		On exit  : 
		Unchanged: 
 Data sizes:     COMRAM   BANK0   BANK1   BANK2   BANK3   BANK4   BANK5   BANK6   BANK7   BANK8   BANK9  BANK10  BANK11  BANK12
      Params:         0       0       0       0       0       0       0       0       0       0       0       0       0       0
      Locals:         0       0       0       0       0       0       0       0       0       0       0       0       0       0
      Temps:          0       0       0       0       0       0       0       0       0       0       0       0       0       0
      Totals:         0       0       0       0       0       0       0       0       0       0       0       0       0       0
Total ram usage:        0 bytes
 Hardware stack levels used:    1
 Hardware stack levels required when called:   16
 This function calls:
		_Lcd_Print_String
		_clear_row2
		_un_block_code
 This function is called by:
		_Function_H_8
 This function uses a non-reentrant model


 *************** function _Function_H_8_1 *****************
 Defined at:
		line 1636 in file "menu.c"
 Parameters:    Size  Location     Type
		None
 Auto vars:     Size  Location     Type
		None
 Return value:  Size  Location     Type
                  1    wreg      void 
 Registers used:
		wreg, fsr0l, fsr0h, fsr1l, fsr1h, fsr2l, fsr2h, status,2, status,0, btemp, btemp+1, btemp+2, btemp+3, btemp+4, btemp+5, btemp+6, btemp+7, btemp+9, btemp+10, btemp+11, tblptrl, tblptrh, tblptru, prodl, prodh, cstack
 Tracked objects:
		On entry : 
		On exit  : 
		Unchanged: 
 Data sizes:     COMRAM   BANK0   BANK1   BANK2   BANK3   BANK4   BANK5   BANK6   BANK7   BANK8   BANK9  BANK10  BANK11  BANK12
      Params:         0       0       0       0       0       0       0       0       0       0       0       0       0       0
      Locals:         0       0       0       0       0       0       0       0       0       0       0       0       0       0
      Temps:          0       0       0       0       0       0       0       0       0       0       0       0       0       0
      Totals:         0       0       0       0       0       0       0       0       0       0       0       0       0       0
Total ram usage:        0 bytes
 Hardware stack levels used:    1
 Hardware stack levels required when called:   16
 This function calls:
		_Lcd_Print_String
		_clear_row1
		_clear_row2
		_un_block_code
 This function is called by:
		_Function_H_8
 This function uses a non-reentrant model


 *************** function _Function_H_7 *****************
 Defined at:
		line 1599 in file "menu.c"
 Parameters:    Size  Location     Type
		None
 Auto vars:     Size  Location     Type
		None
 Return value:  Size  Location     Type
                  1    wreg      void 
 Registers used:
		wreg, fsr0l, fsr0h, fsr1l, fsr1h, fsr2l, fsr2h, status,2, status,0, btemp, btemp+1, btemp+2, btemp+3, btemp+4, btemp+5, btemp+6, btemp+7, btemp+9, btemp+10, btemp+11, tblptrl, tblptrh, tblptru, prodl, prodh, cstack
 Tracked objects:
		On entry : 
		On exit  : 
		Unchanged: 
 Data sizes:     COMRAM   BANK0   BANK1   BANK2   BANK3   BANK4   BANK5   BANK6   BANK7   BANK8   BANK9  BANK10  BANK11  BANK12
      Params:         0       0       0       0       0       0       0       0       0       0       0       0       0       0
      Locals:         0       0       0       0       0       0       0       0       0       0       0       0       0       0
      Temps:          0       0       0       0       0       0       0       0       0       0       0       0       0       0
      Totals:         0       0       0       0       0       0       0       0       0       0       0       0       0       0
Total ram usage:        0 bytes
 Hardware stack levels used:    1
 Hardware stack levels required when called:   16
 This function calls:
		_Lcd_Print_String
		_clear_row1
		_clear_row2
		_strcpy
		_un_block_code
 This function is called by:
		_Function_H
 This function uses a non-reentrant model


 *************** function _Function_H_6 *****************
 Defined at:
		line 1574 in file "menu.c"
 Parameters:    Size  Location     Type
		None
 Auto vars:     Size  Location     Type
		None
 Return value:  Size  Location     Type
                  1    wreg      void 
 Registers used:
		wreg, fsr0l, fsr0h, fsr1l, fsr1h, fsr2l, fsr2h, status,2, status,0, btemp, btemp+1, btemp+2, btemp+3, btemp+4, btemp+5, btemp+6, btemp+7, btemp+9, btemp+10, btemp+11, tblptrl, tblptrh, tblptru, prodl, prodh, cstack
 Tracked objects:
		On entry : 
		On exit  : 
		Unchanged: 
 Data sizes:     COMRAM   BANK0   BANK1   BANK2   BANK3   BANK4   BANK5   BANK6   BANK7   BANK8   BANK9  BANK10  BANK11  BANK12
      Params:         0       0       0       0       0       0       0       0       0       0       0       0       0       0
      Locals:         0       0       0       0       0       0       0       0       0       0       0       0       0       0
      Temps:          0       0       0       0       0       0       0       0       0       0       0       0       0       0
      Totals:         0       0       0       0       0       0       0       0       0       0       0       0       0       0
Total ram usage:        0 bytes
 Hardware stack levels used:    1
 Hardware stack levels required when called:   17
 This function calls:
		_Function_H_6_1
		_Function_H_6_2
		_Lcd_Print_String
		___lbmod
		___wmul
		_clear_row2
		_un_block_code
 This function is called by:
		_Function_H
 This function uses a non-reentrant model


 *************** function _Function_H_6_2 *****************
 Defined at:
		line 1539 in file "menu.c"
 Parameters:    Size  Location     Type
		None
 Auto vars:     Size  Location     Type
		None
 Return value:  Size  Location     Type
                  1    wreg      void 
 Registers used:
		wreg, fsr0l, fsr0h, fsr1l, fsr1h, fsr2l, fsr2h, status,2, status,0, btemp, btemp+1, btemp+2, btemp+3, btemp+4, btemp+5, btemp+6, btemp+7, btemp+9, btemp+10, btemp+11, tblptrl, tblptrh, tblptru, prodl, prodh, cstack
 Tracked objects:
		On entry : 
		On exit  : 
		Unchanged: 
 Data sizes:     COMRAM   BANK0   BANK1   BANK2   BANK3   BANK4   BANK5   BANK6   BANK7   BANK8   BANK9  BANK10  BANK11  BANK12
      Params:         0       0       0       0       0       0       0       0       0       0       0       0       0       0
      Locals:         0       0       0       0       0       0       0       0       0       0       0       0       0       0
      Temps:          0       0       0       0       0       0       0       0       0       0       0       0       0       0
      Totals:         0       0       0       0       0       0       0       0       0       0       0       0       0       0
Total ram usage:        0 bytes
 Hardware stack levels used:    1
 Hardware stack levels required when called:   16
 This function calls:
		_Lcd_Print_String
		_clear_row1
		_clear_row2
		_strcpy
		_un_block_code
 This function is called by:
		_Function_H_6
 This function uses a non-reentrant model


 *************** function _Function_H_6_1 *****************
 Defined at:
		line 1443 in file "menu.c"
 Parameters:    Size  Location     Type
		None
 Auto vars:     Size  Location     Type
  temp            1  103[BANK0 ] unsigned char 
 Return value:  Size  Location     Type
                  1    wreg      void 
 Registers used:
		wreg, fsr0l, fsr0h, fsr1l, fsr1h, fsr2l, fsr2h, status,2, status,0, btemp, btemp+1, btemp+2, btemp+3, btemp+4, btemp+5, btemp+6, btemp+7, btemp+9, btemp+10, btemp+11, tblptrl, tblptrh, tblptru, prodl, prodh, cstack
 Tracked objects:
		On entry : 
		On exit  : 
		Unchanged: 
 Data sizes:     COMRAM   BANK0   BANK1   BANK2   BANK3   BANK4   BANK5   BANK6   BANK7   BANK8   BANK9  BANK10  BANK11  BANK12
      Params:         0       0       0       0       0       0       0       0       0       0       0       0       0       0
      Locals:         0       1       0       0       0       0       0       0       0       0       0       0       0       0
      Temps:          0       0       0       0       0       0       0       0       0       0       0       0       0       0
      Totals:         0       1       0       0       0       0       0       0       0       0       0       0       0       0
Total ram usage:        1 bytes
 Hardware stack levels used:    1
 Hardware stack levels required when called:   16
 This function calls:
		_Lcd_Print_String
		_clear_row1
		_clear_row2
		_doTheLatch
		_doTheUnLatch
		_un_block_code
 This function is called by:
		_Function_H_6
 This function uses a non-reentrant model


 *************** function _Function_H_5 *****************
 Defined at:
		line 1406 in file "menu.c"
 Parameters:    Size  Location     Type
		None
 Auto vars:     Size  Location     Type
  i               1  104[BANK0 ] unsigned char 
 Return value:  Size  Location     Type
                  1    wreg      void 
 Registers used:
		wreg, fsr0l, fsr0h, fsr1l, fsr1h, fsr2l, fsr2h, status,2, status,0, btemp, btemp+1, btemp+2, btemp+3, btemp+4, btemp+5, btemp+6, btemp+7, btemp+9, btemp+10, btemp+11, tblptrl, tblptrh, tblptru, prodl, prodh, cstack
 Tracked objects:
		On entry : 
		On exit  : 
		Unchanged: 
 Data sizes:     COMRAM   BANK0   BANK1   BANK2   BANK3   BANK4   BANK5   BANK6   BANK7   BANK8   BANK9  BANK10  BANK11  BANK12
      Params:         0       0       0       0       0       0       0       0       0       0       0       0       0       0
      Locals:         0       1       0       0       0       0       0       0       0       0       0       0       0       0
      Temps:          0       1       0       0       0       0       0       0       0       0       0       0       0       0
      Totals:         0       2       0       0       0       0       0       0       0       0       0       0       0       0
Total ram usage:        2 bytes
 Hardware stack levels used:    1
 Hardware stack levels required when called:   16
 This function calls:
		_Lcd_Print_String
		___lbmod
		___wmul
		_clear_row1
		_clear_row2
		_un_block_code
 This function is called by:
		_Function_H
 This function uses a non-reentrant model


 *************** function _Function_H_4 *****************
 Defined at:
		line 1367 in file "menu.c"
 Parameters:    Size  Location     Type
		None
 Auto vars:     Size  Location     Type
		None
 Return value:  Size  Location     Type
                  1    wreg      void 
 Registers used:
		wreg, fsr0l, fsr0h, fsr1l, fsr1h, fsr2l, fsr2h, status,2, status,0, btemp, btemp+1, btemp+2, btemp+3, btemp+4, btemp+5, btemp+6, btemp+7, btemp+9, btemp+10, btemp+11, tblptrl, tblptrh, tblptru, prodl, prodh, cstack
 Tracked objects:
		On entry : 
		On exit  : 
		Unchanged: 
 Data sizes:     COMRAM   BANK0   BANK1   BANK2   BANK3   BANK4   BANK5   BANK6   BANK7   BANK8   BANK9  BANK10  BANK11  BANK12
      Params:         0       0       0       0       0       0       0       0       0       0       0       0       0       0
      Locals:         0       0       0       0       0       0       0       0       0       0       0       0       0       0
      Temps:          0       0       0       0       0       0       0       0       0       0       0       0       0       0
      Totals:         0       0       0       0       0       0       0       0       0       0       0       0       0       0
Total ram usage:        0 bytes
 Hardware stack levels used:    1
 Hardware stack levels required when called:   16
 This function calls:
		_Lcd_Print_String
		___lbmod
		___wmul
		_clear_row1
		_clear_row2
		_setupArpeggio
		_un_block_code
 This function is called by:
		_Function_H
 This function uses a non-reentrant model


 *************** function _Function_H_3 *****************
 Defined at:
		line 1336 in file "menu.c"
 Parameters:    Size  Location     Type
		None
 Auto vars:     Size  Location     Type
		None
 Return value:  Size  Location     Type
                  1    wreg      void 
 Registers used:
		wreg, fsr0l, fsr0h, fsr1l, fsr1h, fsr2l, fsr2h, status,2, status,0, btemp, btemp+1, btemp+2, btemp+3, btemp+4, btemp+5, btemp+6, btemp+7, btemp+9, btemp+10, btemp+11, tblptrl, tblptrh, tblptru, prodl, prodh, cstack
 Tracked objects:
		On entry : 
		On exit  : 
		Unchanged: 
 Data sizes:     COMRAM   BANK0   BANK1   BANK2   BANK3   BANK4   BANK5   BANK6   BANK7   BANK8   BANK9  BANK10  BANK11  BANK12
      Params:         0       0       0       0       0       0       0       0       0       0       0       0       0       0
      Locals:         0       0       0       0       0       0       0       0       0       0       0       0       0       0
      Temps:          0       0       0       0       0       0       0       0       0       0       0       0       0       0
      Totals:         0       0       0       0       0       0       0       0       0       0       0       0       0       0
Total ram usage:        0 bytes
 Hardware stack levels used:    1
 Hardware stack levels required when called:   16
 This function calls:
		_Lcd_Print_String
		_Lcd_Set_Cursor
		_clear_row2
		_int2string
		_un_block_code
 This function is called by:
		_Function_H
 This function uses a non-reentrant model


 *************** function _Function_H_2 *****************
 Defined at:
		line 1305 in file "menu.c"
 Parameters:    Size  Location     Type
		None
 Auto vars:     Size  Location     Type
		None
 Return value:  Size  Location     Type
                  1    wreg      void 
 Registers used:
		wreg, fsr0l, fsr0h, fsr1l, fsr1h, fsr2l, fsr2h, status,2, status,0, btemp, btemp+1, btemp+2, btemp+3, btemp+4, btemp+5, btemp+6, btemp+7, btemp+9, btemp+10, btemp+11, tblptrl, tblptrh, tblptru, prodl, prodh, cstack
 Tracked objects:
		On entry : 
		On exit  : 
		Unchanged: 
 Data sizes:     COMRAM   BANK0   BANK1   BANK2   BANK3   BANK4   BANK5   BANK6   BANK7   BANK8   BANK9  BANK10  BANK11  BANK12
      Params:         0       0       0       0       0       0       0       0       0       0       0       0       0       0
      Locals:         0       0       0       0       0       0       0       0       0       0       0       0       0       0
      Temps:          0       0       0       0       0       0       0       0       0       0       0       0       0       0
      Totals:         0       0       0       0       0       0       0       0       0       0       0       0       0       0
Total ram usage:        0 bytes
 Hardware stack levels used:    1
 Hardware stack levels required when called:   16
 This function calls:
		_Lcd_Print_String
		_Lcd_Set_Cursor
		_calculate_pulse_length
		_clear_row2
		_int2string
		_un_block_code
 This function is called by:
		_Function_H
 This function uses a non-reentrant model


 *************** function _Function_H_1 *****************
 Defined at:
		line 1248 in file "menu.c"
 Parameters:    Size  Location     Type
		None
 Auto vars:     Size  Location     Type
  temp            1  103[BANK0 ] unsigned char 
 Return value:  Size  Location     Type
                  1    wreg      void 
 Registers used:
		wreg, fsr0l, fsr0h, fsr1l, fsr1h, fsr2l, fsr2h, status,2, status,0, btemp, btemp+1, btemp+2, btemp+3, btemp+4, btemp+5, btemp+6, btemp+7, btemp+9, btemp+10, btemp+11, tblptrl, tblptrh, tblptru, prodl, prodh, cstack
 Tracked objects:
		On entry : 
		On exit  : 
		Unchanged: 
 Data sizes:     COMRAM   BANK0   BANK1   BANK2   BANK3   BANK4   BANK5   BANK6   BANK7   BANK8   BANK9  BANK10  BANK11  BANK12
      Params:         0       0       0       0       0       0       0       0       0       0       0       0       0       0
      Locals:         0       1       0       0       0       0       0       0       0       0       0       0       0       0
      Temps:          0       0       0       0       0       0       0       0       0       0       0       0       0       0
      Totals:         0       1       0       0       0       0       0       0       0       0       0       0       0       0
Total ram usage:        1 bytes
 Hardware stack levels used:    1
 Hardware stack levels required when called:   16
 This function calls:
		_Lcd_Print_String
		_clear_row2
		_doTheUnLatch
		_strcpy
		_un_block_code
 This function is called by:
		_Function_H
 This function uses a non-reentrant model


 *************** function _Function_G *****************
 Defined at:
		line 1172 in file "menu.c"
 Parameters:    Size  Location     Type
		None
 Auto vars:     Size  Location     Type
		None
 Return value:  Size  Location     Type
                  1    wreg      void 
 Registers used:
		wreg, fsr0l, fsr0h, fsr1l, fsr1h, fsr2l, fsr2h, status,2, status,0, btemp, btemp+1, btemp+2, btemp+3, btemp+4, btemp+5, btemp+6, btemp+7, btemp+9, btemp+10, btemp+11, tblptrl, tblptrh, tblptru, prodl, prodh, cstack
 Tracked objects:
		On entry : 
		On exit  : 
		Unchanged: 
 Data sizes:     COMRAM   BANK0   BANK1   BANK2   BANK3   BANK4   BANK5   BANK6   BANK7   BANK8   BANK9  BANK10  BANK11  BANK12
      Params:         0       0       0       0       0       0       0       0       0       0       0       0       0       0
      Locals:         0       0       0       0       0       0       0       0       0       0       0       0       0       0
      Temps:          0       0       0       0       0       0       0       0       0       0       0       0       0       0
      Totals:         0       0       0       0       0       0       0       0       0       0       0       0       0       0
Total ram usage:        0 bytes
 Hardware stack levels used:    1
 Hardware stack levels required when called:   17
 This function calls:
		_Function_G_1
		_Function_G_2
		_Function_G_3
		_Function_G_4
		_Lcd_Print_String
		___lbmod
		___wmul
		_clear_row2
		_eepromExit
		_un_block_code
 This function is called by:
		_menu_lcd
 This function uses a non-reentrant model


 *************** function _Function_G_4 *****************
 Defined at:
		line 1139 in file "menu.c"
 Parameters:    Size  Location     Type
		None
 Auto vars:     Size  Location     Type
		None
 Return value:  Size  Location     Type
                  1    wreg      void 
 Registers used:
		wreg, fsr0l, fsr0h, fsr1l, fsr1h, fsr2l, fsr2h, status,2, status,0, btemp, btemp+1, btemp+2, btemp+3, btemp+4, btemp+5, btemp+6, btemp+7, btemp+9, btemp+10, btemp+11, tblptrl, tblptrh, tblptru, prodl, prodh, cstack
 Tracked objects:
		On entry : 
		On exit  : 
		Unchanged: 
 Data sizes:     COMRAM   BANK0   BANK1   BANK2   BANK3   BANK4   BANK5   BANK6   BANK7   BANK8   BANK9  BANK10  BANK11  BANK12
      Params:         0       0       0       0       0       0       0       0       0       0       0       0       0       0
      Locals:         0       0       0       0       0       0       0       0       0       0       0       0       0       0
      Temps:          0       0       0       0       0       0       0       0       0       0       0       0       0       0
      Totals:         0       0       0       0       0       0       0       0       0       0       0       0       0       0
Total ram usage:        0 bytes
 Hardware stack levels used:    1
 Hardware stack levels required when called:   16
 This function calls:
		_Busy_eep
		_Lcd_Print_String
		_Write_b_eep
		___lbmod
		___wmul
		_clear_row1
		_clear_row2
		_exitFunction
		_un_block_code
 This function is called by:
		_Function_G
 This function uses a non-reentrant model


 *************** function _exitFunction *****************
 Defined at:
		line 242 in file "menu.c"
 Parameters:    Size  Location     Type
		None
 Auto vars:     Size  Location     Type
		None
 Return value:  Size  Location     Type
                  1    wreg      void 
 Registers used:
		wreg, fsr0l, fsr0h, status,2, status,0, tblptrl, tblptrh, tblptru, cstack
 Tracked objects:
		On entry : 
		On exit  : 
		Unchanged: 
 Data sizes:     COMRAM   BANK0   BANK1   BANK2   BANK3   BANK4   BANK5   BANK6   BANK7   BANK8   BANK9  BANK10  BANK11  BANK12
      Params:         0       0       0       0       0       0       0       0       0       0       0       0       0       0
      Locals:         0       0       0       0       0       0       0       0       0       0       0       0       0       0
      Temps:          0       2       0       0       0       0       0       0       0       0       0       0       0       0
      Totals:         0       2       0       0       0       0       0       0       0       0       0       0       0       0
Total ram usage:        2 bytes
 Hardware stack levels used:    1
 Hardware stack levels required when called:    9
 This function calls:
		_Lcd_Print_String
		_clear_row1
 This function is called by:
		_menu_lcd
		_Function_G_4
 This function uses a non-reentrant model


 *************** function _Function_G_3 *****************
 Defined at:
		line 1123 in file "menu.c"
 Parameters:    Size  Location     Type
		None
 Auto vars:     Size  Location     Type
		None
 Return value:  Size  Location     Type
                  1    wreg      void 
 Registers used:
		wreg, fsr0l, fsr0h, status,2, status,0, tblptrl, tblptrh, tblptru, cstack
 Tracked objects:
		On entry : 
		On exit  : 
		Unchanged: 
 Data sizes:     COMRAM   BANK0   BANK1   BANK2   BANK3   BANK4   BANK5   BANK6   BANK7   BANK8   BANK9  BANK10  BANK11  BANK12
      Params:         0       0       0       0       0       0       0       0       0       0       0       0       0       0
      Locals:         0       0       0       0       0       0       0       0       0       0       0       0       0       0
      Temps:          0       2       0       0       0       0       0       0       0       0       0       0       0       0
      Totals:         0       2       0       0       0       0       0       0       0       0       0       0       0       0
Total ram usage:        2 bytes
 Hardware stack levels used:    1
 Hardware stack levels required when called:    9
 This function calls:
		_Busy_eep
		_Lcd_Print_String
		_Write_b_eep
		_clear_row1
		_clear_row2
 This function is called by:
		_Function_G
 This function uses a non-reentrant model


 *************** function _Function_G_2 *****************
 Defined at:
		line 1090 in file "menu.c"
 Parameters:    Size  Location     Type
		None
 Auto vars:     Size  Location     Type
		None
 Return value:  Size  Location     Type
                  1    wreg      void 
 Registers used:
		wreg, fsr0l, fsr0h, fsr1l, fsr1h, fsr2l, fsr2h, status,2, status,0, btemp, btemp+1, btemp+2, btemp+3, btemp+4, btemp+5, btemp+6, btemp+7, btemp+9, btemp+10, btemp+11, tblptrl, tblptrh, tblptru, prodl, prodh, cstack
 Tracked objects:
		On entry : 
		On exit  : 
		Unchanged: 
 Data sizes:     COMRAM   BANK0   BANK1   BANK2   BANK3   BANK4   BANK5   BANK6   BANK7   BANK8   BANK9  BANK10  BANK11  BANK12
      Params:         0       0       0       0       0       0       0       0       0       0       0       0       0       0
      Locals:         0       0       0       0       0       0       0       0       0       0       0       0       0       0
      Temps:          0       0       0       0       0       0       0       0       0       0       0       0       0       0
      Totals:         0       0       0       0       0       0       0       0       0       0       0       0       0       0
Total ram usage:        0 bytes
 Hardware stack levels used:    1
 Hardware stack levels required when called:   16
 This function calls:
		_Busy_eep
		_Lcd_Print_String
		_Write_b_eep
		___lbmod
		___wmul
		_clear_row1
		_clear_row2
		_eepromExit
		_exitLoad
		_loadFromEEPROM
		_un_block_code
 This function is called by:
		_Function_G
 This function uses a non-reentrant model


 *************** function _loadFromEEPROM *****************
 Defined at:
		line 54 in file "eeprom.c"
 Parameters:    Size  Location     Type
  slotNumber      1    wreg     unsigned char 
 Auto vars:     Size  Location     Type
  slotNumber      1   77[BANK1 ] unsigned char 
  byte_count      2   78[BANK1 ] unsigned int 
  to_load        75    0[BANK1 ] unsigned char [75]
  baseAddress     2   75[BANK1 ] unsigned int 
 Return value:  Size  Location     Type
                  1    wreg      void 
 Registers used:
		wreg, fsr2l, fsr2h, status,2, status,0, prodl, prodh, cstack
 Tracked objects:
		On entry : 
		On exit  : 
		Unchanged: 
 Data sizes:     COMRAM   BANK0   BANK1   BANK2   BANK3   BANK4   BANK5   BANK6   BANK7   BANK8   BANK9  BANK10  BANK11  BANK12
      Params:         0       0       0       0       0       0       0       0       0       0       0       0       0       0
      Locals:         0       0      80       0       0       0       0       0       0       0       0       0       0       0
      Temps:          0       0       0       0       0       0       0       0       0       0       0       0       0       0
      Totals:         0       0      80       0       0       0       0       0       0       0       0       0       0       0
Total ram usage:       80 bytes
 Hardware stack levels used:    1
 Hardware stack levels required when called:    7
 This function calls:
		_Read_b_eep
		_calculate_pulse_length
 This function is called by:
		_Function_G_2
		_selectSlotOnBoot
 This function uses a non-reentrant model


 *************** function _calculate_pulse_length *****************
 Defined at:
		line 150 in file "arpeggio.c"
 Parameters:    Size  Location     Type
		None
 Auto vars:     Size  Location     Type
  s_tick          4  100[BANK0 ] void 
 Return value:  Size  Location     Type
                  2   98[BANK0 ] unsigned short 
 Registers used:
		wreg, status,2, status,0, prodl, prodh, cstack
 Tracked objects:
		On entry : 
		On exit  : 
		Unchanged: 
 Data sizes:     COMRAM   BANK0   BANK1   BANK2   BANK3   BANK4   BANK5   BANK6   BANK7   BANK8   BANK9  BANK10  BANK11  BANK12
      Params:         0       2       0       0       0       0       0       0       0       0       0       0       0       0
      Locals:         0       8       0       0       0       0       0       0       0       0       0       0       0       0
      Temps:          0       0       0       0       0       0       0       0       0       0       0       0       0       0
      Totals:         0      10       0       0       0       0       0       0       0       0       0       0       0       0
Total ram usage:       10 bytes
 Hardware stack levels used:    1
 Hardware stack levels required when called:    6
 This function calls:
		___fladd
		___fldiv
		___flmul
		___flneg
		___fltol
		___xxtofl
 This function is called by:
		_Function_H_2
		_loadFromEEPROM
		_main
 This function uses a non-reentrant model


 *************** function _exitLoad *****************
 Defined at:
		line 285 in file "menu.c"
 Parameters:    Size  Location     Type
		None
 Auto vars:     Size  Location     Type
		None
 Return value:  Size  Location     Type
                  1    wreg      void 
 Registers used:
		wreg, fsr0l, fsr0h, status,2, status,0, tblptrl, tblptrh, tblptru, cstack
 Tracked objects:
		On entry : 
		On exit  : 
		Unchanged: 
 Data sizes:     COMRAM   BANK0   BANK1   BANK2   BANK3   BANK4   BANK5   BANK6   BANK7   BANK8   BANK9  BANK10  BANK11  BANK12
      Params:         0       0       0       0       0       0       0       0       0       0       0       0       0       0
      Locals:         0       0       0       0       0       0       0       0       0       0       0       0       0       0
      Temps:          0       2       0       0       0       0       0       0       0       0       0       0       0       0
      Totals:         0       2       0       0       0       0       0       0       0       0       0       0       0       0
Total ram usage:        2 bytes
 Hardware stack levels used:    1
 Hardware stack levels required when called:    9
 This function calls:
		_Lcd_Print_String
		_clear_row1
 This function is called by:
		_Function_G_2
 This function uses a non-reentrant model


 *************** function _Function_G_1 *****************
 Defined at:
		line 1057 in file "menu.c"
 Parameters:    Size  Location     Type
		None
 Auto vars:     Size  Location     Type
		None
 Return value:  Size  Location     Type
                  1    wreg      void 
 Registers used:
		wreg, fsr0l, fsr0h, fsr1l, fsr1h, fsr2l, fsr2h, status,2, status,0, btemp, btemp+1, btemp+2, btemp+3, btemp+4, btemp+5, btemp+6, btemp+7, btemp+9, btemp+10, btemp+11, tblptrl, tblptrh, tblptru, prodl, prodh, cstack
 Tracked objects:
		On entry : 
		On exit  : 
		Unchanged: 
 Data sizes:     COMRAM   BANK0   BANK1   BANK2   BANK3   BANK4   BANK5   BANK6   BANK7   BANK8   BANK9  BANK10  BANK11  BANK12
      Params:         0       0       0       0       0       0       0       0       0       0       0       0       0       0
      Locals:         0       0       0       0       0       0       0       0       0       0       0       0       0       0
      Temps:          0       0       0       0       0       0       0       0       0       0       0       0       0       0
      Totals:         0       0       0       0       0       0       0       0       0       0       0       0       0       0
Total ram usage:        0 bytes
 Hardware stack levels used:    1
 Hardware stack levels required when called:   16
 This function calls:
		_Busy_eep
		_Lcd_Print_String
		_Write_b_eep
		___lbmod
		___wmul
		_clear_row1
		_clear_row2
		_eepromExit
		_exitSave
		_saveToEEPROM
		_un_block_code
 This function is called by:
		_Function_G
 This function uses a non-reentrant model


 *************** function _exitSave *****************
 Defined at:
		line 265 in file "menu.c"
 Parameters:    Size  Location     Type
		None
 Auto vars:     Size  Location     Type
		None
 Return value:  Size  Location     Type
                  1    wreg      void 
 Registers used:
		wreg, fsr0l, fsr0h, status,2, status,0, tblptrl, tblptrh, tblptru, cstack
 Tracked objects:
		On entry : 
		On exit  : 
		Unchanged: 
 Data sizes:     COMRAM   BANK0   BANK1   BANK2   BANK3   BANK4   BANK5   BANK6   BANK7   BANK8   BANK9  BANK10  BANK11  BANK12
      Params:         0       0       0       0       0       0       0       0       0       0       0       0       0       0
      Locals:         0       0       0       0       0       0       0       0       0       0       0       0       0       0
      Temps:          0       2       0       0       0       0       0       0       0       0       0       0       0       0
      Totals:         0       2       0       0       0       0       0       0       0       0       0       0       0       0
Total ram usage:        2 bytes
 Hardware stack levels used:    1
 Hardware stack levels required when called:    9
 This function calls:
		_Lcd_Print_String
		_clear_row1
 This function is called by:
		_Function_G_1
 This function uses a non-reentrant model


 *************** function _eepromExit *****************
 Defined at:
		line 305 in file "menu.c"
 Parameters:    Size  Location     Type
		None
 Auto vars:     Size  Location     Type
		None
 Return value:  Size  Location     Type
                  1    wreg      void 
 Registers used:
		wreg, fsr0l, fsr0h, status,2, status,0, tblptrl, tblptrh, tblptru, cstack
 Tracked objects:
		On entry : 
		On exit  : 
		Unchanged: 
 Data sizes:     COMRAM   BANK0   BANK1   BANK2   BANK3   BANK4   BANK5   BANK6   BANK7   BANK8   BANK9  BANK10  BANK11  BANK12
      Params:         0       0       0       0       0       0       0       0       0       0       0       0       0       0
      Locals:         0       0       0       0       0       0       0       0       0       0       0       0       0       0
      Temps:          0       2       0       0       0       0       0       0       0       0       0       0       0       0
      Totals:         0       2       0       0       0       0       0       0       0       0       0       0       0       0
Total ram usage:        2 bytes
 Hardware stack levels used:    1
 Hardware stack levels required when called:    9
 This function calls:
		_Lcd_Print_String
		_clear_row1
 This function is called by:
		_Function_G_1
		_Function_G_2
		_Function_G
 This function uses a non-reentrant model


 *************** function _Function_F *****************
 Defined at:
		line 1026 in file "menu.c"
 Parameters:    Size  Location     Type
		None
 Auto vars:     Size  Location     Type
		None
 Return value:  Size  Location     Type
                  1    wreg      void 
 Registers used:
		wreg, fsr0l, fsr0h, fsr1l, fsr1h, fsr2l, fsr2h, status,2, status,0, btemp, btemp+1, btemp+2, btemp+3, btemp+4, btemp+5, btemp+6, btemp+7, btemp+9, btemp+10, btemp+11, tblptrl, tblptrh, tblptru, prodl, prodh, cstack
 Tracked objects:
		On entry : 
		On exit  : 
		Unchanged: 
 Data sizes:     COMRAM   BANK0   BANK1   BANK2   BANK3   BANK4   BANK5   BANK6   BANK7   BANK8   BANK9  BANK10  BANK11  BANK12
      Params:         0       0       0       0       0       0       0       0       0       0       0       0       0       0
      Locals:         0       0       0       0       0       0       0       0       0       0       0       0       0       0
      Temps:          0       0       0       0       0       0       0       0       0       0       0       0       0       0
      Totals:         0       0       0       0       0       0       0       0       0       0       0       0       0       0
Total ram usage:        0 bytes
 Hardware stack levels used:    1
 Hardware stack levels required when called:   16
 This function calls:
		_Lcd_Print_String
		_Lcd_Set_Cursor
		_clear_row2
		_int2string
		_programChange
		_un_block_code
 This function is called by:
		_menu_lcd
 This function uses a non-reentrant model


 *************** function _programChange *****************
 Defined at:
		line 225 in file "midi.c"
 Parameters:    Size  Location     Type
  channel         1    wreg     unsigned char 
  data1           1    0[BANK0 ] unsigned char 
  data2           1    1[BANK0 ] unsigned char 
 Auto vars:     Size  Location     Type
  channel         1    2[BANK0 ] unsigned char 
 Return value:  Size  Location     Type
                  1    wreg      void 
 Registers used:
		wreg, fsr1l, fsr1h, fsr2l, fsr2h, status,2, status,0, btemp, btemp+1, btemp+2, btemp+9, btemp+10, btemp+11, prodl, prodh, cstack
 Tracked objects:
		On entry : 
		On exit  : 
		Unchanged: 
 Data sizes:     COMRAM   BANK0   BANK1   BANK2   BANK3   BANK4   BANK5   BANK6   BANK7   BANK8   BANK9  BANK10  BANK11  BANK12
      Params:         0       2       0       0       0       0       0       0       0       0       0       0       0       0
      Locals:         0       1       0       0       0       0       0       0       0       0       0       0       0       0
      Temps:          0       0       0       0       0       0       0       0       0       0       0       0       0       0
      Totals:         0       3       0       0       0       0       0       0       0       0       0       0       0       0
Total ram usage:        3 bytes
 Hardware stack levels used:    1
 Hardware stack levels required when called:    8
 This function calls:
		___lbmod
		_key_press_release_note_off
		_sendOut
		_sendUSB
 This function is called by:
		_Function_F
 This function uses a non-reentrant model


 *************** function _Function_E *****************
 Defined at:
		line 1003 in file "menu.c"
 Parameters:    Size  Location     Type
		None
 Auto vars:     Size  Location     Type
		None
 Return value:  Size  Location     Type
                  1    wreg      void 
 Registers used:
		wreg, fsr0l, fsr0h, fsr1l, fsr1h, fsr2l, fsr2h, status,2, status,0, btemp, btemp+1, btemp+2, btemp+3, btemp+4, btemp+5, btemp+6, btemp+7, btemp+9, btemp+10, btemp+11, tblptrl, tblptrh, tblptru, prodl, prodh, cstack
 Tracked objects:
		On entry : 
		On exit  : 
		Unchanged: 
 Data sizes:     COMRAM   BANK0   BANK1   BANK2   BANK3   BANK4   BANK5   BANK6   BANK7   BANK8   BANK9  BANK10  BANK11  BANK12
      Params:         0       0       0       0       0       0       0       0       0       0       0       0       0       0
      Locals:         0       0       0       0       0       0       0       0       0       0       0       0       0       0
      Temps:          0       0       0       0       0       0       0       0       0       0       0       0       0       0
      Totals:         0       0       0       0       0       0       0       0       0       0       0       0       0       0
Total ram usage:        0 bytes
 Hardware stack levels used:    1
 Hardware stack levels required when called:   17
 This function calls:
		_Function_E_1
		_Function_E_2
		_Lcd_Print_String
		___lbmod
		___wmul
		_clear_row2
		_un_block_code
 This function is called by:
		_menu_lcd
 This function uses a non-reentrant model


 *************** function _Function_E_2 *****************
 Defined at:
		line 980 in file "menu.c"
 Parameters:    Size  Location     Type
		None
 Auto vars:     Size  Location     Type
		None
 Return value:  Size  Location     Type
                  1    wreg      void 
 Registers used:
		wreg, fsr0l, fsr0h, fsr1l, fsr1h, fsr2l, fsr2h, status,2, status,0, btemp, btemp+1, btemp+2, btemp+3, btemp+4, btemp+5, btemp+6, btemp+7, btemp+9, btemp+10, btemp+11, tblptrl, tblptrh, tblptru, prodl, prodh, cstack
 Tracked objects:
		On entry : 
		On exit  : 
		Unchanged: 
 Data sizes:     COMRAM   BANK0   BANK1   BANK2   BANK3   BANK4   BANK5   BANK6   BANK7   BANK8   BANK9  BANK10  BANK11  BANK12
      Params:         0       0       0       0       0       0       0       0       0       0       0       0       0       0
      Locals:         0       0       0       0       0       0       0       0       0       0       0       0       0       0
      Temps:          0       0       0       0       0       0       0       0       0       0       0       0       0       0
      Totals:         0       0       0       0       0       0       0       0       0       0       0       0       0       0
Total ram usage:        0 bytes
 Hardware stack levels used:    1
 Hardware stack levels required when called:   16
 This function calls:
		_Lcd_Print_String
		_Lcd_Set_Cursor
		_int2string
		_un_block_code
 This function is called by:
		_Function_E
 This function uses a non-reentrant model


 *************** function _Function_E_1 *****************
 Defined at:
		line 955 in file "menu.c"
 Parameters:    Size  Location     Type
		None
 Auto vars:     Size  Location     Type
		None
 Return value:  Size  Location     Type
                  1    wreg      void 
 Registers used:
		wreg, fsr0l, fsr0h, fsr1l, fsr1h, fsr2l, fsr2h, status,2, status,0, btemp, btemp+1, btemp+2, btemp+3, btemp+4, btemp+5, btemp+6, btemp+7, btemp+9, btemp+10, btemp+11, tblptrl, tblptrh, tblptru, prodl, prodh, cstack
 Tracked objects:
		On entry : 
		On exit  : 
		Unchanged: 
 Data sizes:     COMRAM   BANK0   BANK1   BANK2   BANK3   BANK4   BANK5   BANK6   BANK7   BANK8   BANK9  BANK10  BANK11  BANK12
      Params:         0       0       0       0       0       0       0       0       0       0       0       0       0       0
      Locals:         0       0       0       0       0       0       0       0       0       0       0       0       0       0
      Temps:          0       0       0       0       0       0       0       0       0       0       0       0       0       0
      Totals:         0       0       0       0       0       0       0       0       0       0       0       0       0       0
Total ram usage:        0 bytes
 Hardware stack levels used:    1
 Hardware stack levels required when called:   16
 This function calls:
		_Lcd_Print_String
		_Lcd_Set_Cursor
		_int2string
		_un_block_code
 This function is called by:
		_Function_E
 This function uses a non-reentrant model


 *************** function _Function_D *****************
 Defined at:
		line 928 in file "menu.c"
 Parameters:    Size  Location     Type
		None
 Auto vars:     Size  Location     Type
		None
 Return value:  Size  Location     Type
                  1    wreg      void 
 Registers used:
		wreg, fsr0l, fsr0h, fsr1l, fsr1h, fsr2l, fsr2h, status,2, status,0, btemp, btemp+1, btemp+2, btemp+3, btemp+4, btemp+5, btemp+6, btemp+7, btemp+9, btemp+10, btemp+11, tblptrl, tblptrh, tblptru, prodl, prodh, cstack
 Tracked objects:
		On entry : 
		On exit  : 
		Unchanged: 
 Data sizes:     COMRAM   BANK0   BANK1   BANK2   BANK3   BANK4   BANK5   BANK6   BANK7   BANK8   BANK9  BANK10  BANK11  BANK12
      Params:         0       0       0       0       0       0       0       0       0       0       0       0       0       0
      Locals:         0       0       0       0       0       0       0       0       0       0       0       0       0       0
      Temps:          0       0       0       0       0       0       0       0       0       0       0       0       0       0
      Totals:         0       0       0       0       0       0       0       0       0       0       0       0       0       0
Total ram usage:        0 bytes
 Hardware stack levels used:    1
 Hardware stack levels required when called:   17
 This function calls:
		_Function_D_1
		_Function_D_2
		_Function_D_3
		_Function_D_4
		_Function_D_5
		_Lcd_Print_String
		___lbmod
		___wmul
		_clear_row2
		_un_block_code
 This function is called by:
		_menu_lcd
 This function uses a non-reentrant model


 *************** function _Function_D_5 *****************
 Defined at:
		line 898 in file "menu.c"
 Parameters:    Size  Location     Type
		None
 Auto vars:     Size  Location     Type
  array_index     1  103[BANK0 ] unsigned char 
 Return value:  Size  Location     Type
                  1    wreg      void 
 Registers used:
		wreg, fsr0l, fsr0h, fsr1l, fsr1h, fsr2l, fsr2h, status,2, status,0, btemp, btemp+1, btemp+2, btemp+3, btemp+4, btemp+5, btemp+6, btemp+7, btemp+9, btemp+10, btemp+11, tblptrl, tblptrh, tblptru, prodl, prodh, cstack
 Tracked objects:
		On entry : 
		On exit  : 
		Unchanged: 
 Data sizes:     COMRAM   BANK0   BANK1   BANK2   BANK3   BANK4   BANK5   BANK6   BANK7   BANK8   BANK9  BANK10  BANK11  BANK12
      Params:         0       0       0       0       0       0       0       0       0       0       0       0       0       0
      Locals:         0       1       0       0       0       0       0       0       0       0       0       0       0       0
      Temps:          0       0       0       0       0       0       0       0       0       0       0       0       0       0
      Totals:         0       1       0       0       0       0       0       0       0       0       0       0       0       0
Total ram usage:        1 bytes
 Hardware stack levels used:    1
 Hardware stack levels required when called:   16
 This function calls:
		_Lcd_Print_String
		___lbmod
		___wmul
		_clear_row1
		_clear_row2
		_setControllerNumbers
		_un_block_code
 This function is called by:
		_Function_D
 This function uses a non-reentrant model


 *************** function _Function_D_4 *****************
 Defined at:
		line 867 in file "menu.c"
 Parameters:    Size  Location     Type
		None
 Auto vars:     Size  Location     Type
  array_index     1  103[BANK0 ] unsigned char 
 Return value:  Size  Location     Type
                  1    wreg      void 
 Registers used:
		wreg, fsr0l, fsr0h, fsr1l, fsr1h, fsr2l, fsr2h, status,2, status,0, btemp, btemp+1, btemp+2, btemp+3, btemp+4, btemp+5, btemp+6, btemp+7, btemp+9, btemp+10, btemp+11, tblptrl, tblptrh, tblptru, prodl, prodh, cstack
 Tracked objects:
		On entry : 
		On exit  : 
		Unchanged: 
 Data sizes:     COMRAM   BANK0   BANK1   BANK2   BANK3   BANK4   BANK5   BANK6   BANK7   BANK8   BANK9  BANK10  BANK11  BANK12
      Params:         0       0       0       0       0       0       0       0       0       0       0       0       0       0
      Locals:         0       1       0       0       0       0       0       0       0       0       0       0       0       0
      Temps:          0       0       0       0       0       0       0       0       0       0       0       0       0       0
      Totals:         0       1       0       0       0       0       0       0       0       0       0       0       0       0
Total ram usage:        1 bytes
 Hardware stack levels used:    1
 Hardware stack levels required when called:   16
 This function calls:
		_Lcd_Print_String
		___lbmod
		___wmul
		_clear_row1
		_clear_row2
		_setControllerNumbers
		_un_block_code
 This function is called by:
		_Function_D
 This function uses a non-reentrant model


 *************** function _Function_D_3 *****************
 Defined at:
		line 839 in file "menu.c"
 Parameters:    Size  Location     Type
		None
 Auto vars:     Size  Location     Type
  array_index     1  103[BANK0 ] unsigned char 
 Return value:  Size  Location     Type
                  1    wreg      void 
 Registers used:
		wreg, fsr0l, fsr0h, fsr1l, fsr1h, fsr2l, fsr2h, status,2, status,0, btemp, btemp+1, btemp+2, btemp+3, btemp+4, btemp+5, btemp+6, btemp+7, btemp+9, btemp+10, btemp+11, tblptrl, tblptrh, tblptru, prodl, prodh, cstack
 Tracked objects:
		On entry : 
		On exit  : 
		Unchanged: 
 Data sizes:     COMRAM   BANK0   BANK1   BANK2   BANK3   BANK4   BANK5   BANK6   BANK7   BANK8   BANK9  BANK10  BANK11  BANK12
      Params:         0       0       0       0       0       0       0       0       0       0       0       0       0       0
      Locals:         0       1       0       0       0       0       0       0       0       0       0       0       0       0
      Temps:          0       0       0       0       0       0       0       0       0       0       0       0       0       0
      Totals:         0       1       0       0       0       0       0       0       0       0       0       0       0       0
Total ram usage:        1 bytes
 Hardware stack levels used:    1
 Hardware stack levels required when called:   16
 This function calls:
		_Lcd_Print_String
		___lbmod
		___wmul
		_clear_row1
		_clear_row2
		_setControllerNumbers
		_un_block_code
 This function is called by:
		_Function_D
 This function uses a non-reentrant model


 *************** function _setControllerNumbers *****************
 Defined at:
		line 125 in file "menu.c"
 Parameters:    Size  Location     Type
  array_index     1    wreg     unsigned char 
 Auto vars:     Size  Location     Type
  array_index     1   15[BANK0 ] unsigned char 
 Return value:  Size  Location     Type
                  1    wreg      void 
 Registers used:
		wreg, fsr0l, fsr0h, fsr1l, fsr1h, fsr2l, fsr2h, status,2, status,0, btemp, btemp+1, btemp+2, btemp+10, btemp+11, tblptrl, tblptrh, tblptru, prodl, prodh, cstack
 Tracked objects:
		On entry : 
		On exit  : 
		Unchanged: 
 Data sizes:     COMRAM   BANK0   BANK1   BANK2   BANK3   BANK4   BANK5   BANK6   BANK7   BANK8   BANK9  BANK10  BANK11  BANK12
      Params:         0       0       0       0       0       0       0       0       0       0       0       0       0       0
      Locals:         0       1       0       0       0       0       0       0       0       0       0       0       0       0
      Temps:          0       1       0       0       0       0       0       0       0       0       0       0       0       0
      Totals:         0       2       0       0       0       0       0       0       0       0       0       0       0       0
Total ram usage:        2 bytes
 Hardware stack levels used:    1
 Hardware stack levels required when called:    8
 This function calls:
		_Lcd_Print_String
		_Lcd_Set_Cursor
		_int2string
 This function is called by:
		_Function_D_3
		_Function_D_4
		_Function_D_5
		_initializeControllerNumbers
 This function uses a non-reentrant model


 *************** function _Function_D_2 *****************
 Defined at:
		line 811 in file "menu.c"
 Parameters:    Size  Location     Type
		None
 Auto vars:     Size  Location     Type
		None
 Return value:  Size  Location     Type
                  1    wreg      void 
 Registers used:
		wreg, fsr0l, fsr0h, fsr1l, fsr1h, fsr2l, fsr2h, status,2, status,0, btemp, btemp+1, btemp+2, btemp+3, btemp+4, btemp+5, btemp+6, btemp+7, btemp+9, btemp+10, btemp+11, tblptrl, tblptrh, tblptru, prodl, prodh, cstack
 Tracked objects:
		On entry : 
		On exit  : 
		Unchanged: 
 Data sizes:     COMRAM   BANK0   BANK1   BANK2   BANK3   BANK4   BANK5   BANK6   BANK7   BANK8   BANK9  BANK10  BANK11  BANK12
      Params:         0       0       0       0       0       0       0       0       0       0       0       0       0       0
      Locals:         0       0       0       0       0       0       0       0       0       0       0       0       0       0
      Temps:          0       0       0       0       0       0       0       0       0       0       0       0       0       0
      Totals:         0       0       0       0       0       0       0       0       0       0       0       0       0       0
Total ram usage:        0 bytes
 Hardware stack levels used:    1
 Hardware stack levels required when called:   16
 This function calls:
		_Busy_eep
		_Lcd_Print_String
		_Lcd_Set_Cursor
		_Write_b_eep
		_calculate_alpha
		_int2string
		_un_block_code
 This function is called by:
		_Function_D
 This function uses a non-reentrant model


 *************** function _calculate_alpha *****************
 Defined at:
		line 24 in file "potentiometers.c"
 Parameters:    Size  Location     Type
		None
 Auto vars:     Size  Location     Type
		None
 Return value:  Size  Location     Type
                  1    wreg      void 
 Registers used:
		wreg, status,2, status,0, cstack
 Tracked objects:
		On entry : 
		On exit  : 
		Unchanged: 
 Data sizes:     COMRAM   BANK0   BANK1   BANK2   BANK3   BANK4   BANK5   BANK6   BANK7   BANK8   BANK9  BANK10  BANK11  BANK12
      Params:         0       0       0       0       0       0       0       0       0       0       0       0       0       0
      Locals:         0       0       0       0       0       0       0       0       0       0       0       0       0       0
      Temps:          0       0       0       0       0       0       0       0       0       0       0       0       0       0
      Totals:         0       0       0       0       0       0       0       0       0       0       0       0       0       0
Total ram usage:        0 bytes
 Hardware stack levels used:    1
 Hardware stack levels required when called:    6
 This function calls:
		___fldiv
		___xxtofl
 This function is called by:
		_Function_D_2
		_main
 This function uses a non-reentrant model


 *************** function ___fldiv *****************
 Defined at:
		line 11 in file "C:\Program Files (x86)\Microchip\xc8\v1.45\sources\common\sprcdiv.c"
 Parameters:    Size  Location     Type
  b               4   39[BANK0 ] void 
  a               4   43[BANK0 ] void 
 Auto vars:     Size  Location     Type
  grs             4   58[BANK0 ] unsigned long 
  rem             4   52[BANK0 ] unsigned long 
  new_exp         2   56[BANK0 ] int 
  aexp            1   63[BANK0 ] unsigned char 
  bexp            1   62[BANK0 ] unsigned char 
  sign            1   51[BANK0 ] unsigned char 
 Return value:  Size  Location     Type
                  4   39[BANK0 ] unsigned char 
 Registers used:
		wreg, status,2, status,0
 Tracked objects:
		On entry : 
		On exit  : 
		Unchanged: 
 Data sizes:     COMRAM   BANK0   BANK1   BANK2   BANK3   BANK4   BANK5   BANK6   BANK7   BANK8   BANK9  BANK10  BANK11  BANK12
      Params:         0       8       0       0       0       0       0       0       0       0       0       0       0       0
      Locals:         0      13       0       0       0       0       0       0       0       0       0       0       0       0
      Temps:          0       4       0       0       0       0       0       0       0       0       0       0       0       0
      Totals:         0      25       0       0       0       0       0       0       0       0       0       0       0       0
Total ram usage:       25 bytes
 Hardware stack levels used:    1
 Hardware stack levels required when called:    5
 This function calls:
		Nothing
 This function is called by:
		_calculate_alpha
		_calculate_pulse_length
 This function uses a non-reentrant model


 *************** function _Function_D_1 *****************
 Defined at:
		line 778 in file "menu.c"
 Parameters:    Size  Location     Type
		None
 Auto vars:     Size  Location     Type
		None
 Return value:  Size  Location     Type
                  1    wreg      void 
 Registers used:
		wreg, fsr0l, fsr0h, fsr1l, fsr1h, fsr2l, fsr2h, status,2, status,0, btemp, btemp+1, btemp+2, btemp+3, btemp+4, btemp+5, btemp+6, btemp+7, btemp+9, btemp+10, btemp+11, tblptrl, tblptrh, tblptru, prodl, prodh, cstack
 Tracked objects:
		On entry : 
		On exit  : 
		Unchanged: 
 Data sizes:     COMRAM   BANK0   BANK1   BANK2   BANK3   BANK4   BANK5   BANK6   BANK7   BANK8   BANK9  BANK10  BANK11  BANK12
      Params:         0       0       0       0       0       0       0       0       0       0       0       0       0       0
      Locals:         0       0       0       0       0       0       0       0       0       0       0       0       0       0
      Temps:          0       0       0       0       0       0       0       0       0       0       0       0       0       0
      Totals:         0       0       0       0       0       0       0       0       0       0       0       0       0       0
Total ram usage:        0 bytes
 Hardware stack levels used:    1
 Hardware stack levels required when called:   16
 This function calls:
		_Lcd_Print_String
		___lbmod
		___wmul
		_clear_row1
		_clear_row2
		_setControllerResolution
		_un_block_code
 This function is called by:
		_Function_D
 This function uses a non-reentrant model


 *************** function _setControllerResolution *****************
 Defined at:
		line 115 in file "menu.c"
 Parameters:    Size  Location     Type
		None
 Auto vars:     Size  Location     Type
  i               1    0[BANK0 ] unsigned char 
 Return value:  Size  Location     Type
                  1    wreg      void 
 Registers used:
		wreg, fsr2l, fsr2h, status,2, status,0, prodl, prodh
 Tracked objects:
		On entry : 
		On exit  : 
		Unchanged: 
 Data sizes:     COMRAM   BANK0   BANK1   BANK2   BANK3   BANK4   BANK5   BANK6   BANK7   BANK8   BANK9  BANK10  BANK11  BANK12
      Params:         0       0       0       0       0       0       0       0       0       0       0       0       0       0
      Locals:         0       1       0       0       0       0       0       0       0       0       0       0       0       0
      Temps:          0       0       0       0       0       0       0       0       0       0       0       0       0       0
      Totals:         0       1       0       0       0       0       0       0       0       0       0       0       0       0
Total ram usage:        1 bytes
 Hardware stack levels used:    1
 Hardware stack levels required when called:    5
 This function calls:
		Nothing
 This function is called by:
		_Function_D_1
 This function uses a non-reentrant model


 *************** function _Function_C *****************
 Defined at:
		line 749 in file "menu.c"
 Parameters:    Size  Location     Type
		None
 Auto vars:     Size  Location     Type
		None
 Return value:  Size  Location     Type
                  1    wreg      void 
 Registers used:
		wreg, fsr0l, fsr0h, fsr1l, fsr1h, fsr2l, fsr2h, status,2, status,0, btemp, btemp+1, btemp+2, btemp+3, btemp+4, btemp+5, btemp+6, btemp+7, btemp+9, btemp+10, btemp+11, tblptrl, tblptrh, tblptru, prodl, prodh, cstack
 Tracked objects:
		On entry : 
		On exit  : 
		Unchanged: 
 Data sizes:     COMRAM   BANK0   BANK1   BANK2   BANK3   BANK4   BANK5   BANK6   BANK7   BANK8   BANK9  BANK10  BANK11  BANK12
      Params:         0       0       0       0       0       0       0       0       0       0       0       0       0       0
      Locals:         0       0       0       0       0       0       0       0       0       0       0       0       0       0
      Temps:          0       0       0       0       0       0       0       0       0       0       0       0       0       0
      Totals:         0       0       0       0       0       0       0       0       0       0       0       0       0       0
Total ram usage:        0 bytes
 Hardware stack levels used:    1
 Hardware stack levels required when called:   17
 This function calls:
		_Function_C_1
		_Function_C_2
		_Function_C_3
		_Lcd_Print_String
		___lbmod
		___wmul
		_clear_row2
		_un_block_code
 This function is called by:
		_menu_lcd
 This function uses a non-reentrant model


 *************** function _Function_C_3 *****************
 Defined at:
		line 698 in file "menu.c"
 Parameters:    Size  Location     Type
		None
 Auto vars:     Size  Location     Type
  array_index     1  104[BANK0 ] unsigned char 
 Return value:  Size  Location     Type
                  1    wreg      void 
 Registers used:
		wreg, fsr0l, fsr0h, fsr1l, fsr1h, fsr2l, fsr2h, status,2, status,0, btemp, btemp+1, btemp+2, btemp+3, btemp+4, btemp+5, btemp+6, btemp+7, btemp+9, btemp+10, btemp+11, tblptrl, tblptrh, tblptru, prodl, prodh, cstack
 Tracked objects:
		On entry : 
		On exit  : 
		Unchanged: 
 Data sizes:     COMRAM   BANK0   BANK1   BANK2   BANK3   BANK4   BANK5   BANK6   BANK7   BANK8   BANK9  BANK10  BANK11  BANK12
      Params:         0       0       0       0       0       0       0       0       0       0       0       0       0       0
      Locals:         0       1       0       0       0       0       0       0       0       0       0       0       0       0
      Temps:          0       1       0       0       0       0       0       0       0       0       0       0       0       0
      Totals:         0       2       0       0       0       0       0       0       0       0       0       0       0       0
Total ram usage:        2 bytes
 Hardware stack levels used:    1
 Hardware stack levels required when called:   16
 This function calls:
		_Lcd_Print_String
		_Lcd_Set_Cursor
		___lbmod
		___wmul
		_clear_row1
		_clear_row2
		_int2string
		_un_block_code
 This function is called by:
		_Function_C
 This function uses a non-reentrant model


 *************** function _Function_C_2 *****************
 Defined at:
		line 646 in file "menu.c"
 Parameters:    Size  Location     Type
		None
 Auto vars:     Size  Location     Type
  array_index     1  104[BANK0 ] unsigned char 
 Return value:  Size  Location     Type
                  1    wreg      void 
 Registers used:
		wreg, fsr0l, fsr0h, fsr1l, fsr1h, fsr2l, fsr2h, status,2, status,0, btemp, btemp+1, btemp+2, btemp+3, btemp+4, btemp+5, btemp+6, btemp+7, btemp+9, btemp+10, btemp+11, tblptrl, tblptrh, tblptru, prodl, prodh, cstack
 Tracked objects:
		On entry : 
		On exit  : 
		Unchanged: 
 Data sizes:     COMRAM   BANK0   BANK1   BANK2   BANK3   BANK4   BANK5   BANK6   BANK7   BANK8   BANK9  BANK10  BANK11  BANK12
      Params:         0       0       0       0       0       0       0       0       0       0       0       0       0       0
      Locals:         0       1       0       0       0       0       0       0       0       0       0       0       0       0
      Temps:          0       1       0       0       0       0       0       0       0       0       0       0       0       0
      Totals:         0       2       0       0       0       0       0       0       0       0       0       0       0       0
Total ram usage:        2 bytes
 Hardware stack levels used:    1
 Hardware stack levels required when called:   16
 This function calls:
		_Lcd_Print_String
		_Lcd_Set_Cursor
		___lbmod
		___wmul
		_clear_row1
		_clear_row2
		_int2string
		_un_block_code
 This function is called by:
		_Function_C
 This function uses a non-reentrant model


 *************** function _int2string *****************
 Defined at:
		line 86 in file "menu.c"
 Parameters:    Size  Location     Type
  number          2    0[BANK0 ] int 
 Auto vars:     Size  Location     Type
  number_to_di    2    4[BANK0 ] int 
 Return value:  Size  Location     Type
                  1    wreg      void 
 Registers used:
		wreg, fsr1l, fsr1h, status,2, status,0, btemp, btemp+1, btemp+2, btemp+10, btemp+11, prodl
 Tracked objects:
		On entry : 
		On exit  : 
		Unchanged: 
 Data sizes:     COMRAM   BANK0   BANK1   BANK2   BANK3   BANK4   BANK5   BANK6   BANK7   BANK8   BANK9  BANK10  BANK11  BANK12
      Params:         0       2       0       0       0       0       0       0       0       0       0       0       0       0
      Locals:         0       2       0       0       0       0       0       0       0       0       0       0       0       0
      Temps:          0       2       0       0       0       0       0       0       0       0       0       0       0       0
      Totals:         0       6       0       0       0       0       0       0       0       0       0       0       0       0
Total ram usage:        6 bytes
 Hardware stack levels used:    1
 Hardware stack levels required when called:    6
 This function calls:
		___awdiv
		___awmod
 This function is called by:
		_setControllerNumbers
		_Function_C_2
		_Function_C_3
		_Function_D_2
		_Function_E_1
		_Function_E_2
		_Function_F
		_Function_H_2
		_Function_H_3
 This function uses a non-reentrant model


 *************** function ___awdiv *****************
 Defined at:
		line 8 in file "C:\Program Files (x86)\Microchip\xc8\v1.45\sources\common\awdiv.c"
 Parameters:    Size  Location     Type
  dividend        2  [STACK] int 
  divisor         2  [STACK] int 
 Auto vars:     Size  Location     Type
  quotient        2  [STACK] int 
  sign            1  [STACK] unsigned char 
  counter         1  [STACK] unsigned char 
 Return value:  Size  Location     Type
                  2  [STACK] int 
 Registers used:
		wreg, fsr1l, fsr1h, status,2, status,0, btemp, btemp+1, btemp+2, btemp+10, btemp+11, prodl
 Tracked objects:
		On entry : 
		On exit  : 
		Unchanged: 
 Data sizes:     COMRAM   BANK0   BANK1   BANK2   BANK3   BANK4   BANK5   BANK6   BANK7   BANK8   BANK9  BANK10  BANK11  BANK12
      Params:         0       0       0       0       0       0       0       0       0       0       0       0       0       0
      Locals:         0       0       0       0       0       0       0       0       0       0       0       0       0       0
      Temps:          0       0       0       0       0       0       0       0       0       0       0       0       0       0
      Totals:         0       0       0       0       0       0       0       0       0       0       0       0       0       0
Total ram usage:        0 bytes
 Hardware stack levels used:    1
 Hardware stack levels required when called:    5
 This function calls:
		Nothing
 This function is called by:
		_displayDigits
		_int2string
 This function uses a reentrant model


 *************** function _Function_C_1 *****************
 Defined at:
		line 619 in file "menu.c"
 Parameters:    Size  Location     Type
		None
 Auto vars:     Size  Location     Type
		None
 Return value:  Size  Location     Type
                  1    wreg      void 
 Registers used:
		wreg, fsr0l, fsr0h, fsr1l, fsr1h, fsr2l, fsr2h, status,2, status,0, btemp, btemp+1, btemp+2, btemp+3, btemp+4, btemp+5, btemp+6, btemp+7, btemp+9, btemp+10, btemp+11, tblptrl, tblptrh, tblptru, prodl, prodh, cstack
 Tracked objects:
		On entry : 
		On exit  : 
		Unchanged: 
 Data sizes:     COMRAM   BANK0   BANK1   BANK2   BANK3   BANK4   BANK5   BANK6   BANK7   BANK8   BANK9  BANK10  BANK11  BANK12
      Params:         0       0       0       0       0       0       0       0       0       0       0       0       0       0
      Locals:         0       0       0       0       0       0       0       0       0       0       0       0       0       0
      Temps:          0       0       0       0       0       0       0       0       0       0       0       0       0       0
      Totals:         0       0       0       0       0       0       0       0       0       0       0       0       0       0
Total ram usage:        0 bytes
 Hardware stack levels used:    1
 Hardware stack levels required when called:   16
 This function calls:
		_Lcd_Print_String
		___lbmod
		___wmul
		_clear_row1
		_clear_row2
		_un_block_code
 This function is called by:
		_Function_C
 This function uses a non-reentrant model


 *************** function _Function_B *****************
 Defined at:
		line 596 in file "menu.c"
 Parameters:    Size  Location     Type
		None
 Auto vars:     Size  Location     Type
		None
 Return value:  Size  Location     Type
                  1    wreg      void 
 Registers used:
		wreg, fsr0l, fsr0h, fsr1l, fsr1h, fsr2l, fsr2h, status,2, status,0, btemp, btemp+1, btemp+2, btemp+3, btemp+4, btemp+5, btemp+6, btemp+7, btemp+9, btemp+10, btemp+11, tblptrl, tblptrh, tblptru, prodl, prodh, cstack
 Tracked objects:
		On entry : 
		On exit  : 
		Unchanged: 
 Data sizes:     COMRAM   BANK0   BANK1   BANK2   BANK3   BANK4   BANK5   BANK6   BANK7   BANK8   BANK9  BANK10  BANK11  BANK12
      Params:         0       0       0       0       0       0       0       0       0       0       0       0       0       0
      Locals:         0       0       0       0       0       0       0       0       0       0       0       0       0       0
      Temps:          0       0       0       0       0       0       0       0       0       0       0       0       0       0
      Totals:         0       0       0       0       0       0       0       0       0       0       0       0       0       0
Total ram usage:        0 bytes
 Hardware stack levels used:    1
 Hardware stack levels required when called:   16
 This function calls:
		_Lcd_Print_String
		___lbmod
		___wmul
		_clear_row2
		_un_block_code
 This function is called by:
		_menu_lcd
 This function uses a non-reentrant model


 *************** function _Function_A *****************
 Defined at:
		line 539 in file "menu.c"
 Parameters:    Size  Location     Type
		None
 Auto vars:     Size  Location     Type
		None
 Return value:  Size  Location     Type
                  1    wreg      void 
 Registers used:
		wreg, fsr0l, fsr0h, fsr1l, fsr1h, fsr2l, fsr2h, status,2, status,0, btemp, btemp+1, btemp+2, btemp+3, btemp+4, btemp+5, btemp+6, btemp+7, btemp+9, btemp+10, btemp+11, tblptrl, tblptrh, tblptru, prodl, prodh, cstack
 Tracked objects:
		On entry : 
		On exit  : 
		Unchanged: 
 Data sizes:     COMRAM   BANK0   BANK1   BANK2   BANK3   BANK4   BANK5   BANK6   BANK7   BANK8   BANK9  BANK10  BANK11  BANK12
      Params:         0       0       0       0       0       0       0       0       0       0       0       0       0       0
      Locals:         0       0       0       0       0       0       0       0       0       0       0       0       0       0
      Temps:          0       0       0       0       0       0       0       0       0       0       0       0       0       0
      Totals:         0       0       0       0       0       0       0       0       0       0       0       0       0       0
Total ram usage:        0 bytes
 Hardware stack levels used:    1
 Hardware stack levels required when called:   17
 This function calls:
		_Function_A_1
		_Function_A_2
		_Function_A_3
		_Lcd_Print_String
		___lbmod
		___wmul
		_clear_row2
		_un_block_code
 This function is called by:
		_menu_lcd
 This function uses a non-reentrant model


 *************** function _Function_A_3 *****************
 Defined at:
		line 501 in file "menu.c"
 Parameters:    Size  Location     Type
		None
 Auto vars:     Size  Location     Type
		None
 Return value:  Size  Location     Type
                  1    wreg      void 
 Registers used:
		wreg, fsr0l, fsr0h, fsr1l, fsr1h, fsr2l, fsr2h, status,2, status,0, btemp, btemp+1, btemp+2, btemp+3, btemp+4, btemp+5, btemp+6, btemp+7, btemp+9, btemp+10, btemp+11, tblptrl, tblptrh, tblptru, prodl, prodh, cstack
 Tracked objects:
		On entry : 
		On exit  : 
		Unchanged: 
 Data sizes:     COMRAM   BANK0   BANK1   BANK2   BANK3   BANK4   BANK5   BANK6   BANK7   BANK8   BANK9  BANK10  BANK11  BANK12
      Params:         0       0       0       0       0       0       0       0       0       0       0       0       0       0
      Locals:         0       0       0       0       0       0       0       0       0       0       0       0       0       0
      Temps:          0       0       0       0       0       0       0       0       0       0       0       0       0       0
      Totals:         0       0       0       0       0       0       0       0       0       0       0       0       0       0
Total ram usage:        0 bytes
 Hardware stack levels used:    1
 Hardware stack levels required when called:   16
 This function calls:
		_Lcd_Print_String
		___lbmod
		___wmul
		_clear_row1
		_clear_row2
		_un_block_code
 This function is called by:
		_Function_A
 This function uses a non-reentrant model


 *************** function _Function_A_2 *****************
 Defined at:
		line 462 in file "menu.c"
 Parameters:    Size  Location     Type
		None
 Auto vars:     Size  Location     Type
		None
 Return value:  Size  Location     Type
                  1    wreg      void 
 Registers used:
		wreg, fsr0l, fsr0h, fsr1l, fsr1h, fsr2l, fsr2h, status,2, status,0, btemp, btemp+1, btemp+2, btemp+3, btemp+4, btemp+5, btemp+6, btemp+7, btemp+9, btemp+10, btemp+11, tblptrl, tblptrh, tblptru, prodl, prodh, cstack
 Tracked objects:
		On entry : 
		On exit  : 
		Unchanged: 
 Data sizes:     COMRAM   BANK0   BANK1   BANK2   BANK3   BANK4   BANK5   BANK6   BANK7   BANK8   BANK9  BANK10  BANK11  BANK12
      Params:         0       0       0       0       0       0       0       0       0       0       0       0       0       0
      Locals:         0       0       0       0       0       0       0       0       0       0       0       0       0       0
      Temps:          0       0       0       0       0       0       0       0       0       0       0       0       0       0
      Totals:         0       0       0       0       0       0       0       0       0       0       0       0       0       0
Total ram usage:        0 bytes
 Hardware stack levels used:    1
 Hardware stack levels required when called:   16
 This function calls:
		_Lcd_Print_String
		___lbmod
		___wmul
		_clear_row1
		_clear_row2
		_un_block_code
 This function is called by:
		_Function_A
 This function uses a non-reentrant model


 *************** function _Function_A_1 *****************
 Defined at:
		line 422 in file "menu.c"
 Parameters:    Size  Location     Type
		None
 Auto vars:     Size  Location     Type
		None
 Return value:  Size  Location     Type
                  1    wreg      void 
 Registers used:
		wreg, fsr0l, fsr0h, fsr1l, fsr1h, fsr2l, fsr2h, status,2, status,0, btemp, btemp+1, btemp+2, btemp+3, btemp+4, btemp+5, btemp+6, btemp+7, btemp+9, btemp+10, btemp+11, tblptrl, tblptrh, tblptru, prodl, prodh, cstack
 Tracked objects:
		On entry : 
		On exit  : 
		Unchanged: 
 Data sizes:     COMRAM   BANK0   BANK1   BANK2   BANK3   BANK4   BANK5   BANK6   BANK7   BANK8   BANK9  BANK10  BANK11  BANK12
      Params:         0       0       0       0       0       0       0       0       0       0       0       0       0       0
      Locals:         0       0       0       0       0       0       0       0       0       0       0       0       0       0
      Temps:          0       0       0       0       0       0       0       0       0       0       0       0       0       0
      Totals:         0       0       0       0       0       0       0       0       0       0       0       0       0       0
Total ram usage:        0 bytes
 Hardware stack levels used:    1
 Hardware stack levels required when called:   16
 This function calls:
		_Lcd_Print_String
		___lbmod
		___wmul
		_clear_row1
		_clear_row2
		_un_block_code
 This function is called by:
		_Function_A
 This function uses a non-reentrant model


 *************** function _un_block_code *****************
 Defined at:
		line 389 in file "menu.c"
 Parameters:    Size  Location     Type
		None
 Auto vars:     Size  Location     Type
		None
 Return value:  Size  Location     Type
                  1    wreg      void 
 Registers used:
		wreg, fsr0l, fsr0h, fsr1l, fsr1h, fsr2l, fsr2h, status,2, status,0, btemp, btemp+1, btemp+2, btemp+3, btemp+4, btemp+5, btemp+6, btemp+7, btemp+9, btemp+10, btemp+11, tblptrl, tblptrh, tblptru, prodl, prodh, cstack
 Tracked objects:
		On entry : 
		On exit  : 
		Unchanged: 
 Data sizes:     COMRAM   BANK0   BANK1   BANK2   BANK3   BANK4   BANK5   BANK6   BANK7   BANK8   BANK9  BANK10  BANK11  BANK12
      Params:         0       0       0       0       0       0       0       0       0       0       0       0       0       0
      Locals:         0       0       0       0       0       0       0       0       0       0       0       0       0       0
      Temps:          0       0       0       0       0       0       0       0       0       0       0       0       0       0
      Totals:         0       0       0       0       0       0       0       0       0       0       0       0       0       0
Total ram usage:        0 bytes
 Hardware stack levels used:    1
 Hardware stack levels required when called:   15
 This function calls:
		_analogInputs
		_digitalInputs
		_processEncoderBuxton
 This function is called by:
		_Function_A_1
		_Function_A_2
		_Function_A_3
		_Function_A
		_Function_B
		_Function_C_1
		_Function_C_2
		_Function_C_3
		_Function_C
		_Function_D_1
		_Function_D_2
		_Function_D_3
		_Function_D_4
		_Function_D_5
		_Function_D
		_Function_E_1
		_Function_E_2
		_Function_E
		_Function_F
		_Function_G_1
		_Function_G_2
		_Function_G_4
		_Function_G
		_Function_H
		_Function_H_1
		_Function_H_2
		_Function_H_3
		_Function_H_4
		_Function_H_5
		_Function_H_6_1
		_Function_H_6_2
		_Function_H_6
		_Function_H_7
		_Function_H_8_1
		_Function_H_8_2
		_Function_H_8
		_Function_H_9_1
		_Function_H_9_2
		_Function_H_9_3
		_Function_H_9_4
		_Function_H_9
 This function uses a non-reentrant model


 *************** function _processEncoderBuxton *****************
 Defined at:
		line 51 in file "encoder.c"
 Parameters:    Size  Location     Type
		None
 Auto vars:     Size  Location     Type
		None
 Return value:  Size  Location     Type
                  1    wreg      void 
 Registers used:
		wreg, status,2, status,0
 Tracked objects:
		On entry : 
		On exit  : 
		Unchanged: 
 Data sizes:     COMRAM   BANK0   BANK1   BANK2   BANK3   BANK4   BANK5   BANK6   BANK7   BANK8   BANK9  BANK10  BANK11  BANK12
      Params:         0       0       0       0       0       0       0       0       0       0       0       0       0       0
      Locals:         0       0       0       0       0       0       0       0       0       0       0       0       0       0
      Temps:          0       7       0       0       0       0       0       0       0       0       0       0       0       0
      Totals:         0       7       0       0       0       0       0       0       0       0       0       0       0       0
Total ram usage:        7 bytes
 Hardware stack levels used:    1
 Hardware stack levels required when called:    5
 This function calls:
		Nothing
 This function is called by:
		_un_block_code
		_main
 This function uses a non-reentrant model


 *************** function _digitalInputs *****************
 Defined at:
		line 359 in file "main.c"
 Parameters:    Size  Location     Type
		None
 Auto vars:     Size  Location     Type
		None
 Return value:  Size  Location     Type
                  1    wreg      void 
 Registers used:
		wreg, fsr0l, fsr0h, fsr1l, fsr1h, fsr2l, fsr2h, status,2, status,0, btemp, btemp+1, btemp+2, btemp+3, btemp+4, btemp+5, btemp+6, btemp+7, btemp+9, btemp+10, btemp+11, tblptrl, tblptrh, tblptru, prodl, prodh, cstack
 Tracked objects:
		On entry : 
		On exit  : 
		Unchanged: 
 Data sizes:     COMRAM   BANK0   BANK1   BANK2   BANK3   BANK4   BANK5   BANK6   BANK7   BANK8   BANK9  BANK10  BANK11  BANK12
      Params:         0       0       0       0       0       0       0       0       0       0       0       0       0       0
      Locals:         0       0       0       0       0       0       0       0       0       0       0       0       0       0
      Temps:          0       0       0       0       0       0       0       0       0       0       0       0       0       0
      Totals:         0       0       0       0       0       0       0       0       0       0       0       0       0       0
Total ram usage:        0 bytes
 Hardware stack levels used:    1
 Hardware stack levels required when called:   14
 This function calls:
		_buttonInputsSerial
		_keyboardTranspose
		_processDrumpad
		_processKeyboard
		_processOctave
 This function is called by:
		_un_block_code
		_main
 This function uses a non-reentrant model


 *************** function _processOctave *****************
 Defined at:
		line 275 in file "octave.c"
 Parameters:    Size  Location     Type
		None
 Auto vars:     Size  Location     Type
		None
 Return value:  Size  Location     Type
                  1    wreg      void 
 Registers used:
		wreg, fsr0l, fsr0h, fsr1l, fsr1h, fsr2l, fsr2h, status,2, status,0, btemp, btemp+1, btemp+2, btemp+3, btemp+4, btemp+5, btemp+6, btemp+7, btemp+9, btemp+10, btemp+11, tblptrl, tblptrh, tblptru, prodl, prodh, cstack
 Tracked objects:
		On entry : 
		On exit  : 
		Unchanged: 
 Data sizes:     COMRAM   BANK0   BANK1   BANK2   BANK3   BANK4   BANK5   BANK6   BANK7   BANK8   BANK9  BANK10  BANK11  BANK12
      Params:         0       0       0       0       0       0       0       0       0       0       0       0       0       0
      Locals:         0       0       0       0       0       0       0       0       0       0       0       0       0       0
      Temps:          0       2       0       0       0       0       0       0       0       0       0       0       0       0
      Totals:         0       2       0       0       0       0       0       0       0       0       0       0       0       0
Total ram usage:        2 bytes
 Hardware stack levels used:    1
 Hardware stack levels required when called:   13
 This function calls:
		___awmod
		___wmul
		_doTheLatch
		_doTheUnLatch
		_key_press_release_note_off
		_printThisNumber
		_random_pitches
		_random_pitches_non_repeating
		_resetArpeggio
		_strcpy
		_wait_one_pulse
 This function is called by:
		_digitalInputs
 This function uses a non-reentrant model


 *************** function _doTheUnLatch *****************
 Defined at:
		line 195 in file "octave.c"
 Parameters:    Size  Location     Type
		None
 Auto vars:     Size  Location     Type
		None
 Return value:  Size  Location     Type
                  1    wreg      void 
 Registers used:
		wreg, fsr0l, fsr0h, fsr1l, fsr1h, fsr2l, fsr2h, status,2, status,0, btemp, btemp+1, btemp+2, btemp+3, btemp+4, btemp+5, btemp+6, btemp+7, btemp+9, btemp+10, btemp+11, tblptrl, tblptrh, tblptru, prodl, prodh, cstack
 Tracked objects:
		On entry : 
		On exit  : 
		Unchanged: 
 Data sizes:     COMRAM   BANK0   BANK1   BANK2   BANK3   BANK4   BANK5   BANK6   BANK7   BANK8   BANK9  BANK10  BANK11  BANK12
      Params:         0       0       0       0       0       0       0       0       0       0       0       0       0       0
      Locals:         0       0       0       0       0       0       0       0       0       0       0       0       0       0
      Temps:          0       4       0       0       0       0       0       0       0       0       0       0       0       0
      Totals:         0       4       0       0       0       0       0       0       0       0       0       0       0       0
Total ram usage:        4 bytes
 Hardware stack levels used:    1
 Hardware stack levels required when called:   12
 This function calls:
		_playThisNote
		_playThisNote8
		_playThisNotePentatonic
		_strcpy
 This function is called by:
		_processOctave
		_Function_H_1
		_Function_H_6_1
 This function uses a non-reentrant model


 *************** function _doTheLatch *****************
 Defined at:
		line 188 in file "octave.c"
 Parameters:    Size  Location     Type
		None
 Auto vars:     Size  Location     Type
		None
 Return value:  Size  Location     Type
                  1    wreg      void 
 Registers used:
		wreg, fsr2l, fsr2h, status,2, status,0, tblptrl, tblptrh, tblptru, cstack
 Tracked objects:
		On entry : 
		On exit  : 
		Unchanged: 
 Data sizes:     COMRAM   BANK0   BANK1   BANK2   BANK3   BANK4   BANK5   BANK6   BANK7   BANK8   BANK9  BANK10  BANK11  BANK12
      Params:         0       0       0       0       0       0       0       0       0       0       0       0       0       0
      Locals:         0       0       0       0       0       0       0       0       0       0       0       0       0       0
      Temps:          0       0       0       0       0       0       0       0       0       0       0       0       0       0
      Totals:         0       0       0       0       0       0       0       0       0       0       0       0       0       0
Total ram usage:        0 bytes
 Hardware stack levels used:    1
 Hardware stack levels required when called:    6
 This function calls:
		_strcpy
 This function is called by:
		_processOctave
		_Function_H_6_1
 This function uses a non-reentrant model


 *************** function _processKeyboard *****************
 Defined at:
		line 23 in file "keyboard.c"
 Parameters:    Size  Location     Type
		None
 Auto vars:     Size  Location     Type
		None
 Return value:  Size  Location     Type
                  1    wreg      void 
 Registers used:
		wreg, fsr0l, fsr0h, fsr1l, fsr1h, fsr2l, fsr2h, status,2, status,0, btemp, btemp+1, btemp+2, btemp+3, btemp+4, btemp+5, btemp+6, btemp+7, btemp+9, btemp+10, btemp+11, tblptrl, tblptrh, tblptru, prodl, prodh, cstack
 Tracked objects:
		On entry : 
		On exit  : 
		Unchanged: 
 Data sizes:     COMRAM   BANK0   BANK1   BANK2   BANK3   BANK4   BANK5   BANK6   BANK7   BANK8   BANK9  BANK10  BANK11  BANK12
      Params:         0       0       0       0       0       0       0       0       0       0       0       0       0       0
      Locals:         0       0       0       0       0       0       0       0       0       0       0       0       0       0
      Temps:          0       0       0       0       0       0       0       0       0       0       0       0       0       0
      Totals:         0       0       0       0       0       0       0       0       0       0       0       0       0       0
Total ram usage:        0 bytes
 Hardware stack levels used:    1
 Hardware stack levels required when called:   13
 This function calls:
		_keyboard_all_note_efficient
		_keyboard_eight_note_efficient
		_keyboard_sharps_only_efficient
 This function is called by:
		_digitalInputs
 This function uses a non-reentrant model


 *************** function _keyboard_sharps_only_efficient *****************
 Defined at:
		line 140 in file "keyboard.c"
 Parameters:    Size  Location     Type
		None
 Auto vars:     Size  Location     Type
  index           1   24[BANK0 ] unsigned char 
  pitch           1   23[BANK0 ] unsigned char 
 Return value:  Size  Location     Type
                  1    wreg      void 
 Registers used:
		wreg, fsr0l, fsr0h, fsr1l, fsr1h, fsr2l, fsr2h, status,2, status,0, btemp, btemp+1, btemp+2, btemp+3, btemp+4, btemp+5, btemp+6, btemp+7, btemp+9, btemp+10, btemp+11, tblptrl, tblptrh, tblptru, prodl, prodh, cstack
 Tracked objects:
		On entry : 
		On exit  : 
		Unchanged: 
 Data sizes:     COMRAM   BANK0   BANK1   BANK2   BANK3   BANK4   BANK5   BANK6   BANK7   BANK8   BANK9  BANK10  BANK11  BANK12
      Params:         0       0       0       0       0       0       0       0       0       0       0       0       0       0
      Locals:         0       2       0       0       0       0       0       0       0       0       0       0       0       0
      Temps:          0       0       0       0       0       0       0       0       0       0       0       0       0       0
      Totals:         0       2       0       0       0       0       0       0       0       0       0       0       0       0
Total ram usage:        2 bytes
 Hardware stack levels used:    1
 Hardware stack levels required when called:   11
 This function calls:
		_playThisNotePentatonic
 This function is called by:
		_processKeyboard
 This function uses a non-reentrant model


 *************** function _playThisNotePentatonic *****************
 Defined at:
		line 33 in file "keyboard.c"
 Parameters:    Size  Location     Type
  pitch           1    wreg     unsigned char 
  index           1   17[BANK0 ] unsigned char 
 Auto vars:     Size  Location     Type
  pitch           1    0[COMRAM] unsigned char 
  temp_pitch      1   22[BANK0 ] unsigned char 
 Return value:  Size  Location     Type
                  1    wreg      void 
 Registers used:
		wreg, fsr0l, fsr0h, fsr1l, fsr1h, fsr2l, fsr2h, status,2, status,0, btemp, btemp+1, btemp+2, btemp+3, btemp+4, btemp+5, btemp+6, btemp+7, btemp+9, btemp+10, btemp+11, tblptrl, tblptrh, tblptru, prodl, prodh, cstack
 Tracked objects:
		On entry : 
		On exit  : 
		Unchanged: 
 Data sizes:     COMRAM   BANK0   BANK1   BANK2   BANK3   BANK4   BANK5   BANK6   BANK7   BANK8   BANK9  BANK10  BANK11  BANK12
      Params:         0       1       0       0       0       0       0       0       0       0       0       0       0       0
      Locals:         0       1       0       0       0       0       0       0       0       0       0       0       0       0
      Temps:          0       4       0       0       0       0       0       0       0       0       0       0       0       0
      Totals:         0       6       0       0       0       0       0       0       0       0       0       0       0       0
Total ram usage:        6 bytes
 Hardware stack levels used:    1
 Hardware stack levels required when called:   10
 This function calls:
		_add_notes_to_arpeggio
		_delete_notes_from_arpeggio
		_finish_arpeggio_setup
		_key_press_release_note_off
		_noteOff
		_noteOn
		_wait_one_pulse
 This function is called by:
		_keyboard_sharps_only_efficient
		_doTheUnLatch
 This function uses a non-reentrant model


 *************** function _keyboard_eight_note_efficient *****************
 Defined at:
		line 1363 in file "keyboard.c"
 Parameters:    Size  Location     Type
		None
 Auto vars:     Size  Location     Type
  index           1   27[BANK0 ] unsigned char 
  pitch           1   26[BANK0 ] unsigned char 
 Return value:  Size  Location     Type
                  1    wreg      void 
 Registers used:
		wreg, fsr0l, fsr0h, fsr1l, fsr1h, fsr2l, fsr2h, status,2, status,0, btemp, btemp+1, btemp+2, btemp+3, btemp+4, btemp+5, btemp+6, btemp+7, btemp+9, btemp+10, btemp+11, tblptrl, tblptrh, tblptru, prodl, prodh, cstack
 Tracked objects:
		On entry : 
		On exit  : 
		Unchanged: 
 Data sizes:     COMRAM   BANK0   BANK1   BANK2   BANK3   BANK4   BANK5   BANK6   BANK7   BANK8   BANK9  BANK10  BANK11  BANK12
      Params:         0       0       0       0       0       0       0       0       0       0       0       0       0       0
      Locals:         0       2       0       0       0       0       0       0       0       0       0       0       0       0
      Temps:          0       0       0       0       0       0       0       0       0       0       0       0       0       0
      Totals:         0       2       0       0       0       0       0       0       0       0       0       0       0       0
Total ram usage:        2 bytes
 Hardware stack levels used:    1
 Hardware stack levels required when called:   12
 This function calls:
		_playThisNote8
 This function is called by:
		_processKeyboard
 This function uses a non-reentrant model


 *************** function _playThisNote8 *****************
 Defined at:
		line 902 in file "keyboard.c"
 Parameters:    Size  Location     Type
  pitch           1    wreg     unsigned char 
  index           1   17[BANK0 ] unsigned char 
 Auto vars:     Size  Location     Type
  pitch           1   22[BANK0 ] unsigned char 
  temp_pitch      1   23[BANK0 ] unsigned char 
  mode_p          2   24[BANK0 ] PTR unsigned char 
		 -> locrian_key(15), aeolian_key(15), mixolydian_key(15), lydian_key(15), 
		 -> phrygian_key(15), dorian_key(15), ionian_key(15), 
 Return value:  Size  Location     Type
                  1    wreg      void 
 Registers used:
		wreg, fsr0l, fsr0h, fsr1l, fsr1h, fsr2l, fsr2h, status,2, status,0, btemp, btemp+1, btemp+2, btemp+3, btemp+4, btemp+5, btemp+6, btemp+7, btemp+9, btemp+10, btemp+11, tblptrl, tblptrh, tblptru, prodl, prodh, cstack
 Tracked objects:
		On entry : 
		On exit  : 
		Unchanged: 
 Data sizes:     COMRAM   BANK0   BANK1   BANK2   BANK3   BANK4   BANK5   BANK6   BANK7   BANK8   BANK9  BANK10  BANK11  BANK12
      Params:         0       1       0       0       0       0       0       0       0       0       0       0       0       0
      Locals:         0       4       0       0       0       0       0       0       0       0       0       0       0       0
      Temps:          0       4       0       0       0       0       0       0       0       0       0       0       0       0
      Totals:         0       9       0       0       0       0       0       0       0       0       0       0       0       0
Total ram usage:        9 bytes
 Hardware stack levels used:    1
 Hardware stack levels required when called:   11
 This function calls:
		_add_notes_to_arpeggio
		_delete_notes_from_arpeggio
		_finish_arpeggio_setup
		_key_press_release_note_off
		_noteOff
		_noteOn
		_playDiatonicSeventhMajor
		_playDiatonicSeventhMinor
		_playDiatonicTriadMajor
		_playDiatonicTriadMinor
		_wait_one_pulse
 This function is called by:
		_keyboard_eight_note_efficient
		_doTheUnLatch
 This function uses a non-reentrant model


 *************** function _playDiatonicTriadMinor *****************
 Defined at:
		line 1207 in file "keyboard.c"
 Parameters:    Size  Location     Type
  pitch           1    wreg     unsigned char 
  index           1    1[BANK0 ] unsigned char 
 Auto vars:     Size  Location     Type
  pitch           1    6[BANK0 ] unsigned char 
  i               1    8[BANK0 ] unsigned char 
  i               1    7[BANK0 ] unsigned char 
 Return value:  Size  Location     Type
                  1    wreg      void 
 Registers used:
		wreg, fsr0l, fsr0h, fsr1l, fsr1h, fsr2l, fsr2h, status,2, status,0, btemp, btemp+1, btemp+2, btemp+3, btemp+4, btemp+5, btemp+6, btemp+7, btemp+9, btemp+10, btemp+11, tblptrl, tblptrh, tblptru, prodl, prodh, cstack
 Tracked objects:
		On entry : 
		On exit  : 
		Unchanged: 
 Data sizes:     COMRAM   BANK0   BANK1   BANK2   BANK3   BANK4   BANK5   BANK6   BANK7   BANK8   BANK9  BANK10  BANK11  BANK12
      Params:         0       1       0       0       0       0       0       0       0       0       0       0       0       0
      Locals:         0       3       0       0       0       0       0       0       0       0       0       0       0       0
      Temps:          0       4       0       0       0       0       0       0       0       0       0       0       0       0
      Totals:         0       8       0       0       0       0       0       0       0       0       0       0       0       0
Total ram usage:        8 bytes
 Hardware stack levels used:    1
 Hardware stack levels required when called:   10
 This function calls:
		_finish_arpeggio_setup
		_key_press_release_note_off
		_noteOff
		_noteOn
		_wait_one_pulse
 This function is called by:
		_playThisNote8
 This function uses a non-reentrant model


 *************** function _playDiatonicTriadMajor *****************
 Defined at:
		line 1067 in file "keyboard.c"
 Parameters:    Size  Location     Type
  pitch           1    wreg     unsigned char 
  index           1    1[BANK0 ] unsigned char 
 Auto vars:     Size  Location     Type
  pitch           1    8[BANK0 ] unsigned char 
  i               1    7[BANK0 ] unsigned char 
  i               1    6[BANK0 ] unsigned char 
 Return value:  Size  Location     Type
                  1    wreg      void 
 Registers used:
		wreg, fsr0l, fsr0h, fsr1l, fsr1h, fsr2l, fsr2h, status,2, status,0, btemp, btemp+1, btemp+2, btemp+3, btemp+4, btemp+5, btemp+6, btemp+7, btemp+9, btemp+10, btemp+11, tblptrl, tblptrh, tblptru, prodl, prodh, cstack
 Tracked objects:
		On entry : 
		On exit  : 
		Unchanged: 
 Data sizes:     COMRAM   BANK0   BANK1   BANK2   BANK3   BANK4   BANK5   BANK6   BANK7   BANK8   BANK9  BANK10  BANK11  BANK12
      Params:         0       1       0       0       0       0       0       0       0       0       0       0       0       0
      Locals:         0       3       0       0       0       0       0       0       0       0       0       0       0       0
      Temps:          0       4       0       0       0       0       0       0       0       0       0       0       0       0
      Totals:         0       8       0       0       0       0       0       0       0       0       0       0       0       0
Total ram usage:        8 bytes
 Hardware stack levels used:    1
 Hardware stack levels required when called:   10
 This function calls:
		_finish_arpeggio_setup
		_key_press_release_note_off
		_noteOff
		_noteOn
		_wait_one_pulse
 This function is called by:
		_playThisNote8
 This function uses a non-reentrant model


 *************** function _playDiatonicSeventhMinor *****************
 Defined at:
		line 1285 in file "keyboard.c"
 Parameters:    Size  Location     Type
  pitch           1    wreg     unsigned char 
  index           1    1[BANK0 ] unsigned char 
 Auto vars:     Size  Location     Type
  pitch           1    6[BANK0 ] unsigned char 
  i               1    8[BANK0 ] unsigned char 
  i               1    7[BANK0 ] unsigned char 
 Return value:  Size  Location     Type
                  1    wreg      void 
 Registers used:
		wreg, fsr0l, fsr0h, fsr1l, fsr1h, fsr2l, fsr2h, status,2, status,0, btemp, btemp+1, btemp+2, btemp+3, btemp+4, btemp+5, btemp+6, btemp+7, btemp+9, btemp+10, btemp+11, tblptrl, tblptrh, tblptru, prodl, prodh, cstack
 Tracked objects:
		On entry : 
		On exit  : 
		Unchanged: 
 Data sizes:     COMRAM   BANK0   BANK1   BANK2   BANK3   BANK4   BANK5   BANK6   BANK7   BANK8   BANK9  BANK10  BANK11  BANK12
      Params:         0       1       0       0       0       0       0       0       0       0       0       0       0       0
      Locals:         0       3       0       0       0       0       0       0       0       0       0       0       0       0
      Temps:          0       4       0       0       0       0       0       0       0       0       0       0       0       0
      Totals:         0       8       0       0       0       0       0       0       0       0       0       0       0       0
Total ram usage:        8 bytes
 Hardware stack levels used:    1
 Hardware stack levels required when called:   10
 This function calls:
		_finish_arpeggio_setup
		_key_press_release_note_off
		_noteOff
		_noteOn
		_wait_one_pulse
 This function is called by:
		_playThisNote8
 This function uses a non-reentrant model


 *************** function _playDiatonicSeventhMajor *****************
 Defined at:
		line 1135 in file "keyboard.c"
 Parameters:    Size  Location     Type
  pitch           1    wreg     unsigned char 
  index           1    1[BANK0 ] unsigned char 
 Auto vars:     Size  Location     Type
  pitch           1    8[BANK0 ] unsigned char 
  i               1    7[BANK0 ] unsigned char 
  i               1    6[BANK0 ] unsigned char 
 Return value:  Size  Location     Type
                  1    wreg      void 
 Registers used:
		wreg, fsr0l, fsr0h, fsr1l, fsr1h, fsr2l, fsr2h, status,2, status,0, btemp, btemp+1, btemp+2, btemp+3, btemp+4, btemp+5, btemp+6, btemp+7, btemp+9, btemp+10, btemp+11, tblptrl, tblptrh, tblptru, prodl, prodh, cstack
 Tracked objects:
		On entry : 
		On exit  : 
		Unchanged: 
 Data sizes:     COMRAM   BANK0   BANK1   BANK2   BANK3   BANK4   BANK5   BANK6   BANK7   BANK8   BANK9  BANK10  BANK11  BANK12
      Params:         0       1       0       0       0       0       0       0       0       0       0       0       0       0
      Locals:         0       3       0       0       0       0       0       0       0       0       0       0       0       0
      Temps:          0       4       0       0       0       0       0       0       0       0       0       0       0       0
      Totals:         0       8       0       0       0       0       0       0       0       0       0       0       0       0
Total ram usage:        8 bytes
 Hardware stack levels used:    1
 Hardware stack levels required when called:   10
 This function calls:
		_finish_arpeggio_setup
		_key_press_release_note_off
		_noteOff
		_noteOn
		_wait_one_pulse
 This function is called by:
		_playThisNote8
 This function uses a non-reentrant model


 *************** function _keyboard_all_note_efficient *****************
 Defined at:
		line 590 in file "keyboard.c"
 Parameters:    Size  Location     Type
		None
 Auto vars:     Size  Location     Type
  pitch           1   22[BANK0 ] unsigned char 
 Return value:  Size  Location     Type
                  1    wreg      void 
 Registers used:
		wreg, fsr0l, fsr0h, fsr1l, fsr1h, fsr2l, fsr2h, status,2, status,0, btemp, btemp+1, btemp+2, btemp+3, btemp+4, btemp+5, btemp+6, btemp+7, btemp+9, btemp+10, btemp+11, tblptrl, tblptrh, tblptru, prodl, prodh, cstack
 Tracked objects:
		On entry : 
		On exit  : 
		Unchanged: 
 Data sizes:     COMRAM   BANK0   BANK1   BANK2   BANK3   BANK4   BANK5   BANK6   BANK7   BANK8   BANK9  BANK10  BANK11  BANK12
      Params:         0       0       0       0       0       0       0       0       0       0       0       0       0       0
      Locals:         0       1       0       0       0       0       0       0       0       0       0       0       0       0
      Temps:          0       0       0       0       0       0       0       0       0       0       0       0       0       0
      Totals:         0       1       0       0       0       0       0       0       0       0       0       0       0       0
Total ram usage:        1 bytes
 Hardware stack levels used:    1
 Hardware stack levels required when called:   12
 This function calls:
		_playThisNote
 This function is called by:
		_processKeyboard
 This function uses a non-reentrant model


 *************** function _playThisNote *****************
 Defined at:
		line 493 in file "keyboard.c"
 Parameters:    Size  Location     Type
  pitch           1    wreg     unsigned char 
 Auto vars:     Size  Location     Type
  pitch           1   21[BANK0 ] unsigned char 
 Return value:  Size  Location     Type
                  1    wreg      void 
 Registers used:
		wreg, fsr0l, fsr0h, fsr1l, fsr1h, fsr2l, fsr2h, status,2, status,0, btemp, btemp+1, btemp+2, btemp+3, btemp+4, btemp+5, btemp+6, btemp+7, btemp+9, btemp+10, btemp+11, tblptrl, tblptrh, tblptru, prodl, prodh, cstack
 Tracked objects:
		On entry : 
		On exit  : 
		Unchanged: 
 Data sizes:     COMRAM   BANK0   BANK1   BANK2   BANK3   BANK4   BANK5   BANK6   BANK7   BANK8   BANK9  BANK10  BANK11  BANK12
      Params:         0       0       0       0       0       0       0       0       0       0       0       0       0       0
      Locals:         0       1       0       0       0       0       0       0       0       0       0       0       0       0
      Temps:          0       4       0       0       0       0       0       0       0       0       0       0       0       0
      Totals:         0       5       0       0       0       0       0       0       0       0       0       0       0       0
Total ram usage:        5 bytes
 Hardware stack levels used:    1
 Hardware stack levels required when called:   11
 This function calls:
		_add_notes_to_arpeggio
		_delete_notes_from_arpeggio
		_finish_arpeggio_setup
		_key_press_release_note_off
		_noteOff
		_noteOn
		_playSeventh
		_playTriad
		_wait_one_pulse
 This function is called by:
		_keyboard_all_note_efficient
		_doTheUnLatch
 This function uses a non-reentrant model


 *************** function _playTriad *****************
 Defined at:
		line 293 in file "keyboard.c"
 Parameters:    Size  Location     Type
  pitch           1    wreg     unsigned char 
 Auto vars:     Size  Location     Type
  pitch           1    9[BANK0 ] unsigned char 
  i               1    8[BANK0 ] unsigned char 
  i               1    7[BANK0 ] unsigned char 
  triad_p         2    5[BANK0 ] PTR unsigned char 
		 -> diminished_triad(3), augmented_triad(3), minor_triad(3), major_triad(3), 
 Return value:  Size  Location     Type
                  1    wreg      void 
 Registers used:
		wreg, fsr0l, fsr0h, fsr1l, fsr1h, fsr2l, fsr2h, status,2, status,0, btemp, btemp+1, btemp+2, btemp+3, btemp+4, btemp+5, btemp+6, btemp+7, btemp+9, btemp+10, btemp+11, prodl, prodh, cstack
 Tracked objects:
		On entry : 
		On exit  : 
		Unchanged: 
 Data sizes:     COMRAM   BANK0   BANK1   BANK2   BANK3   BANK4   BANK5   BANK6   BANK7   BANK8   BANK9  BANK10  BANK11  BANK12
      Params:         0       0       0       0       0       0       0       0       0       0       0       0       0       0
      Locals:         0       5       0       0       0       0       0       0       0       0       0       0       0       0
      Temps:          0       4       0       0       0       0       0       0       0       0       0       0       0       0
      Totals:         0       9       0       0       0       0       0       0       0       0       0       0       0       0
Total ram usage:        9 bytes
 Hardware stack levels used:    1
 Hardware stack levels required when called:   10
 This function calls:
		_finish_arpeggio_setup
		_key_press_release_note_off
		_noteOff
		_noteOn
		_wait_one_pulse
 This function is called by:
		_playThisNote
 This function uses a non-reentrant model


 *************** function _playSeventh *****************
 Defined at:
		line 396 in file "keyboard.c"
 Parameters:    Size  Location     Type
  pitch           1    wreg     unsigned char 
 Auto vars:     Size  Location     Type
  pitch           1    9[BANK0 ] unsigned char 
  i               1    8[BANK0 ] unsigned char 
  i               1    7[BANK0 ] unsigned char 
  seventh_p       2    5[BANK0 ] PTR unsigned char 
		 -> diminished_7th(4), half_diminished_7th(4), minor_7th(4), major_7th(4), 
		 -> dominant_7th(4), 
 Return value:  Size  Location     Type
                  1    wreg      void 
 Registers used:
		wreg, fsr0l, fsr0h, fsr1l, fsr1h, fsr2l, fsr2h, status,2, status,0, btemp, btemp+1, btemp+2, btemp+3, btemp+4, btemp+5, btemp+6, btemp+7, btemp+9, btemp+10, btemp+11, prodl, prodh, cstack
 Tracked objects:
		On entry : 
		On exit  : 
		Unchanged: 
 Data sizes:     COMRAM   BANK0   BANK1   BANK2   BANK3   BANK4   BANK5   BANK6   BANK7   BANK8   BANK9  BANK10  BANK11  BANK12
      Params:         0       0       0       0       0       0       0       0       0       0       0       0       0       0
      Locals:         0       5       0       0       0       0       0       0       0       0       0       0       0       0
      Temps:          0       4       0       0       0       0       0       0       0       0       0       0       0       0
      Totals:         0       9       0       0       0       0       0       0       0       0       0       0       0       0
Total ram usage:        9 bytes
 Hardware stack levels used:    1
 Hardware stack levels required when called:   10
 This function calls:
		_finish_arpeggio_setup
		_key_press_release_note_off
		_noteOff
		_noteOn
		_wait_one_pulse
 This function is called by:
		_playThisNote
 This function uses a non-reentrant model


 *************** function _noteOn *****************
 Defined at:
		line 123 in file "midi.c"
 Parameters:    Size  Location     Type
  channel         1  [STACK] unsigned char 
  pitch           1  [STACK] unsigned char 
  velocity        1  [STACK] unsigned char 
 Auto vars:     Size  Location     Type
		None
 Return value:  Size  Location     Type
                  1  [STACK] void 
 Registers used:
		wreg, fsr1l, fsr1h, fsr2l, fsr2h, status,2, status,0, btemp, btemp+1, btemp+2, btemp+9, btemp+10, btemp+11, prodl, prodh
 Tracked objects:
		On entry : 
		On exit  : 
		Unchanged: 
 Data sizes:     COMRAM   BANK0   BANK1   BANK2   BANK3   BANK4   BANK5   BANK6   BANK7   BANK8   BANK9  BANK10  BANK11  BANK12
      Params:         0       0       0       0       0       0       0       0       0       0       0       0       0       0
      Locals:         0       0       0       0       0       0       0       0       0       0       0       0       0       0
      Temps:          0       0       0       0       0       0       0       0       0       0       0       0       0       0
      Totals:         0       0       0       0       0       0       0       0       0       0       0       0       0       0
Total ram usage:        0 bytes
 Hardware stack levels used:    1
 Hardware stack levels required when called:    7
 This function calls:
		_noteOff
		_sendOut
		_sendUSB
 This function is called by:
		_playThisNotePentatonic
		_playTriad
		_playSeventh
		_playThisNote
		_playThisNote8
		_playDiatonicTriadMajor
		_playDiatonicSeventhMajor
		_playDiatonicTriadMinor
		_playDiatonicSeventhMinor
		_playArpeggio
		_keyboard_all_note
		_keyboard_eight_note
 This function uses a reentrant model


 *************** function _finish_arpeggio_setup *****************
 Defined at:
		line 98 in file "arpeggio.c"
 Parameters:    Size  Location     Type
		None
 Auto vars:     Size  Location     Type
		None
 Return value:  Size  Location     Type
                  1    wreg      void 
 Registers used:
		wreg, fsr0l, fsr0h, fsr1l, fsr1h, fsr2l, fsr2h, status,2, status,0, btemp, btemp+1, btemp+2, btemp+3, btemp+4, btemp+5, btemp+6, btemp+7, btemp+10, btemp+11, prodl, prodh, cstack
 Tracked objects:
		On entry : 
		On exit  : 
		Unchanged: 
 Data sizes:     COMRAM   BANK0   BANK1   BANK2   BANK3   BANK4   BANK5   BANK6   BANK7   BANK8   BANK9  BANK10  BANK11  BANK12
      Params:         0       0       0       0       0       0       0       0       0       0       0       0       0       0
      Locals:         0       0       0       0       0       0       0       0       0       0       0       0       0       0
      Temps:          0       0       0       0       0       0       0       0       0       0       0       0       0       0
      Totals:         0       0       0       0       0       0       0       0       0       0       0       0       0       0
Total ram usage:        0 bytes
 Hardware stack levels used:    1
 Hardware stack levels required when called:    9
 This function calls:
		_resetArpeggio
		_setupArpeggio
 This function is called by:
		_playThisNotePentatonic
		_playTriad
		_playSeventh
		_playThisNote
		_playThisNote8
		_playDiatonicTriadMajor
		_playDiatonicSeventhMajor
		_playDiatonicTriadMinor
		_playDiatonicSeventhMinor
 This function uses a non-reentrant model


 *************** function _setupArpeggio *****************
 Defined at:
		line 183 in file "arpeggio.c"
 Parameters:    Size  Location     Type
		None
 Auto vars:     Size  Location     Type
		None
 Return value:  Size  Location     Type
                  1    wreg      void 
 Registers used:
		wreg, fsr0l, fsr0h, fsr1l, fsr1h, fsr2l, fsr2h, status,2, status,0, btemp, btemp+1, btemp+2, btemp+3, btemp+4, btemp+5, btemp+6, btemp+7, btemp+10, btemp+11, prodl, prodh, cstack
 Tracked objects:
		On entry : 
		On exit  : 
		Unchanged: 
 Data sizes:     COMRAM   BANK0   BANK1   BANK2   BANK3   BANK4   BANK5   BANK6   BANK7   BANK8   BANK9  BANK10  BANK11  BANK12
      Params:         0       0       0       0       0       0       0       0       0       0       0       0       0       0
      Locals:         0       0       0       0       0       0       0       0       0       0       0       0       0       0
      Temps:          0       0       0       0       0       0       0       0       0       0       0       0       0       0
      Totals:         0       0       0       0       0       0       0       0       0       0       0       0       0       0
Total ram usage:        0 bytes
 Hardware stack levels used:    1
 Hardware stack levels required when called:    8
 This function calls:
		_copy_array
		_random_pitches
		_random_pitches_non_repeating
 This function is called by:
		_Function_H_4
		_finish_arpeggio_setup
 This function uses a non-reentrant model


 *************** function _random_pitches_non_repeating *****************
 Defined at:
		line 265 in file "arpeggio.c"
 Parameters:    Size  Location     Type
		None
 Auto vars:     Size  Location     Type
  randomIndex     1  [STACK] unsigned char 
  temp            1  [STACK] unsigned char 
  i               1  [STACK] unsigned char 
 Return value:  Size  Location     Type
                  1  [STACK] void 
 Registers used:
		wreg, fsr0l, fsr0h, fsr1l, fsr1h, fsr2l, fsr2h, status,2, status,0, btemp, btemp+1, btemp+2, btemp+3, btemp+4, btemp+5, btemp+6, btemp+7, btemp+10, btemp+11, prodl
 Tracked objects:
		On entry : 
		On exit  : 
		Unchanged: 
 Data sizes:     COMRAM   BANK0   BANK1   BANK2   BANK3   BANK4   BANK5   BANK6   BANK7   BANK8   BANK9  BANK10  BANK11  BANK12
      Params:         0       0       0       0       0       0       0       0       0       0       0       0       0       0
      Locals:         0       0       0       0       0       0       0       0       0       0       0       0       0       0
      Temps:          0       0       0       0       0       0       0       0       0       0       0       0       0       0
      Totals:         0       0       0       0       0       0       0       0       0       0       0       0       0       0
Total ram usage:        0 bytes
 Hardware stack levels used:    1
 Hardware stack levels required when called:    7
 This function calls:
		___awmod
		_rand
 This function is called by:
		_processOctave
		_setupArpeggio
		_playArpeggio
 This function uses a reentrant model


 *************** function _random_pitches *****************
 Defined at:
		line 254 in file "arpeggio.c"
 Parameters:    Size  Location     Type
		None
 Auto vars:     Size  Location     Type
  random_array    1  [STACK] unsigned char 
  i               1  [STACK] unsigned char 
 Return value:  Size  Location     Type
                  1  [STACK] void 
 Registers used:
		wreg, fsr0l, fsr0h, fsr1l, fsr1h, fsr2l, fsr2h, status,2, status,0, btemp, btemp+1, btemp+2, btemp+3, btemp+4, btemp+5, btemp+6, btemp+7, btemp+10, btemp+11, prodl
 Tracked objects:
		On entry : 
		On exit  : 
		Unchanged: 
 Data sizes:     COMRAM   BANK0   BANK1   BANK2   BANK3   BANK4   BANK5   BANK6   BANK7   BANK8   BANK9  BANK10  BANK11  BANK12
      Params:         0       0       0       0       0       0       0       0       0       0       0       0       0       0
      Locals:         0       0       0       0       0       0       0       0       0       0       0       0       0       0
      Temps:          0       0       0       0       0       0       0       0       0       0       0       0       0       0
      Totals:         0       0       0       0       0       0       0       0       0       0       0       0       0       0
Total ram usage:        0 bytes
 Hardware stack levels used:    1
 Hardware stack levels required when called:    7
 This function calls:
		___awmod
		_rand
 This function is called by:
		_processOctave
		_setupArpeggio
		_playArpeggio
 This function uses a reentrant model


 *************** function _rand *****************
 Defined at:
		line 12 in file "C:\Program Files (x86)\Microchip\xc8\v1.45\sources\common\rand.c"
 Parameters:    Size  Location     Type
		None
 Auto vars:     Size  Location     Type
		None
 Return value:  Size  Location     Type
                  2  [STACK] int 
 Registers used:
		wreg, fsr1l, fsr1h, status,2, status,0, btemp, btemp+1, btemp+2, btemp+3, btemp+4, btemp+5, btemp+6, btemp+7, btemp+10, btemp+11
 Tracked objects:
		On entry : 
		On exit  : 
		Unchanged: 
 Data sizes:     COMRAM   BANK0   BANK1   BANK2   BANK3   BANK4   BANK5   BANK6   BANK7   BANK8   BANK9  BANK10  BANK11  BANK12
      Params:         0       0       0       0       0       0       0       0       0       0       0       0       0       0
      Locals:         0       0       0       0       0       0       0       0       0       0       0       0       0       0
      Temps:          0       0       0       0       0       0       0       0       0       0       0       0       0       0
      Totals:         0       0       0       0       0       0       0       0       0       0       0       0       0       0
Total ram usage:        0 bytes
 Hardware stack levels used:    1
 Hardware stack levels required when called:    6
 This function calls:
		___lmul
 This function is called by:
		_random_pitches
		_random_pitches_non_repeating
		_playArpeggio
 This function uses a reentrant model


 *************** function ___awmod *****************
 Defined at:
		line 8 in file "C:\Program Files (x86)\Microchip\xc8\v1.45\sources\common\awmod.c"
 Parameters:    Size  Location     Type
  dividend        2  [STACK] int 
  divisor         2  [STACK] int 
 Auto vars:     Size  Location     Type
  sign            1  [STACK] unsigned char 
  counter         1  [STACK] unsigned char 
 Return value:  Size  Location     Type
                  2  [STACK] int 
 Registers used:
		wreg, fsr1l, fsr1h, status,2, status,0, btemp, btemp+1, btemp+2, btemp+10, btemp+11, prodl
 Tracked objects:
		On entry : 
		On exit  : 
		Unchanged: 
 Data sizes:     COMRAM   BANK0   BANK1   BANK2   BANK3   BANK4   BANK5   BANK6   BANK7   BANK8   BANK9  BANK10  BANK11  BANK12
      Params:         0       0       0       0       0       0       0       0       0       0       0       0       0       0
      Locals:         0       0       0       0       0       0       0       0       0       0       0       0       0       0
      Temps:          0       0       0       0       0       0       0       0       0       0       0       0       0       0
      Totals:         0       0       0       0       0       0       0       0       0       0       0       0       0       0
Total ram usage:        0 bytes
 Hardware stack levels used:    1
 Hardware stack levels required when called:    5
 This function calls:
		Nothing
 This function is called by:
		_processOctave
		_displayDigits
		_int2string
		_random_pitches
		_random_pitches_non_repeating
		_playArpeggio
 This function uses a reentrant model


 *************** function _copy_array *****************
 Defined at:
		line 210 in file "arpeggio.c"
 Parameters:    Size  Location     Type
		None
 Auto vars:     Size  Location     Type
  i               1    0[BANK0 ] unsigned char 
 Return value:  Size  Location     Type
                  1    wreg      void 
 Registers used:
		wreg, fsr0l, fsr0h, fsr2l, fsr2h, status,2, status,0, prodl, prodh
 Tracked objects:
		On entry : 
		On exit  : 
		Unchanged: 
 Data sizes:     COMRAM   BANK0   BANK1   BANK2   BANK3   BANK4   BANK5   BANK6   BANK7   BANK8   BANK9  BANK10  BANK11  BANK12
      Params:         0       0       0       0       0       0       0       0       0       0       0       0       0       0
      Locals:         0       1       0       0       0       0       0       0       0       0       0       0       0       0
      Temps:          0       0       0       0       0       0       0       0       0       0       0       0       0       0
      Totals:         0       1       0       0       0       0       0       0       0       0       0       0       0       0
Total ram usage:        1 bytes
 Hardware stack levels used:    1
 Hardware stack levels required when called:    5
 This function calls:
		Nothing
 This function is called by:
		_setupArpeggio
 This function uses a non-reentrant model


 *************** function _resetArpeggio *****************
 Defined at:
		line 162 in file "arpeggio.c"
 Parameters:    Size  Location     Type
		None
 Auto vars:     Size  Location     Type
		None
 Return value:  Size  Location     Type
                  1    wreg      void 
 Registers used:
		wreg, status,2, status,0
 Tracked objects:
		On entry : 
		On exit  : 
		Unchanged: 
 Data sizes:     COMRAM   BANK0   BANK1   BANK2   BANK3   BANK4   BANK5   BANK6   BANK7   BANK8   BANK9  BANK10  BANK11  BANK12
      Params:         0       0       0       0       0       0       0       0       0       0       0       0       0       0
      Locals:         0       0       0       0       0       0       0       0       0       0       0       0       0       0
      Temps:          0       0       0       0       0       0       0       0       0       0       0       0       0       0
      Totals:         0       0       0       0       0       0       0       0       0       0       0       0       0       0
Total ram usage:        0 bytes
 Hardware stack levels used:    1
 Hardware stack levels required when called:    5
 This function calls:
		Nothing
 This function is called by:
		_processOctave
		_finish_arpeggio_setup
 This function uses a non-reentrant model


 *************** function _delete_notes_from_arpeggio *****************
 Defined at:
		line 63 in file "arpeggio.c"
 Parameters:    Size  Location     Type
  pitch           1    wreg     unsigned char 
 Auto vars:     Size  Location     Type
  pitch           1    9[BANK0 ] unsigned char 
  INDEX_TO_SHI    1   10[BANK0 ] char 
 Return value:  Size  Location     Type
                  1    wreg      void 
 Registers used:
		wreg, fsr0l, fsr0h, fsr2l, fsr2h, status,2, status,0, tblptrl, tblptrh, tblptru, prodl, prodh, cstack
 Tracked objects:
		On entry : 
		On exit  : 
		Unchanged: 
 Data sizes:     COMRAM   BANK0   BANK1   BANK2   BANK3   BANK4   BANK5   BANK6   BANK7   BANK8   BANK9  BANK10  BANK11  BANK12
      Params:         0       0       0       0       0       0       0       0       0       0       0       0       0       0
      Locals:         0       2       0       0       0       0       0       0       0       0       0       0       0       0
      Temps:          0       0       0       0       0       0       0       0       0       0       0       0       0       0
      Totals:         0       2       0       0       0       0       0       0       0       0       0       0       0       0
Total ram usage:        2 bytes
 Hardware stack levels used:    1
 Hardware stack levels required when called:    6
 This function calls:
		_findArrayIndex
		_rotateArrayLeft
 This function is called by:
		_playThisNotePentatonic
		_playThisNote
		_playThisNote8
 This function uses a non-reentrant model


 *************** function _findArrayIndex *****************
 Defined at:
		line 516 in file "arpeggio.c"
 Parameters:    Size  Location     Type
  pitch_of_key    1    wreg     unsigned char 
 Auto vars:     Size  Location     Type
  pitch_of_key    1    1[BANK0 ] unsigned char 
  i               1    2[BANK0 ] unsigned char 
 Return value:  Size  Location     Type
                  1    wreg      char 
 Registers used:
		wreg, fsr2l, fsr2h, status,2, status,0, tblptrl, tblptrh, tblptru, prodl, prodh
 Tracked objects:
		On entry : 
		On exit  : 
		Unchanged: 
 Data sizes:     COMRAM   BANK0   BANK1   BANK2   BANK3   BANK4   BANK5   BANK6   BANK7   BANK8   BANK9  BANK10  BANK11  BANK12
      Params:         0       0       0       0       0       0       0       0       0       0       0       0       0       0
      Locals:         0       2       0       0       0       0       0       0       0       0       0       0       0       0
      Temps:          0       1       0       0       0       0       0       0       0       0       0       0       0       0
      Totals:         0       3       0       0       0       0       0       0       0       0       0       0       0       0
Total ram usage:        3 bytes
 Hardware stack levels used:    1
 Hardware stack levels required when called:    5
 This function calls:
		Nothing
 This function is called by:
		_delete_notes_from_arpeggio
 This function uses a non-reentrant model


 *************** function _add_notes_to_arpeggio *****************
 Defined at:
		line 39 in file "arpeggio.c"
 Parameters:    Size  Location     Type
  pitch           1    wreg     unsigned char 
 Auto vars:     Size  Location     Type
  pitch           1   16[BANK0 ] unsigned char 
 Return value:  Size  Location     Type
                  1    wreg      void 
 Registers used:
		wreg, fsr0l, fsr0h, fsr2l, fsr2h, status,2, status,0, tblptrl, tblptrh, tblptru, prodl, prodh, cstack
 Tracked objects:
		On entry : 
		On exit  : 
		Unchanged: 
 Data sizes:     COMRAM   BANK0   BANK1   BANK2   BANK3   BANK4   BANK5   BANK6   BANK7   BANK8   BANK9  BANK10  BANK11  BANK12
      Params:         0       0       0       0       0       0       0       0       0       0       0       0       0       0
      Locals:         0       1       0       0       0       0       0       0       0       0       0       0       0       0
      Temps:          0       7       0       0       0       0       0       0       0       0       0       0       0       0
      Totals:         0       8       0       0       0       0       0       0       0       0       0       0       0       0
Total ram usage:        8 bytes
 Hardware stack levels used:    1
 Hardware stack levels required when called:    6
 This function calls:
		_rotateArrayLeft
 This function is called by:
		_playThisNotePentatonic
		_playThisNote
		_playThisNote8
 This function uses a non-reentrant model


 *************** function _rotateArrayLeft *****************
 Defined at:
		line 584 in file "arpeggio.c"
 Parameters:    Size  Location     Type
  array_index     1    wreg     unsigned char 
 Auto vars:     Size  Location     Type
  array_index     1    7[BANK0 ] unsigned char 
  i               1    8[BANK0 ] unsigned char 
 Return value:  Size  Location     Type
                  1    wreg      void 
 Registers used:
		wreg, fsr0l, fsr0h, fsr2l, fsr2h, status,2, status,0, tblptrl, tblptrh, tblptru, prodl, prodh
 Tracked objects:
		On entry : 
		On exit  : 
		Unchanged: 
 Data sizes:     COMRAM   BANK0   BANK1   BANK2   BANK3   BANK4   BANK5   BANK6   BANK7   BANK8   BANK9  BANK10  BANK11  BANK12
      Params:         0       0       0       0       0       0       0       0       0       0       0       0       0       0
      Locals:         0       2       0       0       0       0       0       0       0       0       0       0       0       0
      Temps:          0       7       0       0       0       0       0       0       0       0       0       0       0       0
      Totals:         0       9       0       0       0       0       0       0       0       0       0       0       0       0
Total ram usage:        9 bytes
 Hardware stack levels used:    1
 Hardware stack levels required when called:    5
 This function calls:
		Nothing
 This function is called by:
		_add_notes_to_arpeggio
		_delete_notes_from_arpeggio
 This function uses a non-reentrant model


 *************** function _processDrumpad *****************
 Defined at:
		line 21 in file "drum.c"
 Parameters:    Size  Location     Type
		None
 Auto vars:     Size  Location     Type
		None
 Return value:  Size  Location     Type
                  1    wreg      void 
 Registers used:
		wreg, fsr1l, fsr1h, fsr2l, fsr2h, status,2, status,0, btemp, btemp+1, btemp+2, btemp+9, btemp+10, btemp+11, prodl, prodh, cstack
 Tracked objects:
		On entry : 
		On exit  : 
		Unchanged: 
 Data sizes:     COMRAM   BANK0   BANK1   BANK2   BANK3   BANK4   BANK5   BANK6   BANK7   BANK8   BANK9  BANK10  BANK11  BANK12
      Params:         0       0       0       0       0       0       0       0       0       0       0       0       0       0
      Locals:         0       0       0       0       0       0       0       0       0       0       0       0       0       0
      Temps:          0       0       0       0       0       0       0       0       0       0       0       0       0       0
      Totals:         0       0       0       0       0       0       0       0       0       0       0       0       0       0
Total ram usage:        0 bytes
 Hardware stack levels used:    1
 Hardware stack levels required when called:    9
 This function calls:
		_controlChange
		_noteOffDrum
		_noteOnDrum
 This function is called by:
		_digitalInputs
 This function uses a non-reentrant model


 *************** function _noteOnDrum *****************
 Defined at:
		line 160 in file "midi.c"
 Parameters:    Size  Location     Type
  channel         1    wreg     unsigned char 
  pitch           1    0[BANK0 ] unsigned char 
  velocity        1    1[BANK0 ] unsigned char 
 Auto vars:     Size  Location     Type
  channel         1    2[BANK0 ] unsigned char 
 Return value:  Size  Location     Type
                  1    wreg      void 
 Registers used:
		wreg, fsr1l, fsr1h, fsr2l, fsr2h, status,2, status,0, btemp, btemp+1, btemp+2, btemp+9, btemp+10, btemp+11, prodl, prodh
 Tracked objects:
		On entry : 
		On exit  : 
		Unchanged: 
 Data sizes:     COMRAM   BANK0   BANK1   BANK2   BANK3   BANK4   BANK5   BANK6   BANK7   BANK8   BANK9  BANK10  BANK11  BANK12
      Params:         0       2       0       0       0       0       0       0       0       0       0       0       0       0
      Locals:         0       1       0       0       0       0       0       0       0       0       0       0       0       0
      Temps:          0       0       0       0       0       0       0       0       0       0       0       0       0       0
      Totals:         0       3       0       0       0       0       0       0       0       0       0       0       0       0
Total ram usage:        3 bytes
 Hardware stack levels used:    1
 Hardware stack levels required when called:    7
 This function calls:
		_noteOff
		_sendOut
		_sendUSB
 This function is called by:
		_processDrumpad
 This function uses a non-reentrant model


 *************** function _noteOffDrum *****************
 Defined at:
		line 145 in file "midi.c"
 Parameters:    Size  Location     Type
  channel         1    wreg     unsigned char 
  pitch           1    0[BANK0 ] unsigned char 
  velocity        1    1[BANK0 ] unsigned char 
 Auto vars:     Size  Location     Type
  channel         1    2[BANK0 ] unsigned char 
 Return value:  Size  Location     Type
                  1    wreg      void 
 Registers used:
		wreg, fsr1l, fsr1h, fsr2l, fsr2h, status,2, status,0, btemp, btemp+1, btemp+2, btemp+9, btemp+10, btemp+11
 Tracked objects:
		On entry : 
		On exit  : 
		Unchanged: 
 Data sizes:     COMRAM   BANK0   BANK1   BANK2   BANK3   BANK4   BANK5   BANK6   BANK7   BANK8   BANK9  BANK10  BANK11  BANK12
      Params:         0       2       0       0       0       0       0       0       0       0       0       0       0       0
      Locals:         0       1       0       0       0       0       0       0       0       0       0       0       0       0
      Temps:          0       0       0       0       0       0       0       0       0       0       0       0       0       0
      Totals:         0       3       0       0       0       0       0       0       0       0       0       0       0       0
Total ram usage:        3 bytes
 Hardware stack levels used:    1
 Hardware stack levels required when called:    6
 This function calls:
		_sendOut
		_sendUSB
 This function is called by:
		_processDrumpad
 This function uses a non-reentrant model


 *************** function _keyboardTranspose *****************
 Defined at:
		line 28 in file "octave.c"
 Parameters:    Size  Location     Type
		None
 Auto vars:     Size  Location     Type
		None
 Return value:  Size  Location     Type
                  1    wreg      void 
 Registers used:
		wreg, fsr1l, fsr1h, fsr2l, fsr2h, status,2, status,0, btemp, btemp+1, btemp+2, btemp+9, btemp+10, btemp+11, prodl, prodh, cstack
 Tracked objects:
		On entry : 
		On exit  : 
		Unchanged: 
 Data sizes:     COMRAM   BANK0   BANK1   BANK2   BANK3   BANK4   BANK5   BANK6   BANK7   BANK8   BANK9  BANK10  BANK11  BANK12
      Params:         0       0       0       0       0       0       0       0       0       0       0       0       0       0
      Locals:         0       0       0       0       0       0       0       0       0       0       0       0       0       0
      Temps:          0       0       0       0       0       0       0       0       0       0       0       0       0       0
      Totals:         0       0       0       0       0       0       0       0       0       0       0       0       0       0
Total ram usage:        0 bytes
 Hardware stack levels used:    1
 Hardware stack levels required when called:    8
 This function calls:
		_key_press_release_note_off
		_printThisNumber
		_wait_one_pulse
 This function is called by:
		_digitalInputs
 This function uses a non-reentrant model


 *************** function _wait_one_pulse *****************
 Defined at:
		line 20 in file "arpeggio.c"
 Parameters:    Size  Location     Type
  mode            1    wreg     unsigned char 
 Auto vars:     Size  Location     Type
  mode            1    0[BANK0 ] unsigned char 
 Return value:  Size  Location     Type
                  1    wreg      void 
 Registers used:
		wreg, status,2
 Tracked objects:
		On entry : 
		On exit  : 
		Unchanged: 
 Data sizes:     COMRAM   BANK0   BANK1   BANK2   BANK3   BANK4   BANK5   BANK6   BANK7   BANK8   BANK9  BANK10  BANK11  BANK12
      Params:         0       0       0       0       0       0       0       0       0       0       0       0       0       0
      Locals:         0       1       0       0       0       0       0       0       0       0       0       0       0       0
      Temps:          0       0       0       0       0       0       0       0       0       0       0       0       0       0
      Totals:         0       1       0       0       0       0       0       0       0       0       0       0       0       0
Total ram usage:        1 bytes
 Hardware stack levels used:    1
 Hardware stack levels required when called:    5
 This function calls:
		Nothing
 This function is called by:
		_playThisNotePentatonic
		_playTriad
		_playSeventh
		_playThisNote
		_playThisNote8
		_playDiatonicTriadMajor
		_playDiatonicSeventhMajor
		_playDiatonicTriadMinor
		_playDiatonicSeventhMinor
		_keyboardTranspose
		_processOctave
 This function uses a non-reentrant model


 *************** function _printThisNumber *****************
 Defined at:
		line 21 in file "octave.c"
 Parameters:    Size  Location     Type
  n               2    0[BANK0 ] int 
 Auto vars:     Size  Location     Type
		None
 Return value:  Size  Location     Type
                  1    wreg      void 
 Registers used:
		wreg, status,2
 Tracked objects:
		On entry : 
		On exit  : 
		Unchanged: 
 Data sizes:     COMRAM   BANK0   BANK1   BANK2   BANK3   BANK4   BANK5   BANK6   BANK7   BANK8   BANK9  BANK10  BANK11  BANK12
      Params:         0       2       0       0       0       0       0       0       0       0       0       0       0       0
      Locals:         0       0       0       0       0       0       0       0       0       0       0       0       0       0
      Temps:          0       0       0       0       0       0       0       0       0       0       0       0       0       0
      Totals:         0       2       0       0       0       0       0       0       0       0       0       0       0       0
Total ram usage:        2 bytes
 Hardware stack levels used:    1
 Hardware stack levels required when called:    5
 This function calls:
		Nothing
 This function is called by:
		_keyboardTranspose
		_processOctave
 This function uses a non-reentrant model


 *************** function _buttonInputsSerial *****************
 Defined at:
		line 307 in file "main.c"
 Parameters:    Size  Location     Type
		None
 Auto vars:     Size  Location     Type
  i               1    5[BANK0 ] unsigned char 
  i               1    4[BANK0 ] unsigned char 
 Return value:  Size  Location     Type
                  1    wreg      void 
 Registers used:
		wreg, status,2, status,0, cstack
 Tracked objects:
		On entry : 
		On exit  : 
		Unchanged: 
 Data sizes:     COMRAM   BANK0   BANK1   BANK2   BANK3   BANK4   BANK5   BANK6   BANK7   BANK8   BANK9  BANK10  BANK11  BANK12
      Params:         0       0       0       0       0       0       0       0       0       0       0       0       0       0
      Locals:         0       2       0       0       0       0       0       0       0       0       0       0       0       0
      Temps:          0       4       0       0       0       0       0       0       0       0       0       0       0       0
      Totals:         0       6       0       0       0       0       0       0       0       0       0       0       0       0
Total ram usage:        6 bytes
 Hardware stack levels used:    1
 Hardware stack levels required when called:    6
 This function calls:
		_clock
		_load
 This function is called by:
		_digitalInputs
 This function uses a non-reentrant model


 *************** function _load *****************
 Defined at:
		line 294 in file "main.c"
 Parameters:    Size  Location     Type
		None
 Auto vars:     Size  Location     Type
		None
 Return value:  Size  Location     Type
                  1    wreg      void 
 Registers used:
		None
 Tracked objects:
		On entry : 
		On exit  : 
		Unchanged: 
 Data sizes:     COMRAM   BANK0   BANK1   BANK2   BANK3   BANK4   BANK5   BANK6   BANK7   BANK8   BANK9  BANK10  BANK11  BANK12
      Params:         0       0       0       0       0       0       0       0       0       0       0       0       0       0
      Locals:         0       0       0       0       0       0       0       0       0       0       0       0       0       0
      Temps:          0       0       0       0       0       0       0       0       0       0       0       0       0       0
      Totals:         0       0       0       0       0       0       0       0       0       0       0       0       0       0
Total ram usage:        0 bytes
 Hardware stack levels used:    1
 Hardware stack levels required when called:    5
 This function calls:
		Nothing
 This function is called by:
		_buttonInputsSerial
 This function uses a non-reentrant model


 *************** function _clock *****************
 Defined at:
		line 301 in file "main.c"
 Parameters:    Size  Location     Type
		None
 Auto vars:     Size  Location     Type
		None
 Return value:  Size  Location     Type
                  1    wreg      void 
 Registers used:
		None
 Tracked objects:
		On entry : 
		On exit  : 
		Unchanged: 
 Data sizes:     COMRAM   BANK0   BANK1   BANK2   BANK3   BANK4   BANK5   BANK6   BANK7   BANK8   BANK9  BANK10  BANK11  BANK12
      Params:         0       0       0       0       0       0       0       0       0       0       0       0       0       0
      Locals:         0       0       0       0       0       0       0       0       0       0       0       0       0       0
      Temps:          0       0       0       0       0       0       0       0       0       0       0       0       0       0
      Totals:         0       0       0       0       0       0       0       0       0       0       0       0       0       0
Total ram usage:        0 bytes
 Hardware stack levels used:    1
 Hardware stack levels required when called:    5
 This function calls:
		Nothing
 This function is called by:
		_buttonInputsSerial
 This function uses a non-reentrant model


 *************** function _analogInputs *****************
 Defined at:
		line 327 in file "main.c"
 Parameters:    Size  Location     Type
		None
 Auto vars:     Size  Location     Type
		None
 Return value:  Size  Location     Type
                  1    wreg      void 
 Registers used:
		wreg, fsr0l, fsr0h, fsr1l, fsr1h, fsr2l, fsr2h, status,2, status,0, btemp, btemp+1, btemp+2, btemp+3, btemp+9, btemp+10, btemp+11, prodl, prodh, cstack
 Tracked objects:
		On entry : 
		On exit  : 
		Unchanged: 
 Data sizes:     COMRAM   BANK0   BANK1   BANK2   BANK3   BANK4   BANK5   BANK6   BANK7   BANK8   BANK9  BANK10  BANK11  BANK12
      Params:         0       0       0       0       0       0       0       0       0       0       0       0       0       0
      Locals:         0       0       0       0       0       0       0       0       0       0       0       0       0       0
      Temps:          0       0       7       0       0       0       0       0       0       0       0       0       0       0
      Totals:         0       0       7       0       0       0       0       0       0       0       0       0       0       0
Total ram usage:        7 bytes
 Hardware stack levels used:    1
 Hardware stack levels required when called:   11
 This function calls:
		_readPotentiometers
 This function is called by:
		_un_block_code
		_main
 This function uses a non-reentrant model


 *************** function _readPotentiometers *****************
 Defined at:
		line 34 in file "potentiometers.c"
 Parameters:    Size  Location     Type
		None
 Auto vars:     Size  Location     Type
  i               1    6[BANK1 ] unsigned char 
  i               1    4[BANK1 ] unsigned char 
  i               1    5[BANK1 ] unsigned char 
 Return value:  Size  Location     Type
                  1    wreg      void 
 Registers used:
		wreg, fsr0l, fsr0h, fsr1l, fsr1h, fsr2l, fsr2h, status,2, status,0, btemp, btemp+1, btemp+2, btemp+3, btemp+9, btemp+10, btemp+11, prodl, prodh, cstack
 Tracked objects:
		On entry : 
		On exit  : 
		Unchanged: 
 Data sizes:     COMRAM   BANK0   BANK1   BANK2   BANK3   BANK4   BANK5   BANK6   BANK7   BANK8   BANK9  BANK10  BANK11  BANK12
      Params:         0       0       0       0       0       0       0       0       0       0       0       0       0       0
      Locals:         0       0       7       0       0       0       0       0       0       0       0       0       0       0
      Temps:          0       5       0       0       0       0       0       0       0       0       0       0       0       0
      Totals:         0       5       7       0       0       0       0       0       0       0       0       0       0       0
Total ram usage:       12 bytes
 Hardware stack levels used:    1
 Hardware stack levels required when called:   10
 This function calls:
		_ADC_Read
		___fladd
		___flmul
		___flneg
		___fltol
		___xxtofl
		_map
		_processPotentiometers
 This function is called by:
		_analogInputs
 This function uses a non-reentrant model


 *************** function _processPotentiometers *****************
 Defined at:
		line 169 in file "potentiometers.c"
 Parameters:    Size  Location     Type
  i               1    wreg     unsigned char 
 Auto vars:     Size  Location     Type
  i               1    8[BANK0 ] unsigned char 
  highByte        1    7[BANK0 ] unsigned char 
  lowByte         1    6[BANK0 ] unsigned char 
 Return value:  Size  Location     Type
                  1    wreg      void 
 Registers used:
		wreg, fsr1l, fsr1h, fsr2l, fsr2h, status,2, status,0, btemp, btemp+1, btemp+2, btemp+9, btemp+10, btemp+11, prodl, prodh, cstack
 Tracked objects:
		On entry : 
		On exit  : 
		Unchanged: 
 Data sizes:     COMRAM   BANK0   BANK1   BANK2   BANK3   BANK4   BANK5   BANK6   BANK7   BANK8   BANK9  BANK10  BANK11  BANK12
      Params:         0       0       0       0       0       0       0       0       0       0       0       0       0       0
      Locals:         0       3       0       0       0       0       0       0       0       0       0       0       0       0
      Temps:          0       3       0       0       0       0       0       0       0       0       0       0       0       0
      Totals:         0       6       0       0       0       0       0       0       0       0       0       0       0       0
Total ram usage:        6 bytes
 Hardware stack levels used:    1
 Hardware stack levels required when called:    9
 This function calls:
		_controlChange
		_pitchBend
 This function is called by:
		_readPotentiometers
 This function uses a non-reentrant model


 *************** function _pitchBend *****************
 Defined at:
		line 206 in file "midi.c"
 Parameters:    Size  Location     Type
  channel         1    wreg     unsigned char 
  lowByte         1    0[BANK0 ] unsigned char 
  highByte        1    1[BANK0 ] unsigned char 
 Auto vars:     Size  Location     Type
  channel         1    2[BANK0 ] unsigned char 
 Return value:  Size  Location     Type
                  1    wreg      void 
 Registers used:
		wreg, fsr1l, fsr1h, fsr2l, fsr2h, status,2, status,0, btemp, btemp+1, btemp+2, btemp+9, btemp+10, btemp+11, prodl, prodh, cstack
 Tracked objects:
		On entry : 
		On exit  : 
		Unchanged: 
 Data sizes:     COMRAM   BANK0   BANK1   BANK2   BANK3   BANK4   BANK5   BANK6   BANK7   BANK8   BANK9  BANK10  BANK11  BANK12
      Params:         0       2       0       0       0       0       0       0       0       0       0       0       0       0
      Locals:         0       1       0       0       0       0       0       0       0       0       0       0       0       0
      Temps:          0       0       0       0       0       0       0       0       0       0       0       0       0       0
      Totals:         0       3       0       0       0       0       0       0       0       0       0       0       0       0
Total ram usage:        3 bytes
 Hardware stack levels used:    1
 Hardware stack levels required when called:    8
 This function calls:
		___lbmod
		_key_press_release_note_off
		_sendOut
		_sendUSB
 This function is called by:
		_processPotentiometers
 This function uses a non-reentrant model


 *************** function _controlChange *****************
 Defined at:
		line 179 in file "midi.c"
 Parameters:    Size  Location     Type
  channel         1    wreg     unsigned char 
  controllerNu    1    0[BANK0 ] unsigned char 
  value           1    1[BANK0 ] unsigned char 
 Auto vars:     Size  Location     Type
  channel         1    2[BANK0 ] unsigned char 
 Return value:  Size  Location     Type
                  1    wreg      void 
 Registers used:
		wreg, fsr1l, fsr1h, fsr2l, fsr2h, status,2, status,0, btemp, btemp+1, btemp+2, btemp+9, btemp+10, btemp+11, prodl, prodh, cstack
 Tracked objects:
		On entry : 
		On exit  : 
		Unchanged: 
 Data sizes:     COMRAM   BANK0   BANK1   BANK2   BANK3   BANK4   BANK5   BANK6   BANK7   BANK8   BANK9  BANK10  BANK11  BANK12
      Params:         0       2       0       0       0       0       0       0       0       0       0       0       0       0
      Locals:         0       1       0       0       0       0       0       0       0       0       0       0       0       0
      Temps:          0       0       0       0       0       0       0       0       0       0       0       0       0       0
      Totals:         0       3       0       0       0       0       0       0       0       0       0       0       0       0
Total ram usage:        3 bytes
 Hardware stack levels used:    1
 Hardware stack levels required when called:    8
 This function calls:
		___lbmod
		_key_press_release_note_off
		_sendOut
		_sendUSB
 This function is called by:
		_processDrumpad
		_processPotentiometers
		_panic_button
 This function uses a non-reentrant model


 *************** function _key_press_release_note_off *****************
 Defined at:
		line 110 in file "arpeggio.c"
 Parameters:    Size  Location     Type
		None
 Auto vars:     Size  Location     Type
		None
 Return value:  Size  Location     Type
                  1    wreg      void 
 Registers used:
		wreg, fsr1l, fsr1h, fsr2l, fsr2h, status,2, status,0, btemp, btemp+1, btemp+2, btemp+9, btemp+10, btemp+11, prodl, prodh
 Tracked objects:
		On entry : 
		On exit  : 
		Unchanged: 
 Data sizes:     COMRAM   BANK0   BANK1   BANK2   BANK3   BANK4   BANK5   BANK6   BANK7   BANK8   BANK9  BANK10  BANK11  BANK12
      Params:         0       0       0       0       0       0       0       0       0       0       0       0       0       0
      Locals:         0       0       0       0       0       0       0       0       0       0       0       0       0       0
      Temps:          0       0       0       0       0       0       0       0       0       0       0       0       0       0
      Totals:         0       0       0       0       0       0       0       0       0       0       0       0       0       0
Total ram usage:        0 bytes
 Hardware stack levels used:    1
 Hardware stack levels required when called:    7
 This function calls:
		_noteOff
 This function is called by:
		_controlChange
		_pitchBend
		_programChange
		_playThisNotePentatonic
		_playTriad
		_playSeventh
		_playThisNote
		_playThisNote8
		_playDiatonicTriadMajor
		_playDiatonicSeventhMajor
		_playDiatonicTriadMinor
		_playDiatonicSeventhMinor
		_keyboardTranspose
		_processOctave
 This function uses a non-reentrant model


 *************** function _noteOff *****************
 Defined at:
		line 109 in file "midi.c"
 Parameters:    Size  Location     Type
  channel         1  [STACK] unsigned char 
  pitch           1  [STACK] unsigned char 
  velocity        1  [STACK] unsigned char 
 Auto vars:     Size  Location     Type
		None
 Return value:  Size  Location     Type
                  1  [STACK] void 
 Registers used:
		wreg, fsr1l, fsr1h, fsr2l, fsr2h, status,2, status,0, btemp, btemp+1, btemp+2, btemp+9, btemp+10, btemp+11, prodl, prodh
 Tracked objects:
		On entry : 
		On exit  : 
		Unchanged: 
 Data sizes:     COMRAM   BANK0   BANK1   BANK2   BANK3   BANK4   BANK5   BANK6   BANK7   BANK8   BANK9  BANK10  BANK11  BANK12
      Params:         0       0       0       0       0       0       0       0       0       0       0       0       0       0
      Locals:         0       0       0       0       0       0       0       0       0       0       0       0       0       0
      Temps:          0       0       0       0       0       0       0       0       0       0       0       0       0       0
      Totals:         0       0       0       0       0       0       0       0       0       0       0       0       0       0
Total ram usage:        0 bytes
 Hardware stack levels used:    1
 Hardware stack levels required when called:    6
 This function calls:
		_sendOut
		_sendUSB
 This function is called by:
		_noteOn
		_noteOnDrum
		_playThisNotePentatonic
		_playTriad
		_playSeventh
		_playThisNote
		_playThisNote8
		_playDiatonicTriadMajor
		_playDiatonicSeventhMajor
		_playDiatonicTriadMinor
		_playDiatonicSeventhMinor
		_key_press_release_note_off
		_playArpeggio
		_keyboard_all_note
		_keyboard_eight_note
 This function uses a reentrant model


 *************** function _sendUSB *****************
 Defined at:
		line 75 in file "midi.c"
 Parameters:    Size  Location     Type
  message1        1  [STACK] unsigned char 
  message2        1  [STACK] unsigned char 
  message3        1  [STACK] unsigned char 
 Auto vars:     Size  Location     Type
  ii              1  [STACK] unsigned char 
  i               1  [STACK] unsigned char 
  midiMessage     3  [STACK] unsigned char [3]
 Return value:  Size  Location     Type
                  1  [STACK] void 
 Registers used:
		wreg, fsr1l, fsr1h, fsr2l, fsr2h, status,2, status,0, btemp, btemp+1, btemp+2, btemp+9, btemp+10, btemp+11
 Tracked objects:
		On entry : 
		On exit  : 
		Unchanged: 
 Data sizes:     COMRAM   BANK0   BANK1   BANK2   BANK3   BANK4   BANK5   BANK6   BANK7   BANK8   BANK9  BANK10  BANK11  BANK12
      Params:         0       0       0       0       0       0       0       0       0       0       0       0       0       0
      Locals:         0       0       0       0       0       0       0       0       0       0       0       0       0       0
      Temps:          0       0       0       0       0       0       0       0       0       0       0       0       0       0
      Totals:         0       0       0       0       0       0       0       0       0       0       0       0       0       0
Total ram usage:        0 bytes
 Hardware stack levels used:    1
 Hardware stack levels required when called:    5
 This function calls:
		Nothing
 This function is called by:
		_noteOff
		_noteOn
		_noteOffDrum
		_noteOnDrum
		_controlChange
		_pitchBend
		_programChange
 This function uses a reentrant model


 *************** function _sendOut *****************
 Defined at:
		line 35 in file "midi.c"
 Parameters:    Size  Location     Type
  message1        1  [STACK] unsigned char 
  message2        1  [STACK] unsigned char 
  message3        1  [STACK] unsigned char 
 Auto vars:     Size  Location     Type
  i               1  [STACK] unsigned char 
  midiMessage     3  [STACK] unsigned char [3]
  number_of_mi    1  [STACK] unsigned char 
 Return value:  Size  Location     Type
                  1  [STACK] void 
 Registers used:
		wreg, fsr1l, fsr1h, fsr2l, fsr2h, status,2, status,0, btemp, btemp+1, btemp+2, btemp+11
 Tracked objects:
		On entry : 
		On exit  : 
		Unchanged: 
 Data sizes:     COMRAM   BANK0   BANK1   BANK2   BANK3   BANK4   BANK5   BANK6   BANK7   BANK8   BANK9  BANK10  BANK11  BANK12
      Params:         0       0       0       0       0       0       0       0       0       0       0       0       0       0
      Locals:         0       0       0       0       0       0       0       0       0       0       0       0       0       0
      Temps:          0       0       0       0       0       0       0       0       0       0       0       0       0       0
      Totals:         0       0       0       0       0       0       0       0       0       0       0       0       0       0
Total ram usage:        0 bytes
 Hardware stack levels used:    1
 Hardware stack levels required when called:    5
 This function calls:
		Nothing
 This function is called by:
		_noteOff
		_noteOn
		_noteOffDrum
		_noteOnDrum
		_controlChange
		_pitchBend
		_programChange
 This function uses a reentrant model


 *************** function ___lbmod *****************
 Defined at:
		line 4 in file "C:\Program Files (x86)\Microchip\xc8\v1.45\sources\common\lbmod.c"
 Parameters:    Size  Location     Type
  dividend        1  [STACK] unsigned char 
  divisor         1  [STACK] unsigned char 
 Auto vars:     Size  Location     Type
  rem             1  [STACK] unsigned char 
  counter         1  [STACK] unsigned char 
 Return value:  Size  Location     Type
                  1  [STACK] unsigned char 
 Registers used:
		wreg, fsr1l, fsr1h, fsr2l, fsr2h, status,2, status,0, btemp, btemp+10, btemp+11
 Tracked objects:
		On entry : 
		On exit  : 
		Unchanged: 
 Data sizes:     COMRAM   BANK0   BANK1   BANK2   BANK3   BANK4   BANK5   BANK6   BANK7   BANK8   BANK9  BANK10  BANK11  BANK12
      Params:         0       0       0       0       0       0       0       0       0       0       0       0       0       0
      Locals:         0       0       0       0       0       0       0       0       0       0       0       0       0       0
      Temps:          0       0       0       0       0       0       0       0       0       0       0       0       0       0
      Totals:         0       0       0       0       0       0       0       0       0       0       0       0       0       0
Total ram usage:        0 bytes
 Hardware stack levels used:    1
 Hardware stack levels required when called:    5
 This function calls:
		Nothing
 This function is called by:
		_controlChange
		_pitchBend
		_programChange
		_menu_lcd
		_Function_A_1
		_Function_A_2
		_Function_A_3
		_Function_A
		_Function_B
		_Function_C_1
		_Function_C_2
		_Function_C_3
		_Function_C
		_Function_D_1
		_Function_D_3
		_Function_D_4
		_Function_D_5
		_Function_D
		_Function_E
		_Function_G_1
		_Function_G_2
		_Function_G_4
		_Function_G
		_Function_H
		_Function_H_4
		_Function_H_5
		_Function_H_6
		_Function_H_8
		_Function_H_9_1
		_Function_H_9_2
		_Function_H_9_3
		_Function_H_9_4
		_Function_H_9
		_ISR
 This function uses a reentrant model


 *************** function _map *****************
 Defined at:
		line 29 in file "potentiometers.c"
 Parameters:    Size  Location     Type
  x               4   14[BANK0 ] long 
  in_min          4   18[BANK0 ] long 
  in_max          4   22[BANK0 ] long 
  out_min         4   26[BANK0 ] long 
  out_max         4   30[BANK0 ] long 
 Auto vars:     Size  Location     Type
		None
 Return value:  Size  Location     Type
                  4   14[BANK0 ] long 
 Registers used:
		wreg, fsr1l, fsr1h, status,2, status,0, btemp, btemp+1, btemp+2, btemp+3, cstack
 Tracked objects:
		On entry : 
		On exit  : 
		Unchanged: 
 Data sizes:     COMRAM   BANK0   BANK1   BANK2   BANK3   BANK4   BANK5   BANK6   BANK7   BANK8   BANK9  BANK10  BANK11  BANK12
      Params:         0      20       0       0       0       0       0       0       0       0       0       0       0       0
      Locals:         0       0       0       0       0       0       0       0       0       0       0       0       0       0
      Temps:          0      20       0       0       0       0       0       0       0       0       0       0       0       0
      Totals:         0      40       0       0       0       0       0       0       0       0       0       0       0       0
Total ram usage:       40 bytes
 Hardware stack levels used:    1
 Hardware stack levels required when called:    6
 This function calls:
		___aldiv
		___lmul
 This function is called by:
		_readPotentiometers
 This function uses a non-reentrant model


 *************** function ___lmul *****************
 Defined at:
		line 15 in file "C:\Program Files (x86)\Microchip\xc8\v1.45\sources\common\Umul32.c"
 Parameters:    Size  Location     Type
  multiplier      4  [STACK] unsigned long 
  multiplicand    4  [STACK] unsigned long 
 Auto vars:     Size  Location     Type
  product         4  [STACK] unsigned long 
 Return value:  Size  Location     Type
                  4  [STACK] unsigned long 
 Registers used:
		wreg, fsr1l, fsr1h, status,2, status,0, btemp, btemp+1, btemp+2, btemp+3
 Tracked objects:
		On entry : 
		On exit  : 
		Unchanged: 
 Data sizes:     COMRAM   BANK0   BANK1   BANK2   BANK3   BANK4   BANK5   BANK6   BANK7   BANK8   BANK9  BANK10  BANK11  BANK12
      Params:         0       0       0       0       0       0       0       0       0       0       0       0       0       0
      Locals:         0       0       0       0       0       0       0       0       0       0       0       0       0       0
      Temps:          0       0       0       0       0       0       0       0       0       0       0       0       0       0
      Totals:         0       0       0       0       0       0       0       0       0       0       0       0       0       0
Total ram usage:        0 bytes
 Hardware stack levels used:    1
 Hardware stack levels required when called:    5
 This function calls:
		Nothing
 This function is called by:
		_map
		_rand
 This function uses a reentrant model


 *************** function ___aldiv *****************
 Defined at:
		line 8 in file "C:\Program Files (x86)\Microchip\xc8\v1.45\sources\common\aldiv.c"
 Parameters:    Size  Location     Type
  dividend        4    0[BANK0 ] long 
  divisor         4    4[BANK0 ] long 
 Auto vars:     Size  Location     Type
  quotient        4   10[BANK0 ] long 
  sign            1    9[BANK0 ] unsigned char 
  counter         1    8[BANK0 ] unsigned char 
 Return value:  Size  Location     Type
                  4    0[BANK0 ] long 
 Registers used:
		wreg, status,2, status,0
 Tracked objects:
		On entry : 
		On exit  : 
		Unchanged: 
 Data sizes:     COMRAM   BANK0   BANK1   BANK2   BANK3   BANK4   BANK5   BANK6   BANK7   BANK8   BANK9  BANK10  BANK11  BANK12
      Params:         0       8       0       0       0       0       0       0       0       0       0       0       0       0
      Locals:         0       6       0       0       0       0       0       0       0       0       0       0       0       0
      Temps:          0       0       0       0       0       0       0       0       0       0       0       0       0       0
      Totals:         0      14       0       0       0       0       0       0       0       0       0       0       0       0
Total ram usage:       14 bytes
 Hardware stack levels used:    1
 Hardware stack levels required when called:    5
 This function calls:
		Nothing
 This function is called by:
		_map
 This function uses a non-reentrant model


 *************** function ___xxtofl *****************
 Defined at:
		line 10 in file "C:\Program Files (x86)\Microchip\xc8\v1.45\sources\common\xxtofl.c"
 Parameters:    Size  Location     Type
  sign            1    wreg     unsigned char 
  val             4    0[BANK0 ] long 
 Auto vars:     Size  Location     Type
  sign            1    8[BANK0 ] unsigned char 
  arg             4   10[BANK0 ] unsigned long 
  exp             1    9[BANK0 ] unsigned char 
 Return value:  Size  Location     Type
                  4    0[BANK0 ] unsigned char 
 Registers used:
		wreg, status,2, status,0
 Tracked objects:
		On entry : 
		On exit  : 
		Unchanged: 
 Data sizes:     COMRAM   BANK0   BANK1   BANK2   BANK3   BANK4   BANK5   BANK6   BANK7   BANK8   BANK9  BANK10  BANK11  BANK12
      Params:         0       4       0       0       0       0       0       0       0       0       0       0       0       0
      Locals:         0       6       0       0       0       0       0       0       0       0       0       0       0       0
      Temps:          0       4       0       0       0       0       0       0       0       0       0       0       0       0
      Totals:         0      14       0       0       0       0       0       0       0       0       0       0       0       0
Total ram usage:       14 bytes
 Hardware stack levels used:    1
 Hardware stack levels required when called:    5
 This function calls:
		Nothing
 This function is called by:
		_calculate_alpha
		_readPotentiometers
		_calculate_pulse_length
 This function uses a non-reentrant model


 *************** function ___fltol *****************
 Defined at:
		line 43 in file "C:\Program Files (x86)\Microchip\xc8\v1.45\sources\common\fltol.c"
 Parameters:    Size  Location     Type
  f1              4   88[BANK0 ] unsigned char 
 Auto vars:     Size  Location     Type
  exp1            1   97[BANK0 ] unsigned char 
  sign1           1   96[BANK0 ] unsigned char 
 Return value:  Size  Location     Type
                  4   88[BANK0 ] long 
 Registers used:
		wreg, status,2, status,0
 Tracked objects:
		On entry : 
		On exit  : 
		Unchanged: 
 Data sizes:     COMRAM   BANK0   BANK1   BANK2   BANK3   BANK4   BANK5   BANK6   BANK7   BANK8   BANK9  BANK10  BANK11  BANK12
      Params:         0       4       0       0       0       0       0       0       0       0       0       0       0       0
      Locals:         0       2       0       0       0       0       0       0       0       0       0       0       0       0
      Temps:          0       4       0       0       0       0       0       0       0       0       0       0       0       0
      Totals:         0      10       0       0       0       0       0       0       0       0       0       0       0       0
Total ram usage:       10 bytes
 Hardware stack levels used:    1
 Hardware stack levels required when called:    5
 This function calls:
		Nothing
 This function is called by:
		_readPotentiometers
		_calculate_pulse_length
 This function uses a non-reentrant model


 *************** function ___flneg *****************
 Defined at:
		line 15 in file "C:\Program Files (x86)\Microchip\xc8\v1.45\sources\common\flneg.c"
 Parameters:    Size  Location     Type
  f1              4   64[BANK0 ] long 
 Auto vars:     Size  Location     Type
		None
 Return value:  Size  Location     Type
                  4   64[BANK0 ] long 
 Registers used:
		wreg, status,2, status,0
 Tracked objects:
		On entry : 
		On exit  : 
		Unchanged: 
 Data sizes:     COMRAM   BANK0   BANK1   BANK2   BANK3   BANK4   BANK5   BANK6   BANK7   BANK8   BANK9  BANK10  BANK11  BANK12
      Params:         0       4       0       0       0       0       0       0       0       0       0       0       0       0
      Locals:         0       0       0       0       0       0       0       0       0       0       0       0       0       0
      Temps:          0       0       0       0       0       0       0       0       0       0       0       0       0       0
      Totals:         0       4       0       0       0       0       0       0       0       0       0       0       0       0
Total ram usage:        4 bytes
 Hardware stack levels used:    1
 Hardware stack levels required when called:    5
 This function calls:
		Nothing
 This function is called by:
		_readPotentiometers
		_calculate_pulse_length
 This function uses a non-reentrant model


 *************** function ___flmul *****************
 Defined at:
		line 8 in file "C:\Program Files (x86)\Microchip\xc8\v1.45\sources\common\sprcmul.c"
 Parameters:    Size  Location     Type
  b               4   14[BANK0 ] long 
  a               4   18[BANK0 ] long 
 Auto vars:     Size  Location     Type
  prod            4   33[BANK0 ] struct .
  grs             4   28[BANK0 ] unsigned long 
  temp            2   37[BANK0 ] struct .
  bexp            1   32[BANK0 ] unsigned char 
  aexp            1   27[BANK0 ] unsigned char 
  sign            1   26[BANK0 ] unsigned char 
 Return value:  Size  Location     Type
                  4   14[BANK0 ] unsigned char 
 Registers used:
		wreg, status,2, status,0, prodl, prodh
 Tracked objects:
		On entry : 
		On exit  : 
		Unchanged: 
 Data sizes:     COMRAM   BANK0   BANK1   BANK2   BANK3   BANK4   BANK5   BANK6   BANK7   BANK8   BANK9  BANK10  BANK11  BANK12
      Params:         0       8       0       0       0       0       0       0       0       0       0       0       0       0
      Locals:         0      13       0       0       0       0       0       0       0       0       0       0       0       0
      Temps:          0       4       0       0       0       0       0       0       0       0       0       0       0       0
      Totals:         0      25       0       0       0       0       0       0       0       0       0       0       0       0
Total ram usage:       25 bytes
 Hardware stack levels used:    1
 Hardware stack levels required when called:    5
 This function calls:
		Nothing
 This function is called by:
		_readPotentiometers
		_calculate_pulse_length
 This function uses a non-reentrant model


 *************** function ___fladd *****************
 Defined at:
		line 10 in file "C:\Program Files (x86)\Microchip\xc8\v1.45\sources\common\sprcadd.c"
 Parameters:    Size  Location     Type
  b               4   68[BANK0 ] unsigned char 
  a               4   72[BANK0 ] unsigned char 
 Auto vars:     Size  Location     Type
  grs             1   87[BANK0 ] unsigned char 
  bexp            1   86[BANK0 ] unsigned char 
  aexp            1   85[BANK0 ] unsigned char 
  signs           1   84[BANK0 ] unsigned char 
 Return value:  Size  Location     Type
                  4   68[BANK0 ] unsigned char 
 Registers used:
		wreg, status,2, status,0
 Tracked objects:
		On entry : 
		On exit  : 
		Unchanged: 
 Data sizes:     COMRAM   BANK0   BANK1   BANK2   BANK3   BANK4   BANK5   BANK6   BANK7   BANK8   BANK9  BANK10  BANK11  BANK12
      Params:         0       8       0       0       0       0       0       0       0       0       0       0       0       0
      Locals:         0       4       0       0       0       0       0       0       0       0       0       0       0       0
      Temps:          0       8       0       0       0       0       0       0       0       0       0       0       0       0
      Totals:         0      20       0       0       0       0       0       0       0       0       0       0       0       0
Total ram usage:       20 bytes
 Hardware stack levels used:    1
 Hardware stack levels required when called:    5
 This function calls:
		Nothing
 This function is called by:
		_readPotentiometers
		_calculate_pulse_length
 This function uses a non-reentrant model


 *************** function _ADC_Read *****************
 Defined at:
		line 35 in file "adc.c"
 Parameters:    Size  Location     Type
  adc_channel     1    wreg     unsigned char 
 Auto vars:     Size  Location     Type
  adc_channel     1    4[BANK0 ] unsigned char 
 Return value:  Size  Location     Type
                  2    0[BANK0 ] unsigned int 
 Registers used:
		wreg, status,2, status,0
 Tracked objects:
		On entry : 
		On exit  : 
		Unchanged: 
 Data sizes:     COMRAM   BANK0   BANK1   BANK2   BANK3   BANK4   BANK5   BANK6   BANK7   BANK8   BANK9  BANK10  BANK11  BANK12
      Params:         0       2       0       0       0       0       0       0       0       0       0       0       0       0
      Locals:         0       1       0       0       0       0       0       0       0       0       0       0       0       0
      Temps:          0       2       0       0       0       0       0       0       0       0       0       0       0       0
      Totals:         0       5       0       0       0       0       0       0       0       0       0       0       0       0
Total ram usage:        5 bytes
 Hardware stack levels used:    1
 Hardware stack levels required when called:    5
 This function calls:
		Nothing
 This function is called by:
		_readPotentiometers
 This function uses a non-reentrant model


 *************** function _clear_row2 *****************
 Defined at:
		line 79 in file "menu.c"
 Parameters:    Size  Location     Type
		None
 Auto vars:     Size  Location     Type
		None
 Return value:  Size  Location     Type
                  1    wreg      void 
 Registers used:
		wreg, fsr0l, fsr0h, status,2, status,0, tblptrl, tblptrh, tblptru, cstack
 Tracked objects:
		On entry : 
		On exit  : 
		Unchanged: 
 Data sizes:     COMRAM   BANK0   BANK1   BANK2   BANK3   BANK4   BANK5   BANK6   BANK7   BANK8   BANK9  BANK10  BANK11  BANK12
      Params:         0       0       0       0       0       0       0       0       0       0       0       0       0       0
      Locals:         0       0       0       0       0       0       0       0       0       0       0       0       0       0
      Temps:          0       0       0       0       0       0       0       0       0       0       0       0       0       0
      Totals:         0       0       0       0       0       0       0       0       0       0       0       0       0       0
Total ram usage:        0 bytes
 Hardware stack levels used:    1
 Hardware stack levels required when called:    8
 This function calls:
		_Lcd_Print_String
		_Lcd_Set_Cursor
 This function is called by:
		_Function_A_1
		_Function_A_2
		_Function_A_3
		_Function_A
		_Function_B
		_Function_C_1
		_Function_C_2
		_Function_C_3
		_Function_C
		_Function_D_1
		_Function_D_3
		_Function_D_4
		_Function_D_5
		_Function_D
		_Function_E
		_Function_F
		_Function_G_1
		_Function_G_2
		_Function_G_3
		_Function_G_4
		_Function_G
		_Function_H
		_Function_H_1
		_Function_H_2
		_Function_H_3
		_Function_H_4
		_Function_H_5
		_Function_H_6_1
		_Function_H_6_2
		_Function_H_6
		_Function_H_7
		_Function_H_8_1
		_Function_H_8_2
		_Function_H_8
		_Function_H_9_1
		_Function_H_9_2
		_Function_H_9_3
		_Function_H_9_4
		_Function_H_9
 This function uses a non-reentrant model


 *************** function _clear_row1 *****************
 Defined at:
		line 72 in file "menu.c"
 Parameters:    Size  Location     Type
		None
 Auto vars:     Size  Location     Type
		None
 Return value:  Size  Location     Type
                  1    wreg      void 
 Registers used:
		wreg, fsr0l, fsr0h, status,2, status,0, tblptrl, tblptrh, tblptru, cstack
 Tracked objects:
		On entry : 
		On exit  : 
		Unchanged: 
 Data sizes:     COMRAM   BANK0   BANK1   BANK2   BANK3   BANK4   BANK5   BANK6   BANK7   BANK8   BANK9  BANK10  BANK11  BANK12
      Params:         0       0       0       0       0       0       0       0       0       0       0       0       0       0
      Locals:         0       0       0       0       0       0       0       0       0       0       0       0       0       0
      Temps:          0       0       0       0       0       0       0       0       0       0       0       0       0       0
      Totals:         0       0       0       0       0       0       0       0       0       0       0       0       0       0
Total ram usage:        0 bytes
 Hardware stack levels used:    1
 Hardware stack levels required when called:    8
 This function calls:
		_Lcd_Print_String
		_Lcd_Set_Cursor
 This function is called by:
		_exitFunction
		_exitSave
		_exitLoad
		_eepromExit
		_Function_A_1
		_Function_A_2
		_Function_A_3
		_Function_C_1
		_Function_C_2
		_Function_C_3
		_Function_D_1
		_Function_D_3
		_Function_D_4
		_Function_D_5
		_Function_G_1
		_Function_G_2
		_Function_G_3
		_Function_G_4
		_Function_H_4
		_Function_H_5
		_Function_H_6_1
		_Function_H_6_2
		_Function_H_7
		_Function_H_8_1
		_Function_H_9_1
		_Function_H_9_2
		_Function_H_9_3
		_Function_H_9_4
		_Function_H_9
 This function uses a non-reentrant model


 *************** function _Lcd_Set_Cursor *****************
 Defined at:
		line 66 in file "lcd.c"
 Parameters:    Size  Location     Type
  a               1    wreg     unsigned char 
  b               1    3[BANK0 ] unsigned char 
 Auto vars:     Size  Location     Type
  a               1    4[BANK0 ] unsigned char 
  temp            1    7[BANK0 ] unsigned char 
  y               1    6[BANK0 ] unsigned char 
  z               1    5[BANK0 ] unsigned char 
 Return value:  Size  Location     Type
                  1    wreg      void 
 Registers used:
		wreg, status,2, status,0, cstack
 Tracked objects:
		On entry : 
		On exit  : 
		Unchanged: 
 Data sizes:     COMRAM   BANK0   BANK1   BANK2   BANK3   BANK4   BANK5   BANK6   BANK7   BANK8   BANK9  BANK10  BANK11  BANK12
      Params:         0       1       0       0       0       0       0       0       0       0       0       0       0       0
      Locals:         0       4       0       0       0       0       0       0       0       0       0       0       0       0
      Temps:          0       0       0       0       0       0       0       0       0       0       0       0       0       0
      Totals:         0       5       0       0       0       0       0       0       0       0       0       0       0       0
Total ram usage:        5 bytes
 Hardware stack levels used:    1
 Hardware stack levels required when called:    7
 This function calls:
		_Lcd_Cmd
 This function is called by:
		_clear_row1
		_clear_row2
		_setControllerNumbers
		_menu_lcd
		_Function_C_2
		_Function_C_3
		_Function_D_2
		_Function_E_1
		_Function_E_2
		_Function_F
		_Function_H_2
		_Function_H_3
 This function uses a non-reentrant model


 *************** function _Lcd_Print_String *****************
 Defined at:
		line 128 in file "lcd.c"
 Parameters:    Size  Location     Type
  a               2    8[BANK0 ] PTR unsigned char 
		 -> STR_75(16), STR_74(12), STR_73(10), STR_72(12), 
		 -> STR_71(10), STR_70(12), STR_69(10), STR_68(12), 
		 -> STR_67(10), STR_66(12), STR_65(13), STR_64(15), 
		 -> STR_63(15), STR_62(16), STR_60(14), STR_58(12), 
		 -> STR_57(15), STR_55(14), STR_53(15), STR_52(17), 
		 -> STR_51(9), STR_50(10), STR_49(13), STR_48(13), 
		 -> STR_47(17), STR_46(14), STR_45(14), STR_42(15), 
		 -> STR_40(16), STR_39(17), STR_38(13), STR_37(17), 
		 -> STR_36(8), STR_35(8), STR_34(12), STR_33(17), 
		 -> STR_32(15), STR_31(14), STR_30(17), STR_29(15), 
		 -> STR_28(17), STR_27(14), STR_26(16), STR_25(14), 
		 -> STR_24(12), LCD_STRINGS(2397), STR_23(13), STR_22(17), 
		 -> STR_21(16), STR_20(5), STR_19(11), STR_18(11), 
		 -> STR_17(11), STR_16(10), STR_15(11), STR_14(11), 
		 -> STR_13(11), STR_12(10), string2display(5), STR_11(17), 
		 -> STR_10(17), 
 Auto vars:     Size  Location     Type
  i               2   12[BANK0 ] int 
 Return value:  Size  Location     Type
                  1    wreg      void 
 Registers used:
		wreg, fsr0l, fsr0h, status,2, status,0, tblptrl, tblptrh, tblptru, cstack
 Tracked objects:
		On entry : 
		On exit  : 
		Unchanged: 
 Data sizes:     COMRAM   BANK0   BANK1   BANK2   BANK3   BANK4   BANK5   BANK6   BANK7   BANK8   BANK9  BANK10  BANK11  BANK12
      Params:         0       2       0       0       0       0       0       0       0       0       0       0       0       0
      Locals:         0       2       0       0       0       0       0       0       0       0       0       0       0       0
      Temps:          0       2       0       0       0       0       0       0       0       0       0       0       0       0
      Totals:         0       6       0       0       0       0       0       0       0       0       0       0       0       0
Total ram usage:        6 bytes
 Hardware stack levels used:    1
 Hardware stack levels required when called:    7
 This function calls:
		_Lcd_Print_Char
 This function is called by:
		_clear_row1
		_clear_row2
		_setControllerNumbers
		_exitFunction
		_exitSave
		_exitLoad
		_eepromExit
		_menu_lcd
		_Function_A_1
		_Function_A_2
		_Function_A_3
		_Function_A
		_Function_B
		_Function_C_1
		_Function_C_2
		_Function_C_3
		_Function_C
		_Function_D_1
		_Function_D_2
		_Function_D_3
		_Function_D_4
		_Function_D_5
		_Function_D
		_Function_E_1
		_Function_E_2
		_Function_E
		_Function_F
		_Function_G_1
		_Function_G_2
		_Function_G_3
		_Function_G_4
		_Function_G
		_Function_H
		_Function_H_1
		_Function_H_2
		_Function_H_3
		_Function_H_4
		_Function_H_5
		_Function_H_6_1
		_Function_H_6_2
		_Function_H_6
		_Function_H_7
		_Function_H_8_1
		_Function_H_8_2
		_Function_H_8
		_Function_H_9_1
		_Function_H_9_2
		_Function_H_9_3
		_Function_H_9_4
		_Function_H_9
 This function uses a non-reentrant model


 *************** function _Lcd_Print_Char *****************
 Defined at:
		line 112 in file "lcd.c"
 Parameters:    Size  Location     Type
  data            1    wreg     unsigned char 
 Auto vars:     Size  Location     Type
  data            1    3[BANK0 ] unsigned char 
  i               2    6[BANK0 ] int 
  i               2    4[BANK0 ] int 
  Upper_Nibble    1    2[BANK0 ] unsigned char 
  Lower_Nibble    1    1[BANK0 ] unsigned char 
 Return value:  Size  Location     Type
                  1    wreg      void 
 Registers used:
		wreg, status,2, status,0, cstack
 Tracked objects:
		On entry : 
		On exit  : 
		Unchanged: 
 Data sizes:     COMRAM   BANK0   BANK1   BANK2   BANK3   BANK4   BANK5   BANK6   BANK7   BANK8   BANK9  BANK10  BANK11  BANK12
      Params:         0       0       0       0       0       0       0       0       0       0       0       0       0       0
      Locals:         0       7       0       0       0       0       0       0       0       0       0       0       0       0
      Temps:          0       0       0       0       0       0       0       0       0       0       0       0       0       0
      Totals:         0       7       0       0       0       0       0       0       0       0       0       0       0       0
Total ram usage:        7 bytes
 Hardware stack levels used:    1
 Hardware stack levels required when called:    6
 This function calls:
		_Lcd_SetBit
 This function is called by:
		_Lcd_Print_String
 This function uses a non-reentrant model


 *************** function _initializeSaveSlotsOnce *****************
 Defined at:
		line 28 in file "eeprom.c"
 Parameters:    Size  Location     Type
		None
 Auto vars:     Size  Location     Type
  initializeSl    1   84[BANK0 ] unsigned char 
 Return value:  Size  Location     Type
                  1    wreg      void 
 Registers used:
		wreg, fsr2l, fsr2h, status,2, status,0, cstack
 Tracked objects:
		On entry : 
		On exit  : 
		Unchanged: 
 Data sizes:     COMRAM   BANK0   BANK1   BANK2   BANK3   BANK4   BANK5   BANK6   BANK7   BANK8   BANK9  BANK10  BANK11  BANK12
      Params:         0       0       0       0       0       0       0       0       0       0       0       0       0       0
      Locals:         0       1       0       0       0       0       0       0       0       0       0       0       0       0
      Temps:          0       0       0       0       0       0       0       0       0       0       0       0       0       0
      Totals:         0       1       0       0       0       0       0       0       0       0       0       0       0       0
Total ram usage:        1 bytes
 Hardware stack levels used:    1
 Hardware stack levels required when called:    7
 This function calls:
		_Busy_eep
		_Read_b_eep
		_Write_b_eep
		_saveToEEPROM
 This function is called by:
		_main
 This function uses a non-reentrant model


 *************** function _saveToEEPROM *****************
 Defined at:
		line 194 in file "eeprom.c"
 Parameters:    Size  Location     Type
  slotNumber      1    wreg     unsigned char 
 Auto vars:     Size  Location     Type
  slotNumber      1   81[BANK0 ] unsigned char 
  byte_count      2   82[BANK0 ] unsigned int 
  to_save        75    4[BANK0 ] unsigned char [75]
  baseAddress     2   79[BANK0 ] unsigned int 
 Return value:  Size  Location     Type
                  1    wreg      void 
 Registers used:
		wreg, fsr2l, fsr2h, status,2, status,0, cstack
 Tracked objects:
		On entry : 
		On exit  : 
		Unchanged: 
 Data sizes:     COMRAM   BANK0   BANK1   BANK2   BANK3   BANK4   BANK5   BANK6   BANK7   BANK8   BANK9  BANK10  BANK11  BANK12
      Params:         0       0       0       0       0       0       0       0       0       0       0       0       0       0
      Locals:         0      80       0       0       0       0       0       0       0       0       0       0       0       0
      Temps:          0       0       0       0       0       0       0       0       0       0       0       0       0       0
      Totals:         0      80       0       0       0       0       0       0       0       0       0       0       0       0
Total ram usage:       80 bytes
 Hardware stack levels used:    1
 Hardware stack levels required when called:    6
 This function calls:
		_Busy_eep
		_Write_b_eep
 This function is called by:
		_Function_G_1
		_initializeSaveSlotsOnce
 This function uses a non-reentrant model


 *************** function _Write_b_eep *****************
 Defined at:
		line 49 in file "C:\Program Files (x86)\Microchip\xc8\v1.45\sources\pic18\plib\EEP\write_B.c"
 Parameters:    Size  Location     Type
  badd            2    0[BANK0 ] unsigned int 
  bdat            1    2[BANK0 ] unsigned char 
 Auto vars:     Size  Location     Type
  GIE_BIT_VAL     1    3[BANK0 ] unsigned char 
 Return value:  Size  Location     Type
                  1    wreg      void 
 Registers used:
		wreg, status,2, status,0
 Tracked objects:
		On entry : 
		On exit  : 
		Unchanged: 
 Data sizes:     COMRAM   BANK0   BANK1   BANK2   BANK3   BANK4   BANK5   BANK6   BANK7   BANK8   BANK9  BANK10  BANK11  BANK12
      Params:         0       3       0       0       0       0       0       0       0       0       0       0       0       0
      Locals:         0       1       0       0       0       0       0       0       0       0       0       0       0       0
      Temps:          0       0       0       0       0       0       0       0       0       0       0       0       0       0
      Totals:         0       4       0       0       0       0       0       0       0       0       0       0       0       0
Total ram usage:        4 bytes
 Hardware stack levels used:    1
 Hardware stack levels required when called:    5
 This function calls:
		Nothing
 This function is called by:
		_Function_D_2
		_Function_G_1
		_Function_G_2
		_Function_G_3
		_Function_G_4
		_initializeSaveSlotsOnce
		_saveToEEPROM
 This function uses a non-reentrant model


 *************** function _Busy_eep *****************
 Defined at:
		line 12 in file "C:\Program Files (x86)\Microchip\xc8\v1.45\sources\pic18\plib\EEP\busy_eep.c"
 Parameters:    Size  Location     Type
		None
 Auto vars:     Size  Location     Type
		None
 Return value:  Size  Location     Type
                  1    wreg      void 
 Registers used:
		None
 Tracked objects:
		On entry : 
		On exit  : 
		Unchanged: 
 Data sizes:     COMRAM   BANK0   BANK1   BANK2   BANK3   BANK4   BANK5   BANK6   BANK7   BANK8   BANK9  BANK10  BANK11  BANK12
      Params:         0       0       0       0       0       0       0       0       0       0       0       0       0       0
      Locals:         0       0       0       0       0       0       0       0       0       0       0       0       0       0
      Temps:          0       0       0       0       0       0       0       0       0       0       0       0       0       0
      Totals:         0       0       0       0       0       0       0       0       0       0       0       0       0       0
Total ram usage:        0 bytes
 Hardware stack levels used:    1
 Hardware stack levels required when called:    5
 This function calls:
		Nothing
 This function is called by:
		_Function_D_2
		_Function_G_1
		_Function_G_2
		_Function_G_3
		_Function_G_4
		_initializeSaveSlotsOnce
		_saveToEEPROM
 This function uses a non-reentrant model


 *************** function _Read_b_eep *****************
 Defined at:
		line 35 in file "C:\Program Files (x86)\Microchip\xc8\v1.45\sources\pic18\plib\EEP\read_B.c"
 Parameters:    Size  Location     Type
  badd            2    0[BANK0 ] unsigned int 
 Auto vars:     Size  Location     Type
		None
 Return value:  Size  Location     Type
                  1    wreg      unsigned char 
 Registers used:
		wreg, status,2, status,0
 Tracked objects:
		On entry : 
		On exit  : 
		Unchanged: 
 Data sizes:     COMRAM   BANK0   BANK1   BANK2   BANK3   BANK4   BANK5   BANK6   BANK7   BANK8   BANK9  BANK10  BANK11  BANK12
      Params:         0       2       0       0       0       0       0       0       0       0       0       0       0       0
      Locals:         0       0       0       0       0       0       0       0       0       0       0       0       0       0
      Temps:          0       0       0       0       0       0       0       0       0       0       0       0       0       0
      Totals:         0       2       0       0       0       0       0       0       0       0       0       0       0       0
Total ram usage:        2 bytes
 Hardware stack levels used:    1
 Hardware stack levels required when called:    5
 This function calls:
		Nothing
 This function is called by:
		_initializeSaveSlotsOnce
		_selectSlotOnBoot
		_loadFromEEPROM
		_main
 This function uses a non-reentrant model


 *************** function _initializeMenuArray *****************
 Defined at:
		line 27 in file "menu.c"
 Parameters:    Size  Location     Type
		None
 Auto vars:     Size  Location     Type
  i               1    8[BANK0 ] unsigned char 
  NumberOfElem    1    7[BANK0 ] unsigned char 
 Return value:  Size  Location     Type
                  1    wreg      void 
 Registers used:
		wreg, fsr0l, fsr0h, fsr2l, fsr2h, status,2, status,0, prodl, prodh, cstack
 Tracked objects:
		On entry : 
		On exit  : 
		Unchanged: 
 Data sizes:     COMRAM   BANK0   BANK1   BANK2   BANK3   BANK4   BANK5   BANK6   BANK7   BANK8   BANK9  BANK10  BANK11  BANK12
      Params:         0       0       0       0       0       0       0       0       0       0       0       0       0       0
      Locals:         0       2       0       0       0       0       0       0       0       0       0       0       0       0
      Temps:          0       1       0       0       0       0       0       0       0       0       0       0       0       0
      Totals:         0       3       0       0       0       0       0       0       0       0       0       0       0       0
Total ram usage:        3 bytes
 Hardware stack levels used:    1
 Hardware stack levels required when called:    6
 This function calls:
		___wmul
 This function is called by:
		_main
 This function uses a non-reentrant model


 *************** function ___wmul *****************
 Defined at:
		line 15 in file "C:\Program Files (x86)\Microchip\xc8\v1.45\sources\common\Umul16.c"
 Parameters:    Size  Location     Type
  multiplier      2    0[BANK0 ] unsigned int 
  multiplicand    2    2[BANK0 ] unsigned int 
 Auto vars:     Size  Location     Type
  product         2    4[BANK0 ] unsigned int 
 Return value:  Size  Location     Type
                  2    0[BANK0 ] unsigned int 
 Registers used:
		wreg, status,2, status,0, prodl, prodh
 Tracked objects:
		On entry : 
		On exit  : 
		Unchanged: 
 Data sizes:     COMRAM   BANK0   BANK1   BANK2   BANK3   BANK4   BANK5   BANK6   BANK7   BANK8   BANK9  BANK10  BANK11  BANK12
      Params:         0       4       0       0       0       0       0       0       0       0       0       0       0       0
      Locals:         0       2       0       0       0       0       0       0       0       0       0       0       0       0
      Temps:          0       0       0       0       0       0       0       0       0       0       0       0       0       0
      Totals:         0       6       0       0       0       0       0       0       0       0       0       0       0       0
Total ram usage:        6 bytes
 Hardware stack levels used:    1
 Hardware stack levels required when called:    5
 This function calls:
		Nothing
 This function is called by:
		_processOctave
		_initializeMenuArray
		_menu_lcd
		_Function_A_1
		_Function_A_2
		_Function_A_3
		_Function_A
		_Function_B
		_Function_C_1
		_Function_C_2
		_Function_C_3
		_Function_C
		_Function_D_1
		_Function_D_3
		_Function_D_4
		_Function_D_5
		_Function_D
		_Function_E
		_Function_G_1
		_Function_G_2
		_Function_G_4
		_Function_G
		_Function_H
		_Function_H_4
		_Function_H_5
		_Function_H_6
		_Function_H_8
		_Function_H_9_1
		_Function_H_9_2
		_Function_H_9_3
		_Function_H_9_4
		_Function_H_9
 This function uses a non-reentrant model


 *************** function _displayTest *****************
 Defined at:
		line 32 in file "segment.c"
 Parameters:    Size  Location     Type
		None
 Auto vars:     Size  Location     Type
		None
 Return value:  Size  Location     Type
                  1    wreg      void 
 Registers used:
		wreg, fsr2l, fsr2h, status,2, status,0, tblptrl, tblptrh, tblptru, cstack
 Tracked objects:
		On entry : 
		On exit  : 
		Unchanged: 
 Data sizes:     COMRAM   BANK0   BANK1   BANK2   BANK3   BANK4   BANK5   BANK6   BANK7   BANK8   BANK9  BANK10  BANK11  BANK12
      Params:         0       0       0       0       0       0       0       0       0       0       0       0       0       0
      Locals:         0       0       0       0       0       0       0       0       0       0       0       0       0       0
      Temps:          0       2       0       0       0       0       0       0       0       0       0       0       0       0
      Totals:         0       2       0       0       0       0       0       0       0       0       0       0       0       0
Total ram usage:        2 bytes
 Hardware stack levels used:    1
 Hardware stack levels required when called:    6
 This function calls:
		_strcpy
 This function is called by:
		_main
 This function uses a non-reentrant model


 *************** function _strcpy *****************
 Defined at:
		line 8 in file "C:\Program Files (x86)\Microchip\xc8\v1.45\sources\common\strcpy.c"
 Parameters:    Size  Location     Type
  to              2    0[BANK0 ] PTR unsigned char 
		 -> string_to_display(5), 
  from            2    2[BANK0 ] PTR const unsigned char 
		 -> STR_61(5), STR_59(5), STR_56(5), STR_54(5), 
		 -> STR_44(5), STR_43(5), STR_41(5), STR_9(5), 
		 -> STR_8(5), STR_7(5), STR_6(5), STR_5(5), 
		 -> STR_4(5), STR_3(5), STR_2(5), STR_1(5), 
 Auto vars:     Size  Location     Type
  cp              2    4[BANK0 ] PTR unsigned char 
		 -> string_to_display(5), 
 Return value:  Size  Location     Type
                  2    0[BANK0 ] PTR unsigned char 
 Registers used:
		wreg, fsr2l, fsr2h, status,2, status,0, tblptrl, tblptrh, tblptru
 Tracked objects:
		On entry : 
		On exit  : 
		Unchanged: 
 Data sizes:     COMRAM   BANK0   BANK1   BANK2   BANK3   BANK4   BANK5   BANK6   BANK7   BANK8   BANK9  BANK10  BANK11  BANK12
      Params:         0       4       0       0       0       0       0       0       0       0       0       0       0       0
      Locals:         0       2       0       0       0       0       0       0       0       0       0       0       0       0
      Temps:          0       0       0       0       0       0       0       0       0       0       0       0       0       0
      Totals:         0       6       0       0       0       0       0       0       0       0       0       0       0       0
Total ram usage:        6 bytes
 Hardware stack levels used:    1
 Hardware stack levels required when called:    5
 This function calls:
		Nothing
 This function is called by:
		_doTheLatch
		_doTheUnLatch
		_processOctave
		_displayTest
		_Function_H_1
		_Function_H_6_2
		_Function_H_7
 This function uses a non-reentrant model


 *************** function _Lcd_Start *****************
 Defined at:
		line 94 in file "lcd.c"
 Parameters:    Size  Location     Type
		None
 Auto vars:     Size  Location     Type
  i               2    4[BANK0 ] int 
 Return value:  Size  Location     Type
                  1    wreg      void 
 Registers used:
		wreg, status,2, status,0, cstack
 Tracked objects:
		On entry : 
		On exit  : 
		Unchanged: 
 Data sizes:     COMRAM   BANK0   BANK1   BANK2   BANK3   BANK4   BANK5   BANK6   BANK7   BANK8   BANK9  BANK10  BANK11  BANK12
      Params:         0       0       0       0       0       0       0       0       0       0       0       0       0       0
      Locals:         0       2       0       0       0       0       0       0       0       0       0       0       0       0
      Temps:          0       1       0       0       0       0       0       0       0       0       0       0       0       0
      Totals:         0       3       0       0       0       0       0       0       0       0       0       0       0       0
Total ram usage:        3 bytes
 Hardware stack levels used:    1
 Hardware stack levels required when called:    7
 This function calls:
		_Lcd_Cmd
		_Lcd_SetBit
 This function is called by:
		_main
 This function uses a non-reentrant model


 *************** function _Lcd_Cmd *****************
 Defined at:
		line 44 in file "lcd.c"
 Parameters:    Size  Location     Type
  a               1    wreg     unsigned char 
 Auto vars:     Size  Location     Type
  a               1    2[BANK0 ] unsigned char 
 Return value:  Size  Location     Type
                  1    wreg      void 
 Registers used:
		wreg, status,2, cstack
 Tracked objects:
		On entry : 
		On exit  : 
		Unchanged: 
 Data sizes:     COMRAM   BANK0   BANK1   BANK2   BANK3   BANK4   BANK5   BANK6   BANK7   BANK8   BANK9  BANK10  BANK11  BANK12
      Params:         0       0       0       0       0       0       0       0       0       0       0       0       0       0
      Locals:         0       1       0       0       0       0       0       0       0       0       0       0       0       0
      Temps:          0       1       0       0       0       0       0       0       0       0       0       0       0       0
      Totals:         0       2       0       0       0       0       0       0       0       0       0       0       0       0
Total ram usage:        2 bytes
 Hardware stack levels used:    1
 Hardware stack levels required when called:    6
 This function calls:
		_Lcd_SetBit
 This function is called by:
		_Lcd_Clear
		_Lcd_Set_Cursor
		_Lcd_Start
 This function uses a non-reentrant model


 *************** function _Lcd_SetBit *****************
 Defined at:
		line 21 in file "lcd.c"
 Parameters:    Size  Location     Type
  data_bit        1    wreg     unsigned char 
 Auto vars:     Size  Location     Type
  data_bit        1    0[BANK0 ] unsigned char 
 Return value:  Size  Location     Type
                  1    wreg      void 
 Registers used:
		wreg
 Tracked objects:
		On entry : 
		On exit  : 
		Unchanged: 
 Data sizes:     COMRAM   BANK0   BANK1   BANK2   BANK3   BANK4   BANK5   BANK6   BANK7   BANK8   BANK9  BANK10  BANK11  BANK12
      Params:         0       0       0       0       0       0       0       0       0       0       0       0       0       0
      Locals:         0       1       0       0       0       0       0       0       0       0       0       0       0       0
      Temps:          0       0       0       0       0       0       0       0       0       0       0       0       0       0
      Totals:         0       1       0       0       0       0       0       0       0       0       0       0       0       0
Total ram usage:        1 bytes
 Hardware stack levels used:    1
 Hardware stack levels required when called:    5
 This function calls:
		Nothing
 This function is called by:
		_Lcd_Cmd
		_Lcd_Start
		_Lcd_Print_Char
 This function uses a non-reentrant model


 *************** function _ADC_Initialize *****************
 Defined at:
		line 22 in file "adc.c"
 Parameters:    Size  Location     Type
		None
 Auto vars:     Size  Location     Type
		None
 Return value:  Size  Location     Type
                  1    wreg      void 
 Registers used:
		wreg, status,2
 Tracked objects:
		On entry : 
		On exit  : 
		Unchanged: 
 Data sizes:     COMRAM   BANK0   BANK1   BANK2   BANK3   BANK4   BANK5   BANK6   BANK7   BANK8   BANK9  BANK10  BANK11  BANK12
      Params:         0       0       0       0       0       0       0       0       0       0       0       0       0       0
      Locals:         0       0       0       0       0       0       0       0       0       0       0       0       0       0
      Temps:          0       0       0       0       0       0       0       0       0       0       0       0       0       0
      Totals:         0       0       0       0       0       0       0       0       0       0       0       0       0       0
Total ram usage:        0 bytes
 Hardware stack levels used:    1
 Hardware stack levels required when called:    5
 This function calls:
		Nothing
 This function is called by:
		_main
 This function uses a non-reentrant model


 *************** function _ISR *****************
 Defined at:
		line 380 in file "main.c"
 Parameters:    Size  Location     Type
		None
 Auto vars:     Size  Location     Type
		None
 Return value:  Size  Location     Type
                  1    wreg      void 
 Registers used:
		wreg, fsr0l, fsr0h, fsr1l, fsr1h, fsr2l, fsr2h, status,2, status,0, btemp, btemp+1, btemp+2, btemp+3, btemp+4, btemp+5, btemp+6, btemp+7, btemp+9, btemp+10, btemp+11, tblptrl, tblptrh, tblptru, prodl, prodh, cstack
 Tracked objects:
		On entry : 
		On exit  : 
		Unchanged: 
 Data sizes:     COMRAM   BANK0   BANK1   BANK2   BANK3   BANK4   BANK5   BANK6   BANK7   BANK8   BANK9  BANK10  BANK11  BANK12
      Params:         0       0       0       0       0       0       0       0       0       0       0       0       0       0
      Locals:         0       0       0       0       0       0       0       0       0       0       0       0       0       0
      Temps:         24       0       0       0       0       0       0       0       0       0       0       0       0       0
      Totals:        24       0       0       0       0       0       0       0       0       0       0       0       0       0
Total ram usage:       24 bytes
 Hardware stack levels used:    1
 Hardware stack levels required when called:    4
 This function calls:
		___lbmod
		_display
		_encoderInputsBuxton
		_playArpeggio
 This function is called by:
		Interrupt level 2
 This function uses a non-reentrant model


 *************** function _playArpeggio *****************
 Defined at:
		line 277 in file "arpeggio.c"
 Parameters:    Size  Location     Type
		None
 Auto vars:     Size  Location     Type
		None
 Return value:  Size  Location     Type
                  1    wreg      void 
 Registers used:
		wreg, fsr0l, fsr0h, fsr1l, fsr1h, fsr2l, fsr2h, status,2, status,0, btemp, btemp+1, btemp+2, btemp+3, btemp+4, btemp+5, btemp+6, btemp+7, btemp+9, btemp+10, btemp+11, prodl, prodh, cstack
 Tracked objects:
		On entry : 
		On exit  : 
		Unchanged: 
 Data sizes:     COMRAM   BANK0   BANK1   BANK2   BANK3   BANK4   BANK5   BANK6   BANK7   BANK8   BANK9  BANK10  BANK11  BANK12
      Params:         0       0       0       0       0       0       0       0       0       0       0       0       0       0
      Locals:         0       0       0       0       0       0       0       0       0       0       0       0       0       0
      Temps:          6       0       0       0       0       0       0       0       0       0       0       0       0       0
      Totals:         6       0       0       0       0       0       0       0       0       0       0       0       0       0
Total ram usage:        6 bytes
 Hardware stack levels used:    1
 Hardware stack levels required when called:    3
 This function calls:
		___awmod
		_noteOff
		_noteOn
		_rand
		_random_pitches
		_random_pitches_non_repeating
		_sort_pitches
 This function is called by:
		_ISR
 This function uses a non-reentrant model


 *************** function _sort_pitches *****************
 Defined at:
		line 222 in file "arpeggio.c"
 Parameters:    Size  Location     Type
		None
 Auto vars:     Size  Location     Type
  j               1    3[COMRAM] unsigned char 
  i               1    4[COMRAM] unsigned char 
  a               1    2[COMRAM] unsigned char 
 Return value:  Size  Location     Type
                  1    wreg      void 
 Registers used:
		wreg, fsr0l, fsr0h, fsr2l, fsr2h, status,2, status,0, prodl, prodh
 Tracked objects:
		On entry : 
		On exit  : 
		Unchanged: 
 Data sizes:     COMRAM   BANK0   BANK1   BANK2   BANK3   BANK4   BANK5   BANK6   BANK7   BANK8   BANK9  BANK10  BANK11  BANK12
      Params:         0       0       0       0       0       0       0       0       0       0       0       0       0       0
      Locals:         3       0       0       0       0       0       0       0       0       0       0       0       0       0
      Temps:          2       0       0       0       0       0       0       0       0       0       0       0       0       0
      Totals:         5       0       0       0       0       0       0       0       0       0       0       0       0       0
Total ram usage:        5 bytes
 Hardware stack levels used:    1
 This function calls:
		Nothing
 This function is called by:
		_playArpeggio
 This function uses a non-reentrant model


 *************** function _encoderInputsBuxton *****************
 Defined at:
		line 27 in file "encoder.c"
 Parameters:    Size  Location     Type
		None
 Auto vars:     Size  Location     Type
  pinstate        1    5[COMRAM] unsigned char 
  tempB           1    4[COMRAM] unsigned char 
  tempA           1    3[COMRAM] unsigned char 
 Return value:  Size  Location     Type
                  1    wreg      void 
 Registers used:
		wreg, status,2, status,0, tblptrl, tblptrh, tblptru, prodl, prodh
 Tracked objects:
		On entry : 
		On exit  : 
		Unchanged: 
 Data sizes:     COMRAM   BANK0   BANK1   BANK2   BANK3   BANK4   BANK5   BANK6   BANK7   BANK8   BANK9  BANK10  BANK11  BANK12
      Params:         0       0       0       0       0       0       0       0       0       0       0       0       0       0
      Locals:         3       0       0       0       0       0       0       0       0       0       0       0       0       0
      Temps:          3       0       0       0       0       0       0       0       0       0       0       0       0       0
      Totals:         6       0       0       0       0       0       0       0       0       0       0       0       0       0
Total ram usage:        6 bytes
 Hardware stack levels used:    1
 This function calls:
		Nothing
 This function is called by:
		_ISR
 This function uses a non-reentrant model


 *************** function _display *****************
 Defined at:
		line 22 in file "segment.c"
 Parameters:    Size  Location     Type
		None
 Auto vars:     Size  Location     Type
		None
 Return value:  Size  Location     Type
                  1    wreg      void 
 Registers used:
		wreg, fsr0l, fsr0h, fsr1l, fsr1h, fsr2l, fsr2h, status,2, status,0, btemp, btemp+1, btemp+2, btemp+10, btemp+11, tblptrl, tblptrh, tblptru, prodl, prodh, cstack
 Tracked objects:
		On entry : 
		On exit  : 
		Unchanged: 
 Data sizes:     COMRAM   BANK0   BANK1   BANK2   BANK3   BANK4   BANK5   BANK6   BANK7   BANK8   BANK9  BANK10  BANK11  BANK12
      Params:         0       0       0       0       0       0       0       0       0       0       0       0       0       0
      Locals:         0       0       0       0       0       0       0       0       0       0       0       0       0       0
      Temps:          0       0       0       0       0       0       0       0       0       0       0       0       0       0
      Totals:         0       0       0       0       0       0       0       0       0       0       0       0       0       0
Total ram usage:        0 bytes
 Hardware stack levels used:    1
 Hardware stack levels required when called:    2
 This function calls:
		_displayDigits
		_displayString
 This function is called by:
		_ISR
 This function uses a non-reentrant model


 *************** function _displayString *****************
 Defined at:
		line 174 in file "segment.c"
 Parameters:    Size  Location     Type
		None
 Auto vars:     Size  Location     Type
  i               1    1[COMRAM] unsigned char 
 Return value:  Size  Location     Type
                  1    wreg      void 
 Registers used:
		wreg, fsr0l, fsr0h, fsr2l, fsr2h, status,2, status,0, tblptrl, tblptrh, tblptru, prodl, prodh
 Tracked objects:
		On entry : 
		On exit  : 
		Unchanged: 
 Data sizes:     COMRAM   BANK0   BANK1   BANK2   BANK3   BANK4   BANK5   BANK6   BANK7   BANK8   BANK9  BANK10  BANK11  BANK12
      Params:         0       0       0       0       0       0       0       0       0       0       0       0       0       0
      Locals:         1       0       0       0       0       0       0       0       0       0       0       0       0       0
      Temps:          1       0       0       0       0       0       0       0       0       0       0       0       0       0
      Totals:         2       0       0       0       0       0       0       0       0       0       0       0       0       0
Total ram usage:        2 bytes
 Hardware stack levels used:    1
 This function calls:
		Nothing
 This function is called by:
		_display
 This function uses a non-reentrant model


 *************** function _displayDigits *****************
 Defined at:
		line 55 in file "segment.c"
 Parameters:    Size  Location     Type
		None
 Auto vars:     Size  Location     Type
  highByte        1    4[COMRAM] unsigned char 
  lowByte         1    3[COMRAM] unsigned char 
 Return value:  Size  Location     Type
                  1    wreg      void 
 Registers used:
		wreg, fsr1l, fsr1h, status,2, status,0, btemp, btemp+1, btemp+2, btemp+10, btemp+11, tblptrl, tblptrh, tblptru, prodl, prodh
 Tracked objects:
		On entry : 
		On exit  : 
		Unchanged: 
 Data sizes:     COMRAM   BANK0   BANK1   BANK2   BANK3   BANK4   BANK5   BANK6   BANK7   BANK8   BANK9  BANK10  BANK11  BANK12
      Params:         0       0       0       0       0       0       0       0       0       0       0       0       0       0
      Locals:         2       0       0       0       0       0       0       0       0       0       0       0       0       0
      Temps:          3       0       0       0       0       0       0       0       0       0       0       0       0       0
      Totals:         5       0       0       0       0       0       0       0       0       0       0       0       0       0
Total ram usage:        5 bytes
 Hardware stack levels used:    1
 Hardware stack levels required when called:    1
 This function calls:
		___awdiv
		___awmod
 This function is called by:
		_display
 This function uses a non-reentrant model



MODULE INFORMATION

Module		Function		Class		Link	Load	Size
C:\Program Files (x86)\Microchip\xc8\v1.45\sources\common\sprcdiv.c
		___fldiv       		CODE           	3C3A	0000	695

C:\Program Files (x86)\Microchip\xc8\v1.45\sources\common\sprcdiv.c estimated size: 695

octave.c
		_processOctave 		CODE           	3674	0000	783
		_keyboardTranspose		CODE           	4446	0000	679
		_doTheLatch    		CODE           	98E4	0000	33
		_doTheUnLatch  		CODE           	51DC	0000	447
		_printThisNumber		CODE           	999C	0000	21

octave.c estimated size: 1963

drum.c
		_processDrumpad		CODE           	1DB2	0000	1287

drum.c estimated size: 1287

C:\Program Files (x86)\Microchip\xc8\v1.45\sources\common\Umul16.c
		___wmul        		CODE           	9854	0000	41

C:\Program Files (x86)\Microchip\xc8\v1.45\sources\common\Umul16.c estimated size: 41

C:\Program Files (x86)\Microchip\xc8\v1.45\sources\pic18\plib\EEP\busy_eep.c
		_Busy_eep      		CODE           	99F4	0000	7

C:\Program Files (x86)\Microchip\xc8\v1.45\sources\pic18\plib\EEP\busy_eep.c estimated size: 7

potentiometers.c
		_map           		CODE           	66DA	0000	263
		_processPotentiometers		CODE           	419E	0000	681
		_readPotentiometers		CODE           	0A30	0000	1897
		_calculate_alpha		CODE           	9324	0000	75

potentiometers.c estimated size: 2916

C:\Program Files (x86)\Microchip\xc8\v1.45\sources\common\sprcadd.c
		___fladd       		CODE           	3336	0000	831

C:\Program Files (x86)\Microchip\xc8\v1.45\sources\common\sprcadd.c estimated size: 831

C:\Program Files (x86)\Microchip\xc8\v1.45\sources\common\awmod.c
		___awmod       		CODE           	68E4	0000	257

C:\Program Files (x86)\Microchip\xc8\v1.45\sources\common\awmod.c estimated size: 257

eeprom.c
		_selectSlotOnBoot		CODE           	98C4	0000	33
		_loadFromEEPROM		CODE           	4BAE	0000	569
		_saveToEEPROM  		CODE           	4FE8	0000	501
		_initializeSaveSlotsOnce		CODE           	936E	0000	75

eeprom.c estimated size: 1178

adc.c
		_ADC_Initialize		CODE           	99B0	0000	21
		_ADC_Read      		CODE           	967C	0000	57

adc.c estimated size: 78

arpeggio.c
		_calculate_pulse_length		CODE           	5E7E	0000	359
		_key_press_release_note_off		CODE           	5D16	0000	361
		_wait_one_pulse		CODE           	97DA	0000	43
		_add_notes_to_arpeggio		CODE           	69E4	0000	255
		_playArpeggio  		CODE           	1198	0000	1793
		_random_pitches_non_repeating		CODE           	78F4	0000	175
		_setupArpeggio 		CODE           	8AB2	0000	117
		_sort_pitches  		CODE           	64B6	0000	281
		_findArrayIndex		CODE           	9558	0000	61
		_copy_array    		CODE           	8F58	0000	99
		_finish_arpeggio_setup		CODE           	9904	0000	31
		_random_pitches		CODE           	8B98	0000	115
		_delete_notes_from_arpeggio		CODE           	96B4	0000	53
		_resetArpeggio 		CODE           	951A	0000	63
		_rotateArrayLeft		CODE           	88DA	0000	121

arpeggio.c estimated size: 3927

C:\Program Files (x86)\Microchip\xc8\v1.45\sources\common\Umul32.c
		___lmul        		CODE           	754A	0000	199

C:\Program Files (x86)\Microchip\xc8\v1.45\sources\common\Umul32.c estimated size: 199

C:\Program Files (x86)\Microchip\xc8\v1.45\sources\common\rand.c
		_srand         		CODE           	99C4	0000	17
		_rand          		CODE           	83DC	0000	137

C:\Program Files (x86)\Microchip\xc8\v1.45\sources\common\rand.c estimated size: 154

C:\Program Files (x86)\Microchip\xc8\v1.45\sources\common\fltol.c
		___fltol       		CODE           	6F78	0000	223

C:\Program Files (x86)\Microchip\xc8\v1.45\sources\common\fltol.c estimated size: 223

shared
		_diatonic_major		MEDIUMCONST    	F310	0000	46
		_diatonic_minor		MEDIUMCONST    	F2E3	0000	46
		_LCD_STRINGS   		MEDIUMCONST    	F39E	0000	2398
		_lydian_key    		MEDIUMCONST    	FD28	0000	16
		ascii@LCD_STRINGS		MEDIUMCONST    	0000	0000	0
		_ionian_key    		MEDIUMCONST    	FD55	0000	16
		_major_key     		MEDIUMCONST    	F378	0000	16
		_pentatonic_major_key		MEDIUMCONST    	F392	0000	12
		_dorian_key    		MEDIUMCONST    	FD46	0000	16
		_pentatonic_minor_key		MEDIUMCONST    	F387	0000	12
		_seg_ascii     		MEDIUMCONST    	F220	0000	76
		_phrygian_key  		MEDIUMCONST    	FD37	0000	16
		_aeolian_key   		MEDIUMCONST    	FD0A	0000	16
		_mixolydian_key		MEDIUMCONST    	FD19	0000	16
		__initialization		CODE           	6BD6	0000	233
		_diatonic_seventh_minor		MEDIUMCONST    	F26B	0000	61
		_minor_key     		MEDIUMCONST    	F369	0000	16
		_ttable        		MEDIUMCONST    	F33D	0000	29
		_locrian_key   		MEDIUMCONST    	FCFB	0000	16
		_seg_bcd_hex   		MEDIUMCONST    	F359	0000	17
		_diatonic_seventh_major		MEDIUMCONST    	F2A7	0000	61
		_MAX_NUM_NOTES 		MEDIUMCONST    	F39D	0000	2

shared estimated size: 3137

segment.c
		_display       		CODE           	996E	0000	25
		_displayTest   		CODE           	85F0	0000	129
		_displayString 		CODE           	65CE	0000	269
		_displayDigits 		CODE           	3982	0000	697

segment.c estimated size: 1120

C:\Program Files (x86)\Microchip\xc8\v1.45\sources\pic18\plib\EEP\read_B.c
		_Read_b_eep    		CODE           	9922	0000	27

C:\Program Files (x86)\Microchip\xc8\v1.45\sources\pic18\plib\EEP\read_B.c estimated size: 27

menu.c
		_eepromExit    		CODE           	9642	0000	59
		_Function_A    		CODE           	73AE	0000	207
		_Function_B    		CODE           	8860	0000	123
		_Function_C    		CODE           	8082	0000	147
		_Function_D    		CODE           	81A4	0000	145
		_Function_E    		CODE           	8CE6	0000	109
		_Function_F    		CODE           	8E8E	0000	103
		_Function_G    		CODE           	8114	0000	145
		_Function_H    		CODE           	76D4	0000	193
		_exitSave      		CODE           	9608	0000	59
		_Function_A_1  		CODE           	72D8	0000	215
		_Function_C_1  		CODE           	8234	0000	143
		_Function_D_1  		CODE           	8464	0000	133
		_Function_A_2  		CODE           	7202	0000	215
		_Function_E_1  		CODE           	92D8	0000	77
		_Function_C_2  		CODE           	6390	0000	295
		_Function_G_1  		CODE           	7E16	0000	161
		_Function_D_2  		CODE           	901C	0000	95
		_Function_H_1  		CODE           	7056	0000	215
		_Function_A_3  		CODE           	712C	0000	215
		_Function_E_2  		CODE           	928C	0000	77
		_Function_C_3  		CODE           	626A	0000	295
		_Function_G_2  		CODE           	7D76	0000	161
		_Function_D_3  		CODE           	89C8	0000	119
		_Function_H_2  		CODE           	8E28	0000	103
		_Function_G_3  		CODE           	90D8	0000	93
		_Function_D_4  		CODE           	87E6	0000	123
		_Function_H_3  		CODE           	9134	0000	91
		_Function_G_4  		CODE           	7F52	0000	155
		_Function_D_5  		CODE           	876C	0000	123
		_Function_H_4  		CODE           	7794	0000	179
		_Function_H_5  		CODE           	7A4C	0000	171
		_Function_H_6  		CODE           	8C78	0000	111
		_Function_H_7  		CODE           	7846	0000	175
		_Function_H_8  		CODE           	8C0A	0000	111
		_Function_H_9  		CODE           	7FEC	0000	151
		_setControllerNumbers		CODE           	22B8	0000	1271
		_Function_H_6_1		CODE           	7EB6	0000	157
		_Function_H_8_1		CODE           	8952	0000	119
		_Function_H_9_1		CODE           	7CD6	0000	161
		_Function_H_6_2		CODE           	79A2	0000	171
		_Function_H_8_2		CODE           	8EF4	0000	101
		_Function_H_9_2		CODE           	7C36	0000	161
		_Function_H_9_3		CODE           	7B96	0000	161
		_Function_H_9_4		CODE           	7AF6	0000	161
		_un_block_code 		CODE           	9956	0000	25
		_exitLoad      		CODE           	95CE	0000	59
		_exitFunction  		CODE           	9594	0000	59
		_initializeMenuArray		CODE           	4DE6	0000	515
		_setControllerResolution		CODE           	97AE	0000	45
		_menu_lcd      		CODE           	6E9A	0000	223
		_clear_row1    		CODE           	982C	0000	41
		_clear_row2    		CODE           	9804	0000	41
		_int2string    		CODE           	7610	0000	197

menu.c estimated size: 8960

C:\Program Files (x86)\Microchip\xc8\v1.45\sources\common\awdiv.c
		___awdiv       		CODE           	6138	0000	307

C:\Program Files (x86)\Microchip\xc8\v1.45\sources\common\awdiv.c estimated size: 307

lcd.c
		_Lcd_Cmd       		CODE           	987C	0000	39
		_Lcd_SetBit    		CODE           	977E	0000	49
		_Lcd_Start     		CODE           	8350	0000	141
		_Lcd_Set_Cursor		CODE           	8FBA	0000	99
		_Lcd_Clear     		CODE           	9986	0000	23
		_Lcd_Print_String		CODE           	84E8	0000	133
		_Lcd_Print_Char		CODE           	856C	0000	133

lcd.c estimated size: 617

C:\Program Files (x86)\Microchip\xc8\v1.45\sources\common\lbmod.c
		___lbmod       		CODE           	82C2	0000	143

C:\Program Files (x86)\Microchip\xc8\v1.45\sources\common\lbmod.c estimated size: 143

encoder.c
		_processEncoderBuxton		CODE           	0014	0000	2589
		_encoderInputsBuxton		CODE           	8670	0000	129

encoder.c estimated size: 2718

midi.c
		_pitchBend     		CODE           	9448	0000	73
		_noteOff       		CODE           	9490	0000	73
		_noteOffDrum   		CODE           	96E8	0000	53
		_sendUSB       		CODE           	6DB6	0000	229
		_sendOut       		CODE           	6CC8	0000	239
		_controlChange 		CODE           	918E	0000	89
		_programChange 		CODE           	93B8	0000	73
		_noteOnDrum    		CODE           	91E6	0000	85
		_noteOn        		CODE           	8B26	0000	115

midi.c estimated size: 1029

C:\Program Files (x86)\Microchip\xc8\v1.45\sources\common\xxtofl.c
		___xxtofl      		CODE           	5FE4	0000	341

C:\Program Files (x86)\Microchip\xc8\v1.45\sources\common\xxtofl.c estimated size: 341

C:\Program Files (x86)\Microchip\xc8\v1.45\sources\common\aldiv.c
		___aldiv       		CODE           	747C	0000	207

C:\Program Files (x86)\Microchip\xc8\v1.45\sources\common\aldiv.c estimated size: 207

C:\Program Files (x86)\Microchip\xc8\v1.45\sources\pic18\plib\EEP\write_B.c
		_Write_b_eep   		CODE           	94D8	0000	67

C:\Program Files (x86)\Microchip\xc8\v1.45\sources\pic18\plib\EEP\write_B.c estimated size: 67

C:\Program Files (x86)\Microchip\xc8\v1.45\sources\common\flneg.c
		___flneg       		CODE           	974E	0000	49

C:\Program Files (x86)\Microchip\xc8\v1.45\sources\common\flneg.c estimated size: 49

main.c
		_clock         		CODE           	99EE	0000	7
		_ISR           		CODE           	0008	0000	431
		_buttonInputsSerial		CODE           	86F0	0000	125
		_main          		CODE           	6AE2	0000	245
		_panic_button  		CODE           	98A2	0000	35
		_load          		CODE           	99E8	0000	7
		_digitalInputs 		CODE           	923A	0000	83
		_analogInputs  		CODE           	9400	0000	73
		_setup         		CODE           	8A3E	0000	117

main.c estimated size: 1123

C:\Program Files (x86)\Microchip\xc8\v1.45\sources\common\strcpy.c
		_strcpy        		CODE           	971C	0000	51

C:\Program Files (x86)\Microchip\xc8\v1.45\sources\common\strcpy.c estimated size: 51

C:\Program Files (x86)\Microchip\xc8\v1.45\sources\common\sprcmul.c
		___flmul       		CODE           	2FE4	0000	851

C:\Program Files (x86)\Microchip\xc8\v1.45\sources\common\sprcmul.c estimated size: 851

keyboard.c
		_keyboard_eight_note_efficient		CODE           	2BE2	0000	1027
		_playTriad     		CODE           	5B92	0000	389
		_playDiatonicTriadMajor		CODE           	5A02	0000	401
		_playDiatonicSeventhMajor		CODE           	56DE	0000	403
		_keyboard_all_note_efficient		CODE           	1898	0000	1307
		_keyboard_sharps_only_efficient		CODE           	3EF0	0000	687
		_playSeventh   		CODE           	5870	0000	403
		_processKeyboard		CODE           	8D52	0000	109
		_playThisNotePentatonic		CODE           	5544	0000	411
		_playThisNote  		CODE           	67E0	0000	261
		_playThisNote8 		CODE           	27AE	0000	1077
		_playDiatonicTriadMinor		CODE           	46EC	0000	611
		_playDiatonicSeventhMinor		CODE           	494E	0000	609

keyboard.c estimated size: 7695

