Microchip MPLAB XC8 Compiler V1.45 ()

Linker command line:

-W9 --edf=C:\Program Files (x86)\Microchip\xc8\v1.45\dat\en_msgs.txt -cs \
  -h+dist/default/production\midi_transmit_18F4680_2_octave_v1.0a.production.sym \
  --cmf=dist/default/production\midi_transmit_18F4680_2_octave_v1.0a.production.cmf \
  -z -Q18F4680 -oC:\Users\Bill\AppData\Local\Temp\s99o.2 \
  -Mdist/default/production/midi_transmit_18F4680_2_octave_v1.0a.production.map \
  -E1 -ver=XC8 --acfsm=1493 -ASTACK=0369h-0cffh -pstack=STACK \
  -ACODE=00h-0FFFFh -ACONST=00h-0FFFFh -ASMALLCONST=0D00h-0DFFhx243 \
  -AMEDIUMCONST=0D00h-0FFFFh -ACOMRAM=01h-05Fh -AABS1=00h-0CFFh \
  -ABIGRAM=01h-0CFFh -ARAM=060h-0FFh,0100h-01FFhx12 -ABANK0=060h-0FFh \
  -ABANK1=0100h-01FFh -ABANK2=0200h-02FFh -ABANK3=0300h-03FFh \
  -ABANK4=0400h-04FFh -ABANK5=0500h-05FFh -ABANK6=0600h-06FFh \
  -ABANK7=0700h-07FFh -ABANK8=0800h-08FFh -ABANK9=0900h-09FFh \
  -ABANK10=0A00h-0AFFh -ABANK11=0B00h-0BFFh -ABANK12=0C00h-0CFFh \
  -ASFR=0D00h-0DFFhx2,0F00h-0F5Fh,0F60h-0FFFh \
  -preset_vec=00h,intcode=08h,intcodelo,powerup,init -pramtop=0D00h \
  -psmallconst=SMALLCONST -pmediumconst=MEDIUMCONST -pconst=CONST \
  -AFARRAM=00h-00h -ACONFIG=0300000h-030000Dh -pconfig=CONFIG \
  -AIDLOC=0200000h-0200007h -pidloc=IDLOC -AEEDATA=0F00000h-0F003FFh \
  -peeprom_data=EEDATA \
  -prdata=COMRAM,nvrram=COMRAM,nvbit=COMRAM,rbss=COMRAM,rbit=COMRAM \
  -pfarbss=FARRAM,fardata=FARRAM,nvFARRAM=FARRAM \
  -pintsave_regs=BIGRAM,bigbss=BIGRAM,bigdata=BIGRAM -pbss=RAM \
  -pidata=CODE,irdata=CODE,ibigdata=CODE,ifardata=CODE -prparam=COMRAM \
  C:\Users\Bill\AppData\Local\Temp\s99o.obj \
  dist/default/production\midi_transmit_18F4680_2_octave_v1.0a.production.obj 

Object code version is 3.11

Machine type is 18F4680

Call graph: (short form)




                Name                               Link     Load   Length Selector   Space Scale
C:\Users\Bill\AppData\Local\Temp\s99o.obj
                init                                  E        E        4        4       0
                reset_vec                             0        0        4        0       0
                idloc                            200000   200000        8   200000       0
                config                           300000   300000        E   300000       0
dist/default/production\midi_transmit_18F4680_2_octave_v1.0a.production.obj
                eeprom_data                      F00000   F00000        8   F00000       0
                intcode                               8        8        6        4       0
                temp                                 5F       5F        1        1       1
                mediumconst                        E8C2     E8C2     173E     7461       0
                text155                            7B88     7B88       84        4       0
                text154                            85A0     85A0       70        4       0
                text153                            4198     4198      2A8        4       0
                text152                            64F2     64F2       FA        4       0
                text151                            957A     957A       14     43A8       0
                text150                            7D0E     7D0E       80        4       0
                text149                            62D4     62D4      11A        4       0
                text148                            9530     9530       1C     43A8       0
                text147                            74FC     74FC       9A        4       0
                text146                            913A     913A       3C     43A8       0
                text145                            8B14     8B14       5C     43A8       0
                text144                            8CD2     8CD2       56     43A8       0
                text143                            8D7C     8D7C       54     43A8       0
                text142                            8BCA     8BCA       5A     43A8       0
                text141                            7C0C     7C0C       82        4       0
                text140                             A42      A42      70A        4       0
                text139                            93C2     93C2       2A     43A8       0
                text138                            95A0     95A0       12     43A8       0
                intcode_body                       51CE     51CE      198        4       0
                text136                            9566     9566       14     43A8       0
                text135                            92E2     92E2       30     43A8       0
                text134                            948C     948C       26     43A8       0
                text133                            7756     7756       8C        4       0
                text132                            91AE     91AE       38     43A8       0
                text131                            364E     364E      33E        4       0
                text130                            32FC     32FC      352        4       0
                text129                            92B2     92B2       30     43A8       0
                text128                            689C     689C       DE        4       0
                text127                            5DEA     5DEA      154        4       0
                text126                            6A4E     6A4E       CE        4       0
                text125                            8C24     8C24       58     43A8       0
                text124                            66D4     66D4       E6        4       0
                text123                            9512     9512       1E     43A8       0
                text122                            7322     7322       A2        4       0
                text121                            921A     921A       34     43A8       0
                text120                            91E6     91E6       34     43A8       0
                text119                            3EF0     3EF0      2A8        4       0
                text118                            114C     114C      600        4       0
                text117                            95EC     95EC        6     4AED       0
                text116                            95E6     95E6        6     4AED       0
                text115                            95E0     95E0        6     4AED       0
                text114                            81F4     81F4       7C        4       0
                text113                            8F92     8F92       40     43A8       0
                text112                            5B2A     5B2A      162        4       0
                text111                            958E     958E       12     43A8       0
                text110                            9398     9398       2A     43A8       0
                text109                            4440     4440      2A6        4       0
                text108                            9176     9176       38     43A8       0
                text107                            8C7C     8C7C       56     43A8       0
                text106                            1C66     1C66      516        4       0
                text105                            7F86     7F86       7E        4       0
                text104                            90FE     90FE       3C     43A8       0
                text103                            8362     8362       78        4       0
                text102                            9280     9280       32     43A8       0
                text101                            90C2     90C2       3C     43A8       0
                text100                            8882     8882       62     43A8       0
                text99                             84BE     84BE       72        4       0
                text98                             8AB8     8AB8       5C     43A8       0
                text97                             8A5C     8A5C       5C     43A8       0
                text96                             7B04     7B04       84        4       0
                text95                             8178     8178       7C        4       0
                text94                             94F4     94F4       1E     43A8       0
                text93                             8944     8944       60     43A8       0
                text92                             581C     581C      18E        4       0
                text91                             59AA     59AA      180        4       0
                text90                             63EE     63EE      104        4       0
                text89                             174C     174C      51A        4       0
                text88                             54FA     54FA      192        4       0
                text87                             4944     4944      25C        4       0
                text86                             568C     568C      190        4       0
                text85                             46E6     46E6      25E        4       0
                text84                             2AD4     2AD4      426        4       0
                text83                             2EFA     2EFA      402        4       0
                text82                             5366     5366      194        4       0
                text81                             3C42     3C42      2AE        4       0
                text80                             8610     8610       6C        4       0
                text79                             9464     9464       28     43A8       0
                text78                             924E     924E       32     43A8       0
                text77                             2674     2674      460        4       0
                text76                             8D28     8D28       54     43A8       0
                text75                             7F08     7F08       7E        4       0
                text74                             4DD8     4DD8      202        4       0
                text73                             954C     954C       1A     43A8       0
                text72                             95DA     95DA        6     4AED       0
                text71                             8F50     8F50       42     43A8       0
                text70                             4FDA     4FDA      1F4        4       0
                text69                             8F06     8F06       4A     43A8       0
                text68                             9312     9312       2E     43A8       0
                text67                             7A80     7A80       84        4       0
                text66                             80FC     80FC       7C        4       0
                text65                             8B70     8B70       5A     43A8       0
                text64                             943C     943C       28     43A8       0
                text63                             9414     9414       28     43A8       0
                text62                               12       12      A30        4       0
                text61                             8080     8080       7C        4       0
                text60                             8004     8004       7C        4       0
                text59                             79FC     79FC       84        4       0
                text58                             7E8A     7E8A       7E        4       0
                text57                             7C8E     7C8E       80        4       0
                text56                             76C2     76C2       94        4       0
                text55                             78F2     78F2       86        4       0
                text54                             697A     697A       D4        4       0
                text53                             61AC     61AC      128        4       0
                text52                             6084     6084      128        4       0
                text51                             786A     786A       88        4       0
                text50                             936C     936C       2C     43A8       0
                text49                             77E2     77E2       88        4       0
                text48                             398C     398C      2B6        4       0
                text47                             8EBC     8EBC       4A     43A8       0
                text46                             88E4     88E4       60     43A8       0
                text45                             217C     217C      4F8        4       0
                text44                             8270     8270       7A        4       0
                text43                             7E0C     7E0C       7E        4       0
                text42                             7D8E     7D8E       7E        4       0
                text41                             7978     7978       84        4       0
                text40                             8E6E     8E6E       4E     43A8       0
                text39                             8E20     8E20       4E     43A8       0
                text38                             8530     8530       70        4       0
                text37                             9340     9340       2C     43A8       0
                text36                             867C     867C       6A        4       0
                text35                             9086     9086       3C     43A8       0
                text34                             904A     904A       3C     43A8       0
                text33                             7280     7280       A2        4       0
                text32                             900E     900E       3C     43A8       0
                text31                             5C8C     5C8C      15E        4       0
                text30                             4BA0     4BA0      238        4       0
                text29                             71DE     71DE       A2        4       0
                text28                             8A00     8A00       5C     43A8       0
                text27                             8FD2     8FD2       3C     43A8       0
                text26                             73C4     73C4       9E        4       0
                text25                             762E     762E       94        4       0
                text24                             7462     7462       9A        4       0
                text23                             8750     8750       68     43A8       0
                text22                             89A4     89A4       5C     43A8       0
                text21                             6BE8     6BE8       B8        4       0
                text20                             6D50     6D50       AE        4       0
                text19                             5F3E     5F3E      146        4       0
                text18                             6EAA     6EAA       AC        4       0
                text17                             844C     844C       72        4       0
                text16                             6CA0     6CA0       B0        4       0
                text15                             82EA     82EA       78        4       0
                text14                             87B8     87B8       66     43A8       0
                text13                             83DA     83DA       72        4       0
                text12                             713C     713C       A2        4       0
                text11                             709A     709A       A2        4       0
                text10                             6FF8     6FF8       A2        4       0
                text9                              6F56     6F56       A2        4       0
                text8                              7596     7596       98        4       0
                text7                              6DFE     6DFE       AC        4       0
                text6                              95C2     95C2        E     43A8       0
                text5                              67BA     67BA       E2        4       0
                text4                              94B2     94B2       22     43A8       0
                text3                              94D4     94D4       20     43A8       0
                text2                              881E     881E       64     43A8       0
                text1                              95B2     95B2       10     43A8       0
                text0                              6B1C     6B1C       CC        4       0
                cstackCOMRAM                          1        1       31        1       1
                cstackBANK0                          60       60       70       60       1
                cstackBANK1                         187      187       50      100       1
                dataBANK3                           300      300       69      300       1
                dataBANK2                           2AC      2AC       50      200       1
                bssBANK2                            200      200       AC      200       1
                dataBANK1                           1D7      1D7       28      100       1
                bssBANK1                            100      100       87      100       1
                dataBANK0                            F7       F7        9       60       1
                bssBANK0                             D0       D0       27       60       1
                dataCOMRAM                           5B       5B        4        1       1
                bssCOMRAM                            37       37       24        1       1
                bitbssCOMRAM                        190       32       26        1       1     8
                cinit                              65EC     65EC       E8        4       0
                idataBANK3                         86E6     86E6       69        4       0
                idataBANK2                         8DD0     8DD0       50     43A8       0
                idataBANK1                         93EC     93EC       28     43A8       0
                idataBANK0                         95D0     95D0        9     43A8       0
                idataCOMRAM                        95F2     95F2        4     4AED       0

TOTAL           Name                               Link     Load   Length     Space
        CLASS   STACK          

        CLASS   CODE           
                intcode                               8        8        6         0
                init                                  E        E        4         0
                reset_vec                             0        0        4         0
                text155                            7B88     7B88       84         0
                text154                            85A0     85A0       70         0
                text153                            4198     4198      2A8         0
                text152                            64F2     64F2       FA         0
                text151                            957A     957A       14         0
                text150                            7D0E     7D0E       80         0
                text149                            62D4     62D4      11A         0
                text148                            9530     9530       1C         0
                text147                            74FC     74FC       9A         0
                text146                            913A     913A       3C         0
                text145                            8B14     8B14       5C         0
                text144                            8CD2     8CD2       56         0
                text143                            8D7C     8D7C       54         0
                text142                            8BCA     8BCA       5A         0
                text141                            7C0C     7C0C       82         0
                text140                             A42      A42      70A         0
                text139                            93C2     93C2       2A         0
                text138                            95A0     95A0       12         0
                intcode_body                       51CE     51CE      198         0
                text136                            9566     9566       14         0
                text135                            92E2     92E2       30         0
                text134                            948C     948C       26         0
                text133                            7756     7756       8C         0
                text132                            91AE     91AE       38         0
                text131                            364E     364E      33E         0
                text130                            32FC     32FC      352         0
                text129                            92B2     92B2       30         0
                text128                            689C     689C       DE         0
                text127                            5DEA     5DEA      154         0
                text126                            6A4E     6A4E       CE         0
                text125                            8C24     8C24       58         0
                text124                            66D4     66D4       E6         0
                text123                            9512     9512       1E         0
                text122                            7322     7322       A2         0
                text121                            921A     921A       34         0
                text120                            91E6     91E6       34         0
                text119                            3EF0     3EF0      2A8         0
                text118                            114C     114C      600         0
                text117                            95EC     95EC        6         0
                text116                            95E6     95E6        6         0
                text115                            95E0     95E0        6         0
                text114                            81F4     81F4       7C         0
                text113                            8F92     8F92       40         0
                text112                            5B2A     5B2A      162         0
                text111                            958E     958E       12         0
                text110                            9398     9398       2A         0
                text109                            4440     4440      2A6         0
                text108                            9176     9176       38         0
                text107                            8C7C     8C7C       56         0
                text106                            1C66     1C66      516         0
                text105                            7F86     7F86       7E         0
                text104                            90FE     90FE       3C         0
                text103                            8362     8362       78         0
                text102                            9280     9280       32         0
                text101                            90C2     90C2       3C         0
                text100                            8882     8882       62         0
                text99                             84BE     84BE       72         0
                text98                             8AB8     8AB8       5C         0
                text97                             8A5C     8A5C       5C         0
                text96                             7B04     7B04       84         0
                text95                             8178     8178       7C         0
                text94                             94F4     94F4       1E         0
                text93                             8944     8944       60         0
                text92                             581C     581C      18E         0
                text91                             59AA     59AA      180         0
                text90                             63EE     63EE      104         0
                text89                             174C     174C      51A         0
                text88                             54FA     54FA      192         0
                text87                             4944     4944      25C         0
                text86                             568C     568C      190         0
                text85                             46E6     46E6      25E         0
                text84                             2AD4     2AD4      426         0
                text83                             2EFA     2EFA      402         0
                text82                             5366     5366      194         0
                text81                             3C42     3C42      2AE         0
                text80                             8610     8610       6C         0
                text79                             9464     9464       28         0
                text78                             924E     924E       32         0
                text77                             2674     2674      460         0
                text76                             8D28     8D28       54         0
                text75                             7F08     7F08       7E         0
                text74                             4DD8     4DD8      202         0
                text73                             954C     954C       1A         0
                text72                             95DA     95DA        6         0
                text71                             8F50     8F50       42         0
                text70                             4FDA     4FDA      1F4         0
                text69                             8F06     8F06       4A         0
                text68                             9312     9312       2E         0
                text67                             7A80     7A80       84         0
                text66                             80FC     80FC       7C         0
                text65                             8B70     8B70       5A         0
                text64                             943C     943C       28         0
                text63                             9414     9414       28         0
                text62                               12       12      A30         0
                text61                             8080     8080       7C         0
                text60                             8004     8004       7C         0
                text59                             79FC     79FC       84         0
                text58                             7E8A     7E8A       7E         0
                text57                             7C8E     7C8E       80         0
                text56                             76C2     76C2       94         0
                text55                             78F2     78F2       86         0
                text54                             697A     697A       D4         0
                text53                             61AC     61AC      128         0
                text52                             6084     6084      128         0
                text51                             786A     786A       88         0
                text50                             936C     936C       2C         0
                text49                             77E2     77E2       88         0
                text48                             398C     398C      2B6         0
                text47                             8EBC     8EBC       4A         0
                text46                             88E4     88E4       60         0
                text45                             217C     217C      4F8         0
                text44                             8270     8270       7A         0
                text43                             7E0C     7E0C       7E         0
                text42                             7D8E     7D8E       7E         0
                text41                             7978     7978       84         0
                text40                             8E6E     8E6E       4E         0
                text39                             8E20     8E20       4E         0
                text38                             8530     8530       70         0
                text37                             9340     9340       2C         0
                text36                             867C     867C       6A         0
                text35                             9086     9086       3C         0
                text34                             904A     904A       3C         0
                text33                             7280     7280       A2         0
                text32                             900E     900E       3C         0
                text31                             5C8C     5C8C      15E         0
                text30                             4BA0     4BA0      238         0
                text29                             71DE     71DE       A2         0
                text28                             8A00     8A00       5C         0
                text27                             8FD2     8FD2       3C         0
                text26                             73C4     73C4       9E         0
                text25                             762E     762E       94         0
                text24                             7462     7462       9A         0
                text23                             8750     8750       68         0
                text22                             89A4     89A4       5C         0
                text21                             6BE8     6BE8       B8         0
                text20                             6D50     6D50       AE         0
                text19                             5F3E     5F3E      146         0
                text18                             6EAA     6EAA       AC         0
                text17                             844C     844C       72         0
                text16                             6CA0     6CA0       B0         0
                text15                             82EA     82EA       78         0
                text14                             87B8     87B8       66         0
                text13                             83DA     83DA       72         0
                text12                             713C     713C       A2         0
                text11                             709A     709A       A2         0
                text10                             6FF8     6FF8       A2         0
                text9                              6F56     6F56       A2         0
                text8                              7596     7596       98         0
                text7                              6DFE     6DFE       AC         0
                text6                              95C2     95C2        E         0
                text5                              67BA     67BA       E2         0
                text4                              94B2     94B2       22         0
                text3                              94D4     94D4       20         0
                text2                              881E     881E       64         0
                text1                              95B2     95B2       10         0
                text0                              6B1C     6B1C       CC         0
                cinit                              65EC     65EC       E8         0
                idataBANK3                         86E6     86E6       69         0
                idataBANK2                         8DD0     8DD0       50         0
                idataBANK1                         93EC     93EC       28         0
                idataBANK0                         95D0     95D0        9         0
                idataCOMRAM                        95F2     95F2        4         0

        CLASS   CONST          

        CLASS   SMALLCONST     

        CLASS   MEDIUMCONST    
                mediumconst                        E8C2     E8C2     173E         0

        CLASS   COMRAM         
                temp                                 5F       5F        1         1
                cstackCOMRAM                          1        1       31         1
                dataCOMRAM                           5B       5B        4         1
                bssCOMRAM                            37       37       24         1
                bitbssCOMRAM                        190       32       26         1

        CLASS   ABS1           

        CLASS   BIGRAM         

        CLASS   RAM            

        CLASS   BANK0          
                cstackBANK0                          60       60       70         1
                dataBANK0                            F7       F7        9         1
                bssBANK0                             D0       D0       27         1

        CLASS   BANK1          
                cstackBANK1                         187      187       50         1
                dataBANK1                           1D7      1D7       28         1
                bssBANK1                            100      100       87         1

        CLASS   BANK2          
                dataBANK2                           2AC      2AC       50         1
                bssBANK2                            200      200       AC         1

        CLASS   BANK3          
                dataBANK3                           300      300       69         1

        CLASS   BANK4          

        CLASS   BANK5          

        CLASS   BANK6          

        CLASS   BANK7          

        CLASS   BANK8          

        CLASS   BANK9          

        CLASS   BANK10         

        CLASS   BANK11         

        CLASS   BANK12         

        CLASS   SFR            

        CLASS   FARRAM         

        CLASS   CONFIG         
                config                           300000   300000        E         0

        CLASS   IDLOC          
                idloc                            200000   200000        8         0

        CLASS   EEDATA         
                eeprom_data                      F00000   F00000        8         0



SEGMENTS        Name                           Load    Length   Top    Selector   Space  Class

                reset_vec                      000000  000004  000004         0       0  CODE    
                cstackCOMRAM                   000001  00005F  000060         1       1  COMRAM  
                intcode                        000008  008747  00874F         4       0  CODE    
                cstackBANK0                    000060  0000A0  000100        60       1  BANK0   
                bssBANK1                       000100  0000FF  0001FF       100       1  BANK1   
                bssBANK2                       000200  0000FC  0002FC       200       1  BANK2   
                dataBANK3                      000300  000069  000369       300       1  BANK3   
                text23                         008750  000E89  0095D9      43A8       0  CODE    
                text72                         0095DA  00001C  0095F6      4AED       0  CODE    
                mediumconst                    00E8C2  00173E  010000      7461       0  MEDIUMCO
                idloc                          200000  000008  200008    200000       0  IDLOC   
                config                         300000  00000E  30000E    300000       0  CONFIG  
                eeprom_data                    F00000  000008  F00008    F00000       0  EEDATA  


UNUSED ADDRESS RANGES

        Name                Unused          Largest block    Delta
        BANK1            0001FF-0001FF                1
        BANK10           000A00-000AFF              100
        BANK11           000B00-000BFF              100
        BANK12           000C00-000CFF              100
        BANK2            0002FC-0002FF                4
        BANK3            000369-0003FF               97
        BANK4            000400-0004FF              100
        BANK5            000500-0005FF              100
        BANK6            000600-0006FF              100
        BANK7            000700-0007FF              100
        BANK8            000800-0008FF              100
        BANK9            000900-0009FF              100
        BIGRAM           0001FF-0001FF                1
                         0002FC-0002FF                4
                         000369-000CFF              997
        CODE             000004-000007                4
                         00874F-00874F                1
                         0095D9-0095D9                1
                         0095F6-00E8C1             52CC
        CONST            000004-000007                4
                         00874F-00874F                1
                         0095D9-0095D9                1
                         0095F6-00E8C1             52CC
        EEDATA           F00008-F003FF              3F8
        MEDIUMCONST      00874F-00874F                1
                         0095D9-0095D9                1
                         0095F6-00E8C1             52CC
        RAM              0001FF-0001FF                1
                         0002FC-0002FF                4
                         000369-000CFF              100
        SFR              000D00-000FFF              100
        SMALLCONST       00874F-00874F                1
                         0095D9-0095D9                1
                         0095F6-00E8C1              100
        STACK            000369-000CFF              997

                                  Symbol Table

?_ADC_Read                                        cstackBANK0  000060
?___aldiv                                         cstackBANK0  00006C
?___awdiv                                         cstackBANK0  000060
?___awmod                                         cstackBANK0  00006E
?___fladd                                         cstackBANK0  0000A4
?___fldiv                                         cstackBANK0  000087
?___flmul                                         cstackBANK0  00006E
?___flneg                                         cstackBANK0  0000A0
?___fltol                                         cstackBANK0  0000B8
?___lmul                                          cstackBANK0  000060
?___wmul                                          cstackBANK0  000064
?___xxtofl                                        cstackBANK0  000060
?_calculate_pulse_length                          cstackBANK0  0000C2
?_map                                             cstackBANK0  00007A
?_rand                                            cstackBANK0  00006C
?i2___awdiv                                       cstackCOMRAM 000001
?i2___awmod                                       cstackCOMRAM 00000F
?i2___lmul                                        cstackCOMRAM 000001
?i2_rand                                          cstackCOMRAM 00000D
ADC_Read@adc_channel                              cstackBANK0  000064
Function_C_2@array_index                          cstackBANK0  00007B
Function_C_3@array_index                          cstackBANK0  00007B
Function_D_3@array_index                          cstackBANK0  00007D
Function_D_4@array_index                          cstackBANK0  00007D
Function_D_5@array_index                          cstackBANK0  00007D
Function_H_5@i                                    cstackBANK0  000071
Lcd_Cmd@a                                         cstackBANK0  000062
Lcd_Print_Char@Lower_Nibble                       cstackBANK0  000061
Lcd_Print_Char@Upper_Nibble                       cstackBANK0  000062
Lcd_Print_Char@data                               cstackBANK0  000063
Lcd_Print_Char@i                                  cstackBANK0  000064
Lcd_Print_Char@i_57                               cstackBANK0  000066
Lcd_Print_String@a                                cstackBANK0  00006A
Lcd_Print_String@i                                cstackBANK0  00006E
Lcd_SetBit@data_bit                               cstackBANK0  000060
Lcd_Set_Cursor@a                                  cstackBANK0  000064
Lcd_Set_Cursor@b                                  cstackBANK0  000063
Lcd_Set_Cursor@temp                               cstackBANK0  000067
Lcd_Set_Cursor@y                                  cstackBANK0  000066
Lcd_Set_Cursor@z                                  cstackBANK0  000065
Lcd_Start@i                                       cstackBANK0  000064
Read_b_eep@badd                                   cstackBANK0  000060
Write_b_eep@GIE_BIT_VAL                           cstackBANK0  000063
Write_b_eep@badd                                  cstackBANK0  000060
Write_b_eep@bdat                                  cstackBANK0  000062
_ADCON0                                           (abs)        000FC2
_ADCON1                                           (abs)        000FC1
_ADCON2                                           (abs)        000FC0
_ADC_Initialize                                   text136      009566
_ADC_Read                                         text132      0091AE
_ADON                                             (abs)        007E10
_ADRESH                                           (abs)        000FC4
_ADRESL                                           (abs)        000FC3
_ARPEGGIO                                         bssBANK1     000172
_ARPEGGIO_ON                                      bitbssCOMRAM 0001AB
_ARPEGGIO_RANDOM                                  bssBANK2     00028C
_ARPEGGIO_SORTED                                  bssBANK2     00029C
_ARPEGGIO_TYPE                                    bssBANK0     0000EA
_ARRAY_INDEX                                      bssBANK0     0000E4
_AUTO_LATCH                                       bitbssCOMRAM 0001A6
_AUTO_RANDOMIZE                                   bitbssCOMRAM 0001A4
_BPM                                              dataBANK0    0000FF
_BRGH                                             (abs)        007D62
_Busy_eep                                         text72       0095DA
_CMCON                                            (abs)        000FB4
_CONTROL_MODE                                     bitbssCOMRAM 000193
_CREN                                             (abs)        007D5C
_DIGIT_MODE                                       bssCOMRAM    000059
_DISPLAY_MODE                                     bssCOMRAM    00005A
_DISPLAY_STEP_NUMBER                              bitbssCOMRAM 000195
_DRUM_CC                                          dataBANK1    0001D7
_DRUM_MODE                                        bitbssCOMRAM 000194
_DRUM_NOTE                                        dataBANK1    0001DF
_EEADR                                            (abs)        000FA9
_EEADRH                                           (abs)        000FAA
_EECON1bits                                       (abs)        000FA6
_EECON2                                           (abs)        000FA7
_EEDATA                                           (abs)        000FA8
_Function_A                                       text58       007E8A
_Function_A_1                                     text61       008080
_Function_A_2                                     text60       008004
_Function_A_3                                     text59       0079FC
_Function_B                                       text57       007C8E
_Function_C                                       text51       00786A
_Function_C_1                                     text56       0076C2
_Function_C_2                                     text53       0061AC
_Function_C_3                                     text52       006084
_Function_D                                       text41       007978
_Function_D_1                                     text49       0077E2
_Function_D_2                                     text46       0088E4
_Function_D_3                                     text44       008270
_Function_D_4                                     text43       007E0C
_Function_D_5                                     text42       007D8E
_Function_E                                       text38       008530
_Function_E_1                                     text40       008E6E
_Function_E_2                                     text39       008E20
_Function_F                                       text36       00867C
_Function_G                                       text25       00762E
_Function_G_1                                     text33       007280
_Function_G_2                                     text29       0071DE
_Function_G_3                                     text28       008A00
_Function_G_4                                     text26       0073C4
_Function_H                                       text7        006DFE
_Function_H_1                                     text24       007462
_Function_H_2                                     text23       008750
_Function_H_3                                     text22       0089A4
_Function_H_4                                     text21       006BE8
_Function_H_5                                     text20       006D50
_Function_H_6                                     text17       00844C
_Function_H_6_1                                   text19       005F3E
_Function_H_6_2                                   text18       006EAA
_Function_H_7                                     text16       006CA0
_Function_H_8                                     text13       0083DA
_Function_H_8_1                                   text15       0082EA
_Function_H_8_2                                   text14       0087B8
_Function_H_9                                     text8        007596
_Function_H_9_1                                   text12       00713C
_Function_H_9_2                                   text11       00709A
_Function_H_9_3                                   text10       006FF8
_Function_H_9_4                                   text9        006F56
_GIE                                              (abs)        007F97
_GO_nDONE                                         (abs)        007E11
_HYST_VAL                                         dataBANK1    0001EB
_INT0IE                                           (abs)        007F94
_INT0IF                                           (abs)        007F91
_INTCONbits                                       (abs)        000FF2
_INTEDG0                                          (abs)        007F8E
_IPEN                                             (abs)        007E87
_ISR                                              intcode      000008
_KEYBOARD_MODE                                    bssBANK0     0000F2
_LAST_NOTE_MODE_KEY_PRESS                         bitbssCOMRAM 0001A1
_LAST_NOTE_MODE_KEY_RELEASE                       bitbssCOMRAM 0001A0
_LAST_NOTE_MODE_RESET                             bitbssCOMRAM 00019E
_LAST_NOTE_MODE_TRANSPOSE                         bitbssCOMRAM 00019F
_LATCH                                            bitbssCOMRAM 0001A8
_LCD_STRINGS                                      mediumconst  00F39E
_Lcd_Clear                                        text6        0095C2
_Lcd_Cmd                                          text134      00948C
_Lcd_Print_Char                                   text67       007A80
_Lcd_Print_String                                 text66       0080FC
_Lcd_SetBit                                       text135      0092E2
_Lcd_Set_Cursor                                   text65       008B70
_Lcd_Start                                        text133      007756
_MAX_NUM_NOTES                                    mediumconst  00F39D
_NOTE_LENGTH_PULSES                               dataBANK0    0000F7
_NOTE_LENGTH_PULSES_ARRAY                         dataBANK2    0002DC
_NUM_NOTES_PRESSED                                bssBANK0     0000E5
_OCTAVES                                          dataBANK0    0000F8
_ON_OFF                                           bitbssCOMRAM 0001B4
_PEIE                                             (abs)        007F96
_PORTA                                            (abs)        000F80
_PORTB                                            (abs)        000F81
_PORTC                                            (abs)        000F82
_PORTD                                            (abs)        000F83
_PORTE                                            (abs)        000F84
_POT_MODE                                         bitbssCOMRAM 0001B3
_PPQN                                             dataCOMRAM   00005E
_PRESCALER                                        dataCOMRAM   00005D
_PSA                                              (abs)        007EAB
_RA5                                              (abs)        007C05
_RB0                                              (abs)        007C08
_RB1                                              (abs)        007C09
_RB2                                              (abs)        007C0A
_RB4                                              (abs)        007C0C
_RB5                                              (abs)        007C0D
_RBIE                                             (abs)        007F93
_RBIF                                             (abs)        007F90
_RC0                                              (abs)        007C10
_RC1                                              (abs)        007C11
_RC2                                              (abs)        007C12
_RC3                                              (abs)        007C13
_RC4                                              (abs)        007C14
_RC5                                              (abs)        007C15
_RD4                                              (abs)        007C1C
_RD5                                              (abs)        007C1D
_RD6                                              (abs)        007C1E
_RD7                                              (abs)        007C1F
_RE0                                              (abs)        007C20
_RE1                                              (abs)        007C21
_RE2                                              (abs)        007C22
_RESET_ON_KEY_PRESS                               bitbssCOMRAM 0001AA
_RESET_ON_KEY_RELEASE                             bitbssCOMRAM 0001A9
_Read_b_eep                                       text73       00954C
_SORT_DIRECTION                                   bitbssCOMRAM 0001AC
_SPBRG                                            (abs)        000FAF
_SPEN                                             (abs)        007D5F
_SYNC                                             (abs)        007D64
_T08BIT                                           (abs)        007EAE
_T0CON                                            (abs)        000FD5
_T0CS                                             (abs)        007EAD
_T2CON                                            (abs)        000FCA
_TIMER_OVERFLOWS                                  bssCOMRAM    000054
_TIMER_PRELOAD                                    bssBANK1     00016D
_TMR0                                             (abs)        000FD6
_TMR0IE                                           (abs)        007F95
_TMR0IF                                           (abs)        007F92
_TMR0ON                                           (abs)        007EAF
_TMR2                                             (abs)        000FCC
_TMR2IE                                           (abs)        007CE9
_TMR2IF                                           (abs)        007CF1
_TMR2ON                                           (abs)        007E52
_TRANSPOSE_MODE                                   bitbssCOMRAM 0001AD
_TRISA                                            (abs)        000F92
_TRISB                                            (abs)        000F93
_TRISC                                            (abs)        000F94
_TRISD                                            (abs)        000F95
_TRISE                                            (abs)        000F96
_TXEN                                             (abs)        007D65
_TXIF                                             (abs)        007CF4
_TXREG                                            (abs)        000FAD
_UN_LATCH_MODE                                    bitbssCOMRAM 0001A7
_Write_b_eep                                      text71       008F50
__CFG_BBSIZ$1024                                  (abs)        000000
__CFG_BOREN$OFF                                   (abs)        000000
__CFG_BORV$3                                      (abs)        000000
__CFG_CP0$OFF                                     (abs)        000000
__CFG_CP1$OFF                                     (abs)        000000
__CFG_CP2$OFF                                     (abs)        000000
__CFG_CP3$OFF                                     (abs)        000000
__CFG_CPB$OFF                                     (abs)        000000
__CFG_CPD$OFF                                     (abs)        000000
__CFG_EBTR0$OFF                                   (abs)        000000
__CFG_EBTR1$OFF                                   (abs)        000000
__CFG_EBTR2$OFF                                   (abs)        000000
__CFG_EBTR3$OFF                                   (abs)        000000
__CFG_EBTRB$OFF                                   (abs)        000000
__CFG_FCMEN$OFF                                   (abs)        000000
__CFG_IESO$OFF                                    (abs)        000000
__CFG_LPT1OSC$OFF                                 (abs)        000000
__CFG_LVP$OFF                                     (abs)        000000
__CFG_MCLRE$ON                                    (abs)        000000
__CFG_OSC$HS                                      (abs)        000000
__CFG_PBADEN$OFF                                  (abs)        000000
__CFG_PWRT$OFF                                    (abs)        000000
__CFG_STVREN$OFF                                  (abs)        000000
__CFG_WDT$OFF                                     (abs)        000000
__CFG_WDTPS$32768                                 (abs)        000000
__CFG_WRT0$OFF                                    (abs)        000000
__CFG_WRT1$OFF                                    (abs)        000000
__CFG_WRT2$OFF                                    (abs)        000000
__CFG_WRT3$OFF                                    (abs)        000000
__CFG_WRTB$OFF                                    (abs)        000000
__CFG_WRTC$OFF                                    (abs)        000000
__CFG_WRTD$OFF                                    (abs)        000000
__CFG_XINST$OFF                                   (abs)        000000
__HRAM                                            (abs)        000000
__Habs1                                           abs1         000000
__Hbank0                                          bank0        000000
__Hbank1                                          bank1        000000
__Hbank10                                         bank10       000000
__Hbank11                                         bank11       000000
__Hbank12                                         bank12       000000
__Hbank2                                          bank2        000000
__Hbank3                                          bank3        000000
__Hbank4                                          bank4        000000
__Hbank5                                          bank5        000000
__Hbank6                                          bank6        000000
__Hbank7                                          bank7        000000
__Hbank8                                          bank8        000000
__Hbank9                                          bank9        000000
__Hbigbss                                         bigbss       000000
__Hbigdata                                        bigdata      000000
__Hbigram                                         bigram       000000
__HbitbssCOMRAM                                   bitbssCOMRAM 000000
__Hbss                                            bss          000000
__HbssBANK0                                       bssBANK0     000000
__HbssBANK1                                       bssBANK1     000000
__HbssBANK2                                       bssBANK2     000000
__HbssCOMRAM                                      bssCOMRAM    000000
__Hcinit                                          cinit        000000
__Hclrtext                                        clrtext      000000
__Hcomram                                         comram       000000
__Hconfig                                         config       30000E
__Hconst                                          const        000000
__HcstackBANK0                                    cstackBANK0  000000
__HcstackBANK1                                    cstackBANK1  000000
__HcstackCOMRAM                                   cstackCOMRAM 000000
__Hdata                                           data         000000
__HdataBANK0                                      dataBANK0    000000
__HdataBANK1                                      dataBANK1    000000
__HdataBANK2                                      dataBANK2    000000
__HdataBANK3                                      dataBANK3    000000
__HdataCOMRAM                                     dataCOMRAM   000000
__Heeprom_data                                    eeprom_data  F00008
__Hfarbss                                         farbss       000000
__Hfardata                                        fardata      000000
__Hibigdata                                       ibigdata     000000
__Hidata                                          idata        000000
__HidataBANK0                                     idataBANK0   000000
__HidataBANK1                                     idataBANK1   000000
__HidataBANK2                                     idataBANK2   000000
__HidataBANK3                                     idataBANK3   000000
__HidataCOMRAM                                    idataCOMRAM  000000
__Hidloc                                          idloc        200008
__Hifardata                                       ifardata     000000
__Hinit                                           init         000012
__Hintcode                                        intcode      00000E
__Hintcode_body                                   intcode_body 000000
__Hintcodelo                                      intcodelo    00000E
__Hintentry                                       intentry     000000
__Hintret                                         intret       000000
__Hintsave_regs                                   intsave_regs 000000
__Hirdata                                         irdata       000000
__Hmediumconst                                    mediumconst  010000
__HnvFARRAM                                       nvFARRAM     000000
__Hnvbit                                          nvbit        000000
__Hnvrram                                         nvrram       000000
__Hparam                                          rparam       000000
__Hpowerup                                        powerup      00000E
__Hram                                            ram          000000
__Hramtop                                         ramtop       000D00
__Hrbit                                           rbit         000000
__Hrbss                                           rbss         000000
__Hrdata                                          rdata        000000
__Hreset_vec                                      reset_vec    000004
__Hrparam                                         rparam       000000
__Hsfr                                            sfr          000000
__Hsmallconst                                     smallconst   000000
__Hspace_0                                        (abs)        F00008
__Hspace_1                                        (abs)        000369
__Hspace_2                                        (abs)        000000
__Hstack                                          stack        000000
__Hstruct                                         struct       000000
__Htemp                                           temp         000060
__Htext                                           text         000000
__Htext0                                          text0        000000
__Htext1                                          text1        000000
__Htext10                                         text10       000000
__Htext100                                        text100      000000
__Htext101                                        text101      000000
__Htext102                                        text102      000000
__Htext103                                        text103      000000
__Htext104                                        text104      000000
__Htext105                                        text105      000000
__Htext106                                        text106      000000
__Htext107                                        text107      000000
__Htext108                                        text108      000000
__Htext109                                        text109      000000
__Htext11                                         text11       000000
__Htext110                                        text110      000000
__Htext111                                        text111      000000
__Htext112                                        text112      000000
__Htext113                                        text113      000000
__Htext114                                        text114      000000
__Htext115                                        text115      000000
__Htext116                                        text116      000000
__Htext117                                        text117      000000
__Htext118                                        text118      000000
__Htext119                                        text119      000000
__Htext12                                         text12       000000
__Htext120                                        text120      000000
__Htext121                                        text121      000000
__Htext122                                        text122      000000
__Htext123                                        text123      000000
__Htext124                                        text124      000000
__Htext125                                        text125      000000
__Htext126                                        text126      000000
__Htext127                                        text127      000000
__Htext128                                        text128      000000
__Htext129                                        text129      000000
__Htext13                                         text13       000000
__Htext130                                        text130      000000
__Htext131                                        text131      000000
__Htext132                                        text132      000000
__Htext133                                        text133      000000
__Htext134                                        text134      000000
__Htext135                                        text135      000000
__Htext136                                        text136      000000
__Htext138                                        text138      000000
__Htext139                                        text139      000000
__Htext14                                         text14       000000
__Htext140                                        text140      000000
__Htext141                                        text141      000000
__Htext142                                        text142      000000
__Htext143                                        text143      000000
__Htext144                                        text144      000000
__Htext145                                        text145      000000
__Htext146                                        text146      000000
__Htext147                                        text147      000000
__Htext148                                        text148      000000
__Htext149                                        text149      000000
__Htext15                                         text15       000000
__Htext150                                        text150      000000
__Htext151                                        text151      000000
__Htext152                                        text152      000000
__Htext153                                        text153      000000
__Htext154                                        text154      000000
__Htext155                                        text155      000000
__Htext16                                         text16       000000
__Htext17                                         text17       000000
__Htext18                                         text18       000000
__Htext19                                         text19       000000
__Htext2                                          text2        000000
__Htext20                                         text20       000000
__Htext21                                         text21       000000
__Htext22                                         text22       000000
__Htext23                                         text23       000000
__Htext24                                         text24       000000
__Htext25                                         text25       000000
__Htext26                                         text26       000000
__Htext27                                         text27       000000
__Htext28                                         text28       000000
__Htext29                                         text29       000000
__Htext3                                          text3        000000
__Htext30                                         text30       000000
__Htext31                                         text31       000000
__Htext32                                         text32       000000
__Htext33                                         text33       000000
__Htext34                                         text34       000000
__Htext35                                         text35       000000
__Htext36                                         text36       000000
__Htext37                                         text37       000000
__Htext38                                         text38       000000
__Htext39                                         text39       000000
__Htext4                                          text4        000000
__Htext40                                         text40       000000
__Htext41                                         text41       000000
__Htext42                                         text42       000000
__Htext43                                         text43       000000
__Htext44                                         text44       000000
__Htext45                                         text45       000000
__Htext46                                         text46       000000
__Htext47                                         text47       000000
__Htext48                                         text48       000000
__Htext49                                         text49       000000
__Htext5                                          text5        000000
__Htext50                                         text50       000000
__Htext51                                         text51       000000
__Htext52                                         text52       000000
__Htext53                                         text53       000000
__Htext54                                         text54       000000
__Htext55                                         text55       000000
__Htext56                                         text56       000000
__Htext57                                         text57       000000
__Htext58                                         text58       000000
__Htext59                                         text59       000000
__Htext6                                          text6        000000
__Htext60                                         text60       000000
__Htext61                                         text61       000000
__Htext62                                         text62       000000
__Htext63                                         text63       000000
__Htext64                                         text64       000000
__Htext65                                         text65       000000
__Htext66                                         text66       000000
__Htext67                                         text67       000000
__Htext68                                         text68       000000
__Htext69                                         text69       000000
__Htext7                                          text7        000000
__Htext70                                         text70       000000
__Htext71                                         text71       000000
__Htext72                                         text72       000000
__Htext73                                         text73       000000
__Htext74                                         text74       000000
__Htext75                                         text75       000000
__Htext76                                         text76       000000
__Htext77                                         text77       000000
__Htext78                                         text78       000000
__Htext79                                         text79       000000
__Htext8                                          text8        000000
__Htext80                                         text80       000000
__Htext81                                         text81       000000
__Htext82                                         text82       000000
__Htext83                                         text83       000000
__Htext84                                         text84       000000
__Htext85                                         text85       000000
__Htext86                                         text86       000000
__Htext87                                         text87       000000
__Htext88                                         text88       000000
__Htext89                                         text89       000000
__Htext9                                          text9        000000
__Htext90                                         text90       000000
__Htext91                                         text91       000000
__Htext92                                         text92       000000
__Htext93                                         text93       000000
__Htext94                                         text94       000000
__Htext95                                         text95       000000
__Htext96                                         text96       000000
__Htext97                                         text97       000000
__Htext98                                         text98       000000
__Htext99                                         text99       000000
__LRAM                                            (abs)        000001
__Labs1                                           abs1         000000
__Lbank0                                          bank0        000000
__Lbank1                                          bank1        000000
__Lbank10                                         bank10       000000
__Lbank11                                         bank11       000000
__Lbank12                                         bank12       000000
__Lbank2                                          bank2        000000
__Lbank3                                          bank3        000000
__Lbank4                                          bank4        000000
__Lbank5                                          bank5        000000
__Lbank6                                          bank6        000000
__Lbank7                                          bank7        000000
__Lbank8                                          bank8        000000
__Lbank9                                          bank9        000000
__Lbigbss                                         bigbss       000000
__Lbigdata                                        bigdata      000000
__Lbigram                                         bigram       000000
__LbitbssCOMRAM                                   bitbssCOMRAM 000000
__Lbss                                            bss          000000
__LbssBANK0                                       bssBANK0     000000
__LbssBANK1                                       bssBANK1     000000
__LbssBANK2                                       bssBANK2     000000
__LbssCOMRAM                                      bssCOMRAM    000000
__Lcinit                                          cinit        000000
__Lclrtext                                        clrtext      000000
__Lcomram                                         comram       000000
__Lconfig                                         config       300000
__Lconst                                          const        000000
__LcstackBANK0                                    cstackBANK0  000000
__LcstackBANK1                                    cstackBANK1  000000
__LcstackCOMRAM                                   cstackCOMRAM 000000
__Ldata                                           data         000000
__LdataBANK0                                      dataBANK0    000000
__LdataBANK1                                      dataBANK1    000000
__LdataBANK2                                      dataBANK2    000000
__LdataBANK3                                      dataBANK3    000000
__LdataCOMRAM                                     dataCOMRAM   000000
__Leeprom_data                                    eeprom_data  F00000
__Lfarbss                                         farbss       000000
__Lfardata                                        fardata      000000
__Libigdata                                       ibigdata     000000
__Lidata                                          idata        000000
__LidataBANK0                                     idataBANK0   000000
__LidataBANK1                                     idataBANK1   000000
__LidataBANK2                                     idataBANK2   000000
__LidataBANK3                                     idataBANK3   000000
__LidataCOMRAM                                    idataCOMRAM  000000
__Lidloc                                          idloc        200000
__Lifardata                                       ifardata     000000
__Linit                                           init         00000E
__Lintcode                                        intcode      000008
__Lintcode_body                                   intcode_body 000000
__Lintcodelo                                      intcodelo    00000E
__Lintentry                                       intentry     000000
__Lintret                                         intret       000000
__Lintsave_regs                                   intsave_regs 000000
__Lirdata                                         irdata       000000
__Lmediumconst                                    mediumconst  00E8C2
__LnvFARRAM                                       nvFARRAM     000000
__Lnvbit                                          nvbit        000000
__Lnvrram                                         nvrram       000000
__Lparam                                          rparam       000000
__Lpowerup                                        powerup      00000E
__Lram                                            ram          000000
__Lramtop                                         ramtop       000D00
__Lrbit                                           rbit         000000
__Lrbss                                           rbss         000000
__Lrdata                                          rdata        000000
__Lreset_vec                                      reset_vec    000000
__Lrparam                                         rparam       000000
__Lsfr                                            sfr          000000
__Lsmallconst                                     smallconst   000000
__Lspace_0                                        (abs)        000000
__Lspace_1                                        (abs)        000000
__Lspace_2                                        (abs)        000000
__Lstack                                          stack        000000
__Lstruct                                         struct       000000
__Ltemp                                           temp         00005F
__Ltext                                           text         000000
__Ltext0                                          text0        000000
__Ltext1                                          text1        000000
__Ltext10                                         text10       000000
__Ltext100                                        text100      000000
__Ltext101                                        text101      000000
__Ltext102                                        text102      000000
__Ltext103                                        text103      000000
__Ltext104                                        text104      000000
__Ltext105                                        text105      000000
__Ltext106                                        text106      000000
__Ltext107                                        text107      000000
__Ltext108                                        text108      000000
__Ltext109                                        text109      000000
__Ltext11                                         text11       000000
__Ltext110                                        text110      000000
__Ltext111                                        text111      000000
__Ltext112                                        text112      000000
__Ltext113                                        text113      000000
__Ltext114                                        text114      000000
__Ltext115                                        text115      000000
__Ltext116                                        text116      000000
__Ltext117                                        text117      000000
__Ltext118                                        text118      000000
__Ltext119                                        text119      000000
__Ltext12                                         text12       000000
__Ltext120                                        text120      000000
__Ltext121                                        text121      000000
__Ltext122                                        text122      000000
__Ltext123                                        text123      000000
__Ltext124                                        text124      000000
__Ltext125                                        text125      000000
__Ltext126                                        text126      000000
__Ltext127                                        text127      000000
__Ltext128                                        text128      000000
__Ltext129                                        text129      000000
__Ltext13                                         text13       000000
__Ltext130                                        text130      000000
__Ltext131                                        text131      000000
__Ltext132                                        text132      000000
__Ltext133                                        text133      000000
__Ltext134                                        text134      000000
__Ltext135                                        text135      000000
__Ltext136                                        text136      000000
__Ltext138                                        text138      000000
__Ltext139                                        text139      000000
__Ltext14                                         text14       000000
__Ltext140                                        text140      000000
__Ltext141                                        text141      000000
__Ltext142                                        text142      000000
__Ltext143                                        text143      000000
__Ltext144                                        text144      000000
__Ltext145                                        text145      000000
__Ltext146                                        text146      000000
__Ltext147                                        text147      000000
__Ltext148                                        text148      000000
__Ltext149                                        text149      000000
__Ltext15                                         text15       000000
__Ltext150                                        text150      000000
__Ltext151                                        text151      000000
__Ltext152                                        text152      000000
__Ltext153                                        text153      000000
__Ltext154                                        text154      000000
__Ltext155                                        text155      000000
__Ltext16                                         text16       000000
__Ltext17                                         text17       000000
__Ltext18                                         text18       000000
__Ltext19                                         text19       000000
__Ltext2                                          text2        000000
__Ltext20                                         text20       000000
__Ltext21                                         text21       000000
__Ltext22                                         text22       000000
__Ltext23                                         text23       000000
__Ltext24                                         text24       000000
__Ltext25                                         text25       000000
__Ltext26                                         text26       000000
__Ltext27                                         text27       000000
__Ltext28                                         text28       000000
__Ltext29                                         text29       000000
__Ltext3                                          text3        000000
__Ltext30                                         text30       000000
__Ltext31                                         text31       000000
__Ltext32                                         text32       000000
__Ltext33                                         text33       000000
__Ltext34                                         text34       000000
__Ltext35                                         text35       000000
__Ltext36                                         text36       000000
__Ltext37                                         text37       000000
__Ltext38                                         text38       000000
__Ltext39                                         text39       000000
__Ltext4                                          text4        000000
__Ltext40                                         text40       000000
__Ltext41                                         text41       000000
__Ltext42                                         text42       000000
__Ltext43                                         text43       000000
__Ltext44                                         text44       000000
__Ltext45                                         text45       000000
__Ltext46                                         text46       000000
__Ltext47                                         text47       000000
__Ltext48                                         text48       000000
__Ltext49                                         text49       000000
__Ltext5                                          text5        000000
__Ltext50                                         text50       000000
__Ltext51                                         text51       000000
__Ltext52                                         text52       000000
__Ltext53                                         text53       000000
__Ltext54                                         text54       000000
__Ltext55                                         text55       000000
__Ltext56                                         text56       000000
__Ltext57                                         text57       000000
__Ltext58                                         text58       000000
__Ltext59                                         text59       000000
__Ltext6                                          text6        000000
__Ltext60                                         text60       000000
__Ltext61                                         text61       000000
__Ltext62                                         text62       000000
__Ltext63                                         text63       000000
__Ltext64                                         text64       000000
__Ltext65                                         text65       000000
__Ltext66                                         text66       000000
__Ltext67                                         text67       000000
__Ltext68                                         text68       000000
__Ltext69                                         text69       000000
__Ltext7                                          text7        000000
__Ltext70                                         text70       000000
__Ltext71                                         text71       000000
__Ltext72                                         text72       000000
__Ltext73                                         text73       000000
__Ltext74                                         text74       000000
__Ltext75                                         text75       000000
__Ltext76                                         text76       000000
__Ltext77                                         text77       000000
__Ltext78                                         text78       000000
__Ltext79                                         text79       000000
__Ltext8                                          text8        000000
__Ltext80                                         text80       000000
__Ltext81                                         text81       000000
__Ltext82                                         text82       000000
__Ltext83                                         text83       000000
__Ltext84                                         text84       000000
__Ltext85                                         text85       000000
__Ltext86                                         text86       000000
__Ltext87                                         text87       000000
__Ltext88                                         text88       000000
__Ltext89                                         text89       000000
__Ltext9                                          text9        000000
__Ltext90                                         text90       000000
__Ltext91                                         text91       000000
__Ltext92                                         text92       000000
__Ltext93                                         text93       000000
__Ltext94                                         text94       000000
__Ltext95                                         text95       000000
__Ltext96                                         text96       000000
__Ltext97                                         text97       000000
__Ltext98                                         text98       000000
__Ltext99                                         text99       000000
__S0                                              (abs)        F00008
__S1                                              (abs)        000369
__S2                                              (abs)        000000
___aldiv                                          text126      006A4E
___aldiv@counter                                  cstackBANK0  000074
___aldiv@dividend                                 cstackBANK0  00006C
___aldiv@divisor                                  cstackBANK0  000070
___aldiv@quotient                                 cstackBANK0  000076
___aldiv@sign                                     cstackBANK0  000075
___awdiv                                          text55       0078F2
___awdiv@counter                                  cstackBANK0  000064
___awdiv@dividend                                 cstackBANK0  000060
___awdiv@divisor                                  cstackBANK0  000062
___awdiv@quotient                                 cstackBANK0  000066
___awdiv@sign                                     cstackBANK0  000065
___awmod                                          text99       0084BE
___awmod@counter                                  cstackBANK0  000072
___awmod@dividend                                 cstackBANK0  00006E
___awmod@divisor                                  cstackBANK0  000070
___awmod@sign                                     cstackBANK0  000073
___fladd                                          text131      00364E
___fladd@a                                        cstackBANK0  0000A8
___fladd@aexp                                     cstackBANK0  0000B5
___fladd@b                                        cstackBANK0  0000A4
___fladd@bexp                                     cstackBANK0  0000B6
___fladd@grs                                      cstackBANK0  0000B7
___fladd@signs                                    cstackBANK0  0000B4
___fldiv                                          text48       00398C
___fldiv@a                                        cstackBANK0  00008B
___fldiv@aexp                                     cstackBANK0  00009F
___fldiv@b                                        cstackBANK0  000087
___fldiv@bexp                                     cstackBANK0  00009E
___fldiv@grs                                      cstackBANK0  00009A
___fldiv@new_exp                                  cstackBANK0  000098
___fldiv@rem                                      cstackBANK0  000094
___fldiv@sign                                     cstackBANK0  000093
___flmul                                          text130      0032FC
___flmul@a                                        cstackBANK0  000072
___flmul@aexp                                     cstackBANK0  00007F
___flmul@b                                        cstackBANK0  00006E
___flmul@bexp                                     cstackBANK0  000080
___flmul@grs                                      cstackBANK0  00007B
___flmul@prod                                     cstackBANK0  000081
___flmul@sign                                     cstackBANK0  00007A
___flmul@temp                                     cstackBANK0  000085
___flneg                                          text129      0092B2
___flneg@f1                                       cstackBANK0  0000A0
___fltol                                          text128      00689C
___fltol@exp1                                     cstackBANK0  0000C1
___fltol@f1                                       cstackBANK0  0000B8
___fltol@sign1                                    cstackBANK0  0000C0
___inthi_sp                                       stack        000000
___intlo_sp                                       stack        000000
___lbmod                                          text68       009312
___lbmod@counter                                  cstackBANK0  000062
___lbmod@dividend                                 cstackBANK0  000061
___lbmod@divisor                                  cstackBANK0  000060
___lbmod@rem                                      cstackBANK0  000063
___lmul                                           text125      008C24
___lmul@multiplicand                              cstackBANK0  000064
___lmul@multiplier                                cstackBANK0  000060
___lmul@product                                   cstackBANK0  000068
___param_bank                                     (abs)        000000
___rparam_used                                    (abs)        000001
___sp                                             stack        000000
___wmul                                           text79       009464
___wmul@multiplicand                              cstackBANK0  000066
___wmul@multiplier                                cstackBANK0  000064
___wmul@product                                   cstackBANK0  000068
___xxtofl                                         text127      005DEA
___xxtofl@arg                                     cstackBANK0  00006A
___xxtofl@exp                                     cstackBANK0  000069
___xxtofl@sign                                    cstackBANK0  000068
___xxtofl@val                                     cstackBANK0  000060
__accesstop                                       (abs)        000060
__activetblptr                                    (abs)        000002
__end_of_ADC_Initialize                           text136      00957A
__end_of_ADC_Read                                 text132      0091E6
__end_of_Busy_eep                                 text72       0095E0
__end_of_Function_A                               text58       007F08
__end_of_Function_A_1                             text61       0080FC
__end_of_Function_A_2                             text60       008080
__end_of_Function_A_3                             text59       007A80
__end_of_Function_B                               text57       007D0E
__end_of_Function_C                               text51       0078F2
__end_of_Function_C_1                             text56       007756
__end_of_Function_C_2                             text53       0062D4
__end_of_Function_C_3                             text52       0061AC
__end_of_Function_D                               text41       0079FC
__end_of_Function_D_1                             text49       00786A
__end_of_Function_D_2                             text46       008944
__end_of_Function_D_3                             text44       0082EA
__end_of_Function_D_4                             text43       007E8A
__end_of_Function_D_5                             text42       007E0C
__end_of_Function_E                               text38       0085A0
__end_of_Function_E_1                             text40       008EBC
__end_of_Function_E_2                             text39       008E6E
__end_of_Function_F                               text36       0086E6
__end_of_Function_G                               text25       0076C2
__end_of_Function_G_1                             text33       007322
__end_of_Function_G_2                             text29       007280
__end_of_Function_G_3                             text28       008A5C
__end_of_Function_G_4                             text26       007462
__end_of_Function_H                               text7        006EAA
__end_of_Function_H_1                             text24       0074FC
__end_of_Function_H_2                             text23       0087B8
__end_of_Function_H_3                             text22       008A00
__end_of_Function_H_4                             text21       006CA0
__end_of_Function_H_5                             text20       006DFE
__end_of_Function_H_6                             text17       0084BE
__end_of_Function_H_6_1                           text19       006084
__end_of_Function_H_6_2                           text18       006F56
__end_of_Function_H_7                             text16       006D50
__end_of_Function_H_8                             text13       00844C
__end_of_Function_H_8_1                           text15       008362
__end_of_Function_H_8_2                           text14       00881E
__end_of_Function_H_9                             text8        00762E
__end_of_Function_H_9_1                           text12       0071DE
__end_of_Function_H_9_2                           text11       00713C
__end_of_Function_H_9_3                           text10       00709A
__end_of_Function_H_9_4                           text9        006FF8
__end_of_ISR                                      intcode_body 005366
__end_of_LCD_STRINGS                              mediumconst  00FCFB
__end_of_Lcd_Clear                                text6        0095D0
__end_of_Lcd_Cmd                                  text134      0094B2
__end_of_Lcd_Print_Char                           text67       007B04
__end_of_Lcd_Print_String                         text66       008178
__end_of_Lcd_SetBit                               text135      009312
__end_of_Lcd_Set_Cursor                           text65       008BCA
__end_of_Lcd_Start                                text133      0077E2
__end_of_MAX_NUM_NOTES                            mediumconst  00F39E
__end_of_Read_b_eep                               text73       009566
__end_of_Write_b_eep                              text71       008F92
__end_of___aldiv                                  text126      006B1C
__end_of___awdiv                                  text55       007978
__end_of___awmod                                  text99       008530
__end_of___fladd                                  text131      00398C
__end_of___fldiv                                  text48       003C42
__end_of___flmul                                  text130      00364E
__end_of___flneg                                  text129      0092E2
__end_of___fltol                                  text128      00697A
__end_of___lbmod                                  text68       009340
__end_of___lmul                                   text125      008C7C
__end_of___wmul                                   text79       00948C
__end_of___xxtofl                                 text127      005F3E
__end_of__initialization                          cinit        0066C6
__end_of_add_notes_to_arpeggio                    text105      008004
__end_of_aeolian_key                              mediumconst  00FD19
__end_of_analogInputs                             text117      0095F2
__end_of_buttonInputsSerial                       text114      008270
__end_of_calculate_alpha                          text47       008F06
__end_of_calculate_pulse_length                   text31       005DEA
__end_of_clear_row1                               text64       009464
__end_of_clear_row2                               text63       00943C
__end_of_clock                                    text116      0095EC
__end_of_controlChange                            text121      00924E
__end_of_copy_array                               text100      0088E4
__end_of_delete_notes_from_arpeggio               text102      0092B2
__end_of_diatonic_major                           mediumconst  00F33D
__end_of_diatonic_minor                           mediumconst  00F310
__end_of_diatonic_seventh_major                   mediumconst  00F2E3
__end_of_diatonic_seventh_minor                   mediumconst  00F2A7
__end_of_digitalInputs                            text76       008D7C
__end_of_display                                  text151      00958E
__end_of_displayDigits                            text153      004440
__end_of_displayString                            text152      0065EC
__end_of_displayTest                              text75       007F86
__end_of_dorian_key                               mediumconst  00FD55
__end_of_eepromExit                               text35       0090C2
__end_of_encoderInputsBuxton                      text150      007D8E
__end_of_exitFunction                             text27       00900E
__end_of_exitLoad                                 text32       00904A
__end_of_exitSave                                 text34       009086
__end_of_findArrayIndex                           text104      00913A
__end_of_finish_arpeggio_setup                    text94       009512
__end_of_initializeMenuArray                      text74       004FDA
__end_of_initializeSaveSlotsOnce                  text69       008F50
__end_of_int2string                               text54       006A4E
__end_of_ionian_key                               mediumconst  00FD64
__end_of_key_press_release_note_off               text112      005C8C
__end_of_keyboardTranspose                        text109      0046E6
__end_of_keyboard_all_note_efficient              text89       001C66
__end_of_keyboard_eight_note_efficient            text83       0032FC
__end_of_keyboard_sharps_only_efficient           text81       003EF0
__end_of_load                                     text115      0095E6
__end_of_loadFromEEPROM                           text30       004DD8
__end_of_locrian_key                              mediumconst  00FD0A
__end_of_lydian_key                               mediumconst  00FD37
__end_of_main                                     text0        006BE8
__end_of_major_key                                mediumconst  00F387
__end_of_map                                      text124      0067BA
__end_of_menu_lcd                                 text5        00689C
__end_of_minor_key                                mediumconst  00F378
__end_of_mixolydian_key                           mediumconst  00FD28
__end_of_noteOff                                  text113      008FD2
__end_of_noteOffDrum                              text108      0091AE
__end_of_noteOn                                   text93       0089A4
__end_of_noteOnDrum                               text107      008CD2
__end_of_panic_button                             text4        0094D4
__end_of_pentatonic_major_key                     mediumconst  00F39D
__end_of_pentatonic_minor_key                     mediumconst  00F392
__end_of_phrygian_key                             mediumconst  00FD46
__end_of_pitchBend                                text120      00921A
__end_of_playArpeggio                             text140      00114C
__end_of_playDiatonicSeventhMajor                 text88       00568C
__end_of_playDiatonicSeventhMinor                 text87       004BA0
__end_of_playDiatonicTriadMajor                   text86       00581C
__end_of_playDiatonicTriadMinor                   text85       004944
__end_of_playSeventh                              text92       0059AA
__end_of_playThisNote                             text90       0064F2
__end_of_playThisNote8                            text84       002EFA
__end_of_playThisNotePentatonic                   text82       0054FA
__end_of_playTriad                                text91       005B2A
__end_of_printThisNumber                          text111      0095A0
__end_of_processDrumpad                           text106      00217C
__end_of_processEncoderBuxton                     text62       000A42
__end_of_processKeyboard                          text80       00867C
__end_of_processOctave                            text77       002AD4
__end_of_processPotentiometers                    text119      004198
__end_of_programChange                            text37       00936C
__end_of_rand                                     text98       008B14
__end_of_random_pitches                           text97       008AB8
__end_of_random_pitches_non_repeating             text96       007B88
__end_of_readPotentiometers                       text118      00174C
__end_of_resetArpeggio                            text101      0090FE
__end_of_rotateArrayLeft                          text103      0083DA
__end_of_saveToEEPROM                             text70       0051CE
__end_of_seg_ascii                                mediumconst  00F26B
__end_of_seg_bcd_hex                              mediumconst  00F369
__end_of_selectSlotOnBoot                         text3        0094F4
__end_of_sendOut                                  text123      009530
__end_of_sendUSB                                  text122      0073C4
__end_of_setControllerNumbers                     text45       002674
__end_of_setControllerResolution                  text50       009398
__end_of_setup                                    text2        008882
__end_of_setupArpeggio                            text95       0081F4
__end_of_sort_pitches                             text149      0063EE
__end_of_srand                                    text1        0095C2
__end_of_strcpy                                   text78       009280
__end_of_ttable                                   mediumconst  00F359
__end_of_wait_one_pulse                           text110      0093C2
__end_ofascii@LCD_STRINGS                         mediumconst  00F220
__end_ofi2___awdiv                                text155      007C0C
__end_ofi2___awmod                                text154      008610
__end_ofi2___lbmod                                text139      0093EC
__end_ofi2___lmul                                 text144      008D28
__end_ofi2_noteOff                                text146      009176
__end_ofi2_noteOn                                 text145      008B70
__end_ofi2_printThisNumber                        text138      0095B2
__end_ofi2_rand                                   text143      008DD0
__end_ofi2_random_pitches                         text142      008C24
__end_ofi2_random_pitches_non_repeating           text141      007C8E
__end_ofi2_sendOut                                text148      00954C
__end_ofi2_sendUSB                                text147      007596
__initialization                                  cinit        0065EC
__mediumconst                                     mediumconst  00E8C2
__pbitbssCOMRAM                                   bitbssCOMRAM 000190
__pbssBANK0                                       bssBANK0     0000D0
__pbssBANK1                                       bssBANK1     000100
__pbssBANK2                                       bssBANK2     000200
__pbssCOMRAM                                      bssCOMRAM    000037
__pcinit                                          cinit        0065EC
__pcstackBANK0                                    cstackBANK0  000060
__pcstackBANK1                                    cstackBANK1  000187
__pcstackCOMRAM                                   cstackCOMRAM 000001
__pdataBANK0                                      dataBANK0    0000F7
__pdataBANK1                                      dataBANK1    0001D7
__pdataBANK2                                      dataBANK2    0002AC
__pdataBANK3                                      dataBANK3    000300
__pdataCOMRAM                                     dataCOMRAM   00005B
__pidataBANK0                                     idataBANK0   0095D0
__pidataBANK1                                     idataBANK1   0093EC
__pidataBANK2                                     idataBANK2   008DD0
__pidataBANK3                                     idataBANK3   0086E6
__pidataCOMRAM                                    idataCOMRAM  0095F2
__pintcode                                        intcode      000008
__pintcode_body                                   intcode_body 0051CE
__pmediumconst                                    mediumconst  00E8C2
__ptext0                                          text0        006B1C
__ptext1                                          text1        0095B2
__ptext10                                         text10       006FF8
__ptext100                                        text100      008882
__ptext101                                        text101      0090C2
__ptext102                                        text102      009280
__ptext103                                        text103      008362
__ptext104                                        text104      0090FE
__ptext105                                        text105      007F86
__ptext106                                        text106      001C66
__ptext107                                        text107      008C7C
__ptext108                                        text108      009176
__ptext109                                        text109      004440
__ptext11                                         text11       00709A
__ptext110                                        text110      009398
__ptext111                                        text111      00958E
__ptext112                                        text112      005B2A
__ptext113                                        text113      008F92
__ptext114                                        text114      0081F4
__ptext115                                        text115      0095E0
__ptext116                                        text116      0095E6
__ptext117                                        text117      0095EC
__ptext118                                        text118      00114C
__ptext119                                        text119      003EF0
__ptext12                                         text12       00713C
__ptext120                                        text120      0091E6
__ptext121                                        text121      00921A
__ptext122                                        text122      007322
__ptext123                                        text123      009512
__ptext124                                        text124      0066D4
__ptext125                                        text125      008C24
__ptext126                                        text126      006A4E
__ptext127                                        text127      005DEA
__ptext128                                        text128      00689C
__ptext129                                        text129      0092B2
__ptext13                                         text13       0083DA
__ptext130                                        text130      0032FC
__ptext131                                        text131      00364E
__ptext132                                        text132      0091AE
__ptext133                                        text133      007756
__ptext134                                        text134      00948C
__ptext135                                        text135      0092E2
__ptext136                                        text136      009566
__ptext138                                        text138      0095A0
__ptext139                                        text139      0093C2
__ptext14                                         text14       0087B8
__ptext140                                        text140      000A42
__ptext141                                        text141      007C0C
__ptext142                                        text142      008BCA
__ptext143                                        text143      008D7C
__ptext144                                        text144      008CD2
__ptext145                                        text145      008B14
__ptext146                                        text146      00913A
__ptext147                                        text147      0074FC
__ptext148                                        text148      009530
__ptext149                                        text149      0062D4
__ptext15                                         text15       0082EA
__ptext150                                        text150      007D0E
__ptext151                                        text151      00957A
__ptext152                                        text152      0064F2
__ptext153                                        text153      004198
__ptext154                                        text154      0085A0
__ptext155                                        text155      007B88
__ptext16                                         text16       006CA0
__ptext17                                         text17       00844C
__ptext18                                         text18       006EAA
__ptext19                                         text19       005F3E
__ptext2                                          text2        00881E
__ptext20                                         text20       006D50
__ptext21                                         text21       006BE8
__ptext22                                         text22       0089A4
__ptext23                                         text23       008750
__ptext24                                         text24       007462
__ptext25                                         text25       00762E
__ptext26                                         text26       0073C4
__ptext27                                         text27       008FD2
__ptext28                                         text28       008A00
__ptext29                                         text29       0071DE
__ptext3                                          text3        0094D4
__ptext30                                         text30       004BA0
__ptext31                                         text31       005C8C
__ptext32                                         text32       00900E
__ptext33                                         text33       007280
__ptext34                                         text34       00904A
__ptext35                                         text35       009086
__ptext36                                         text36       00867C
__ptext37                                         text37       009340
__ptext38                                         text38       008530
__ptext39                                         text39       008E20
__ptext4                                          text4        0094B2
__ptext40                                         text40       008E6E
__ptext41                                         text41       007978
__ptext42                                         text42       007D8E
__ptext43                                         text43       007E0C
__ptext44                                         text44       008270
__ptext45                                         text45       00217C
__ptext46                                         text46       0088E4
__ptext47                                         text47       008EBC
__ptext48                                         text48       00398C
__ptext49                                         text49       0077E2
__ptext5                                          text5        0067BA
__ptext50                                         text50       00936C
__ptext51                                         text51       00786A
__ptext52                                         text52       006084
__ptext53                                         text53       0061AC
__ptext54                                         text54       00697A
__ptext55                                         text55       0078F2
__ptext56                                         text56       0076C2
__ptext57                                         text57       007C8E
__ptext58                                         text58       007E8A
__ptext59                                         text59       0079FC
__ptext6                                          text6        0095C2
__ptext60                                         text60       008004
__ptext61                                         text61       008080
__ptext62                                         text62       000012
__ptext63                                         text63       009414
__ptext64                                         text64       00943C
__ptext65                                         text65       008B70
__ptext66                                         text66       0080FC
__ptext67                                         text67       007A80
__ptext68                                         text68       009312
__ptext69                                         text69       008F06
__ptext7                                          text7        006DFE
__ptext70                                         text70       004FDA
__ptext71                                         text71       008F50
__ptext72                                         text72       0095DA
__ptext73                                         text73       00954C
__ptext74                                         text74       004DD8
__ptext75                                         text75       007F08
__ptext76                                         text76       008D28
__ptext77                                         text77       002674
__ptext78                                         text78       00924E
__ptext79                                         text79       009464
__ptext8                                          text8        007596
__ptext80                                         text80       008610
__ptext81                                         text81       003C42
__ptext82                                         text82       005366
__ptext83                                         text83       002EFA
__ptext84                                         text84       002AD4
__ptext85                                         text85       0046E6
__ptext86                                         text86       00568C
__ptext87                                         text87       004944
__ptext88                                         text88       0054FA
__ptext89                                         text89       00174C
__ptext9                                          text9        006F56
__ptext90                                         text90       0063EE
__ptext91                                         text91       0059AA
__ptext92                                         text92       00581C
__ptext93                                         text93       008944
__ptext94                                         text94       0094F4
__ptext95                                         text95       008178
__ptext96                                         text96       007B04
__ptext97                                         text97       008A5C
__ptext98                                         text98       008AB8
__ptext99                                         text99       0084BE
__ramtop                                          ramtop       000D00
__size_of_ADC_Initialize                          (abs)        000000
__size_of_ADC_Read                                (abs)        000000
__size_of_Busy_eep                                (abs)        000000
__size_of_Function_A                              (abs)        000000
__size_of_Function_A_1                            (abs)        000000
__size_of_Function_A_2                            (abs)        000000
__size_of_Function_A_3                            (abs)        000000
__size_of_Function_B                              (abs)        000000
__size_of_Function_C                              (abs)        000000
__size_of_Function_C_1                            (abs)        000000
__size_of_Function_C_2                            (abs)        000000
__size_of_Function_C_3                            (abs)        000000
__size_of_Function_D                              (abs)        000000
__size_of_Function_D_1                            (abs)        000000
__size_of_Function_D_2                            (abs)        000000
__size_of_Function_D_3                            (abs)        000000
__size_of_Function_D_4                            (abs)        000000
__size_of_Function_D_5                            (abs)        000000
__size_of_Function_E                              (abs)        000000
__size_of_Function_E_1                            (abs)        000000
__size_of_Function_E_2                            (abs)        000000
__size_of_Function_F                              (abs)        000000
__size_of_Function_G                              (abs)        000000
__size_of_Function_G_1                            (abs)        000000
__size_of_Function_G_2                            (abs)        000000
__size_of_Function_G_3                            (abs)        000000
__size_of_Function_G_4                            (abs)        000000
__size_of_Function_H                              (abs)        000000
__size_of_Function_H_1                            (abs)        000000
__size_of_Function_H_2                            (abs)        000000
__size_of_Function_H_3                            (abs)        000000
__size_of_Function_H_4                            (abs)        000000
__size_of_Function_H_5                            (abs)        000000
__size_of_Function_H_6                            (abs)        000000
__size_of_Function_H_6_1                          (abs)        000000
__size_of_Function_H_6_2                          (abs)        000000
__size_of_Function_H_7                            (abs)        000000
__size_of_Function_H_8                            (abs)        000000
__size_of_Function_H_8_1                          (abs)        000000
__size_of_Function_H_8_2                          (abs)        000000
__size_of_Function_H_9                            (abs)        000000
__size_of_Function_H_9_1                          (abs)        000000
__size_of_Function_H_9_2                          (abs)        000000
__size_of_Function_H_9_3                          (abs)        000000
__size_of_Function_H_9_4                          (abs)        000000
__size_of_ISR                                     (abs)        000000
__size_of_Lcd_Clear                               (abs)        000000
__size_of_Lcd_Cmd                                 (abs)        000000
__size_of_Lcd_Print_Char                          (abs)        000000
__size_of_Lcd_Print_String                        (abs)        000000
__size_of_Lcd_SetBit                              (abs)        000000
__size_of_Lcd_Set_Cursor                          (abs)        000000
__size_of_Lcd_Start                               (abs)        000000
__size_of_Read_b_eep                              (abs)        000000
__size_of_Write_b_eep                             (abs)        000000
__size_of___aldiv                                 (abs)        000000
__size_of___awdiv                                 (abs)        000000
__size_of___awmod                                 (abs)        000000
__size_of___fladd                                 (abs)        000000
__size_of___fldiv                                 (abs)        000000
__size_of___flmul                                 (abs)        000000
__size_of___flneg                                 (abs)        000000
__size_of___fltol                                 (abs)        000000
__size_of___lbmod                                 (abs)        000000
__size_of___lmul                                  (abs)        000000
__size_of___wmul                                  (abs)        000000
__size_of___xxtofl                                (abs)        000000
__size_of_add_notes_to_arpeggio                   (abs)        000000
__size_of_analogInputs                            (abs)        000000
__size_of_buttonInputsSerial                      (abs)        000000
__size_of_calculate_alpha                         (abs)        000000
__size_of_calculate_pulse_length                  (abs)        000000
__size_of_clear_row1                              (abs)        000000
__size_of_clear_row2                              (abs)        000000
__size_of_clock                                   (abs)        000000
__size_of_controlChange                           (abs)        000000
__size_of_copy_array                              (abs)        000000
__size_of_delete_notes_from_arpeggio              (abs)        000000
__size_of_digitalInputs                           (abs)        000000
__size_of_display                                 (abs)        000000
__size_of_displayDigits                           (abs)        000000
__size_of_displayString                           (abs)        000000
__size_of_displayTest                             (abs)        000000
__size_of_eepromExit                              (abs)        000000
__size_of_encoderInputsBuxton                     (abs)        000000
__size_of_exitFunction                            (abs)        000000
__size_of_exitLoad                                (abs)        000000
__size_of_exitSave                                (abs)        000000
__size_of_findArrayIndex                          (abs)        000000
__size_of_finish_arpeggio_setup                   (abs)        000000
__size_of_initializeMenuArray                     (abs)        000000
__size_of_initializeSaveSlotsOnce                 (abs)        000000
__size_of_int2string                              (abs)        000000
__size_of_key_press_release_note_off              (abs)        000000
__size_of_keyboardTranspose                       (abs)        000000
__size_of_keyboard_all_note_efficient             (abs)        000000
__size_of_keyboard_eight_note_efficient           (abs)        000000
__size_of_keyboard_sharps_only_efficient          (abs)        000000
__size_of_load                                    (abs)        000000
__size_of_loadFromEEPROM                          (abs)        000000
__size_of_main                                    (abs)        000000
__size_of_map                                     (abs)        000000
__size_of_menu_lcd                                (abs)        000000
__size_of_noteOff                                 (abs)        000000
__size_of_noteOffDrum                             (abs)        000000
__size_of_noteOn                                  (abs)        000000
__size_of_noteOnDrum                              (abs)        000000
__size_of_panic_button                            (abs)        000000
__size_of_pitchBend                               (abs)        000000
__size_of_playArpeggio                            (abs)        000000
__size_of_playDiatonicSeventhMajor                (abs)        000000
__size_of_playDiatonicSeventhMinor                (abs)        000000
__size_of_playDiatonicTriadMajor                  (abs)        000000
__size_of_playDiatonicTriadMinor                  (abs)        000000
__size_of_playSeventh                             (abs)        000000
__size_of_playThisNote                            (abs)        000000
__size_of_playThisNote8                           (abs)        000000
__size_of_playThisNotePentatonic                  (abs)        000000
__size_of_playTriad                               (abs)        000000
__size_of_printThisNumber                         (abs)        000000
__size_of_processDrumpad                          (abs)        000000
__size_of_processEncoderBuxton                    (abs)        000000
__size_of_processKeyboard                         (abs)        000000
__size_of_processOctave                           (abs)        000000
__size_of_processPotentiometers                   (abs)        000000
__size_of_programChange                           (abs)        000000
__size_of_rand                                    (abs)        000000
__size_of_random_pitches                          (abs)        000000
__size_of_random_pitches_non_repeating            (abs)        000000
__size_of_readPotentiometers                      (abs)        000000
__size_of_resetArpeggio                           (abs)        000000
__size_of_rotateArrayLeft                         (abs)        000000
__size_of_saveToEEPROM                            (abs)        000000
__size_of_selectSlotOnBoot                        (abs)        000000
__size_of_sendOut                                 (abs)        000000
__size_of_sendUSB                                 (abs)        000000
__size_of_setControllerNumbers                    (abs)        000000
__size_of_setControllerResolution                 (abs)        000000
__size_of_setup                                   (abs)        000000
__size_of_setupArpeggio                           (abs)        000000
__size_of_sort_pitches                            (abs)        000000
__size_of_srand                                   (abs)        000000
__size_of_strcpy                                  (abs)        000000
__size_of_wait_one_pulse                          (abs)        000000
__size_ofi2___awdiv                               (abs)        000000
__size_ofi2___awmod                               (abs)        000000
__size_ofi2___lbmod                               (abs)        000000
__size_ofi2___lmul                                (abs)        000000
__size_ofi2_noteOff                               (abs)        000000
__size_ofi2_noteOn                                (abs)        000000
__size_ofi2_printThisNumber                       (abs)        000000
__size_ofi2_rand                                  (abs)        000000
__size_ofi2_random_pitches                        (abs)        000000
__size_ofi2_random_pitches_non_repeating          (abs)        000000
__size_ofi2_sendOut                               (abs)        000000
__size_ofi2_sendUSB                               (abs)        000000
__smallconst                                      smallconst   000000
_add_notes_to_arpeggio                            text105      007F86
_aeolian_key                                      mediumconst  00FD0A
_analogInputs                                     text117      0095EC
_arpeggiatorAutoLatchOnOffMenu                    bssBANK1     000120
_arpeggiatorLastNoteModeKeyPressMenu              bssBANK1     000111
_arpeggiatorLastNoteModeKeyReleaseMenu            bssBANK1     00010E
_arpeggiatorLastNoteModeMenu                      bssBANK0     0000DC
_arpeggiatorLastNoteModeResetMenu                 bssBANK1     000108
_arpeggiatorLastNoteModeTransposeMenu             bssBANK1     00010B
_arpeggiatorLatchMenu                             bssBANK1     000126
_arpeggiatorLatchOnOffMenu                        bssBANK1     000123
_arpeggiatorMenu                                  bssCOMRAM    00003B
_arpeggiatorNoteLengthMenu                        bssBANK1     000129
_arpeggiatorOctavesMenu                           bssBANK1     00012F
_arpeggiatorOnOffMenu                             bssBANK1     000135
_arpeggiatorRandomizeSkipMenu                     bssBANK1     00011A
_arpeggiatorRandomizeTypeMenu                     bssBANK1     000117
_arpeggiatorSkipFirstLastMenu                     bssBANK1     000114
_arpeggiatorTempoMenu                             bssBANK1     000132
_arpeggiatorTypeMenu                              bssBANK1     00012C
_arpeggiatorUnLatchModeMenu                       bssBANK1     00011D
_arpeggioPtr                                      bssCOMRAM    00004F
_augmented_triad                                  dataBANK1    0001F6
_buttonInputsSerial                               text114      0081F4
_button_state_last                                bssBANK0     0000D4
_button_state_now                                 bssBANK0     0000D8
_calculate_alpha                                  text47       008EBC
_calculate_pulse_length                           text31       005C8C
_calculate_pulse_length$5801                      cstackBANK0  0000C8
_channel                                          bssBANK0     0000F6
_clear_row1                                       text64       00943C
_clear_row2                                       text63       009414
_clock                                            text116      0095E6
_command                                          dataBANK1    0001ED
_controlChange                                    text121      00921A
_copy_array                                       text100      008882
_count_ISR                                        bssBANK2     000284
_delete_notes_from_arpeggio                       text102      009280
_diatonic_major                                   mediumconst  00F310
_diatonic_minor                                   mediumconst  00F2E3
_diatonic_seventh_major                           mediumconst  00F2A7
_diatonic_seventh_minor                           mediumconst  00F26B
_digitalInputs                                    text76       008D28
_diminished_7th                                   dataBANK2    0002E8
_diminished_triad                                 dataBANK1    0001F3
_display                                          text151      00957A
_displayDigits                                    text153      004198
_displayString                                    text152      0064F2
_displayTest                                      text75       007F08
_dominant_7th                                     dataBANK2    0002F8
_dorian_key                                       mediumconst  00FD46
_drum                                             bssBANK0     0000EC
_drumCCMenu                                       bssBANK1     000159
_drumCCTypeMenu                                   bssBANK1     00015F
_drumChannelMenu                                  bssBANK1     00013E
_drumMenu                                         bssCOMRAM    000041
_drumNNMenu                                       bssBANK1     00015C
_drum_button_state_last                           bssBANK0     0000ED
_drum_button_state_now                            bssBANK0     0000EE
_drumchannel                                      dataBANK0    0000FE
_eepromExit                                       text35       009086
_eepromMenu                                       bssBANK1     00013B
_ema_alpha                                        bssBANK1     000104
_ema_integer                                      dataBANK0    0000FB
_ema_sum                                          bssBANK2     000240
_encoderA                                         bitbssCOMRAM 0001B2
_encoderB                                         bitbssCOMRAM 0001B1
_encoderInputsBuxton                              text150      007D0E
_encoderPolarity                                  bitbssCOMRAM 0001B0
_encoderPolarityMenu                              bssBANK1     000138
_encoder_click                                    bitbssCOMRAM 0001AF
_encoder_direction                                bssBANK0     0000EB
_encoder_state_last                               bssBANK1     00016F
_encoder_state_now                                bssBANK1     000170
_exitFunction                                     text27       008FD2
_exitLoad                                         text32       00900E
_exitSave                                         text34       00904A
_findArrayIndex                                   text104      0090FE
_finishLastNote                                   bitbssCOMRAM 00019D
_finish_arpeggio_setup                            text94       0094F4
_flag1                                            bitbssCOMRAM 000197
_flag2                                            bitbssCOMRAM 000196
_half_diminished_7th                              dataBANK2    0002EC
_initializeMenuArray                              text74       004DD8
_initializeSaveSlotsOnce                          text69       008F06
_inputPotsArray                                   dataBANK2    0002AC
_int2string                                       text54       00697A
_ionian_key                                       mediumconst  00FD55
_iterator_focus                                   dataBANK0    0000FA
_joystickCCMenu                                   bssBANK1     00014A
_key_press_release_note_off                       text112      005B2A
_keyboard                                         bssBANK0     0000D0
_keyboardMenu                                     bssCOMRAM    00004A
_keyboardTranspose                                text109      004440
_keyboard_all_note_efficient                      text89       00174C
_keyboard_eight_note_efficient                    text83       002EFA
_keyboard_sharps_only_efficient                   text81       003C42
_lastNoteMode                                     bitbssCOMRAM 0001A2
_last_note                                        bssBANK0     0000E8
_last_octave                                      bssCOMRAM    000055
_latch_was_pressed                                bitbssCOMRAM 0001A5
_lcd_print_once                                   bitbssCOMRAM 0001AE
_light_decimal_points                             bitbssCOMRAM 0001B5
_load                                             text115      0095E0
_loadFromEEPROM                                   text30       004BA0
_locrian_key                                      mediumconst  00FCFB
_lydian_key                                       mediumconst  00FD28
_main                                             text0        006B1C
_mainChannelMenu                                  bssBANK1     000141
_mainMenu                                         bssBANK1     000168
_major_7th                                        dataBANK2    0002F4
_major_key                                        mediumconst  00F378
_major_triad                                      dataBANK1    0001FC
_map                                              text124      0066D4
_menuArray                                        dataBANK3    000300
_menu_lcd                                         text5        0067BA
_midiChannelMenu                                  bssBANK1     000147
_minor_7th                                        dataBANK2    0002F0
_minor_key                                        mediumconst  00F369
_minor_triad                                      dataBANK1    0001F9
_mixolydian_key                                   mediumconst  00FD19
_modeMenu                                         bssCOMRAM    000047
_noteNumber                                       bssBANK0     0000F4
_noteOff                                          text113      008F92
_noteOffDrum                                      text108      009176
_noteOn                                           text93       008944
_noteOnDrum                                       text107      008C7C
_note_off_was_sent                                bitbssCOMRAM 000198
_number_of_interrupts                             bssBANK2     000288
_number_to_display                                dataCOMRAM   00005B
_octave                                           dataBANK0    0000FC
_octave_overflow                                  bitbssCOMRAM 000199
_overflow                                         bitbssCOMRAM 00019A
_panic_button                                     text4        0094B2
_parallel                                         bssBANK0     0000E6
_patch_number                                     bssBANK1     000171
_pentatonic_major_key                             mediumconst  00F392
_pentatonic_minor_key                             mediumconst  00F387
_phrygian_key                                     mediumconst  00FD37
_pitchBend                                        text120      0091E6
_playArpeggio                                     text140      000A42
_playDiatonicSeventhMajor                         text88       0054FA
_playDiatonicSeventhMinor                         text87       004944
_playDiatonicTriadMajor                           text86       00568C
_playDiatonicTriadMinor                           text85       0046E6
_playSeventh                                      text92       00581C
_playThisNote                                     text90       0063EE
_playThisNote8                                    text84       002AD4
_playThisNotePentatonic                           text82       005366
_playTriad                                        text91       0059AA
_potentiometer_filtered_last                      bssBANK2     000200
_potentiometer_filtered_now                       bssBANK2     000220
_potentiometer_raw                                bssBANK2     000260
_potsAlphaMenu                                    bssBANK1     000153
_potsCCMenu                                       bssBANK1     000150
_potsMenu                                         bssCOMRAM    00003E
_potsResoMenu                                     bssBANK1     000156
_printThisNumber                                  text111      00958E
_processDrumpad                                   text106      001C66
_processEncoderBuxton                             text62       000012
_processKeyboard                                  text80       008610
_processOctave                                    text77       002674
_processPotentiometers                            text119      003EF0
_programChange                                    text37       009340
_programChangeMenu                                bssBANK1     000144
_rand                                             text98       008AB8
_random_pitches                                   text97       008A5C
_random_pitches_non_repeating                     text96       007B04
_randx                                            dataBANK1    0001E7
_readPotentiometers                               text118      00114C
_readPotentiometers$5800                          cstackBANK0  0000C7
_resetArpeggio                                    text101      0090C2
_rotateArrayLeft                                  text103      008362
_saveToEEPROM                                     text70       004FDA
_savesMenu                                        bssBANK0     0000DF
_seg_ascii                                        mediumconst  00F220
_seg_bcd_hex                                      mediumconst  00F359
_selectSlotOnBoot                                 text3        0094D4
_semitone                                         bssBANK0     0000F3
_sendOut                                          text123      009512
_sendUSB                                          text122      007322
_setControllerNumbers                             text45       00217C
_setControllerResolution                          text50       00936C
_setup                                            text2        00881E
_setupArpeggio                                    text95       008178
_seventhMenu                                      bssBANK1     000165
_skipFirstLast                                    bitbssCOMRAM 0001A3
_slidepotsCCMenu                                  bssBANK1     00014D
_sort_pitches                                     text149      0062D4
_srand                                            text1        0095B2
_startingDirection                                bssBANK0     0000E9
_state                                            bssCOMRAM    000058
_statusByte                                       bssBANK0     0000F5
_stored_octave                                    bssBANK0     0000E7
_strcpy                                           text78       00924E
_string2display                                   bssBANK1     000182
_string_to_display                                dataBANK1    0001EE
_suppress_note_off                                bitbssCOMRAM 00019B
_suppress_note_on                                 bitbssCOMRAM 00019C
_toggle_state                                     bssBANK0     0000E3
_transposeMenu                                    bssBANK1     000162
_triadMenu                                        bssCOMRAM    000044
_ttable                                           mediumconst  00F33D
_velocity                                         dataBANK0    0000FD
_wait_one_pulse                                   text110      009398
_which_mode                                       bssBANK0     0000F1
_which_note                                       bssCOMRAM    000057
_which_octave                                     bssCOMRAM    000056
_which_screen                                     dataBANK0    0000F9
_which_seventh                                    bssBANK0     0000EF
_which_triad                                      bssBANK0     0000F0
add_notes_to_arpeggio@pitch                       cstackBANK0  000067
btemp                                             temp         00005F
buttonInputsSerial@i                              cstackBANK0  000064
buttonInputsSerial@i_4380                         cstackBANK0  000065
calculate_pulse_length@s_tick                     cstackBANK0  0000C4
controlChange@channel                             cstackBANK0  00006D
controlChange@controllerNumber                    cstackBANK0  00006B
controlChange@value                               cstackBANK0  00006C
copy_array@i                                      cstackBANK0  000060
delete_notes_from_arpeggio@INDEX_TO_SHIFT_LEFT_AT cstackBANK0  00006A
delete_notes_from_arpeggio@pitch                  cstackBANK0  000069
displayDigits@digit                               bssCOMRAM    000037
displayDigits@digit_counter                       bssCOMRAM    000052
displayDigits@highByte                            cstackCOMRAM 000019
displayDigits@lowByte                             cstackCOMRAM 000018
displayDigits@number_to_display_last              bssBANK1     00016B
displayDigits@number_to_display_temp              bssCOMRAM    00004D
displayString@i                                   cstackCOMRAM 000002
displayString@letter                              bssBANK1     000100
displayString@letter_counter                      bssCOMRAM    000051
encoderInputsBuxton@pinstate                      cstackCOMRAM 000006
encoderInputsBuxton@tempA                         cstackCOMRAM 000004
encoderInputsBuxton@tempB                         cstackCOMRAM 000005
end_of_initialization                             cinit        0066C6
findArrayIndex@i                                  cstackBANK0  000062
findArrayIndex@pitch_of_key_release               cstackBANK0  000061
i2___awdiv                                        text155      007B88
i2___awdiv@counter                                cstackCOMRAM 000005
i2___awdiv@dividend                               cstackCOMRAM 000001
i2___awdiv@divisor                                cstackCOMRAM 000003
i2___awdiv@quotient                               cstackCOMRAM 000007
i2___awdiv@sign                                   cstackCOMRAM 000006
i2___awmod                                        text154      0085A0
i2___awmod@counter                                cstackCOMRAM 000013
i2___awmod@dividend                               cstackCOMRAM 00000F
i2___awmod@divisor                                cstackCOMRAM 000011
i2___awmod@sign                                   cstackCOMRAM 000014
i2___lbmod                                        text139      0093C2
i2___lbmod@counter                                cstackCOMRAM 000003
i2___lbmod@dividend                               cstackCOMRAM 000002
i2___lbmod@divisor                                cstackCOMRAM 000001
i2___lbmod@rem                                    cstackCOMRAM 000004
i2___lmul                                         text144      008CD2
i2___lmul@multiplicand                            cstackCOMRAM 000005
i2___lmul@multiplier                              cstackCOMRAM 000001
i2___lmul@product                                 cstackCOMRAM 000009
i2_noteOff                                        text146      00913A
i2_noteOn                                         text145      008B14
i2_printThisNumber                                text138      0095A0
i2_rand                                           text143      008D7C
i2_random_pitches                                 text142      008BCA
i2_random_pitches_non_repeating                   text141      007C0C
i2_sendOut                                        text148      009530
i2_sendUSB                                        text147      0074FC
i2noteOff@channel                                 cstackCOMRAM 00000E
i2noteOff@pitch                                   cstackCOMRAM 00000C
i2noteOff@velocity                                cstackCOMRAM 00000D
i2noteOn@channel                                  cstackCOMRAM 000011
i2noteOn@pitch                                    cstackCOMRAM 00000F
i2noteOn@velocity                                 cstackCOMRAM 000010
i2printThisNumber@n                               cstackCOMRAM 000001
i2random_pitches@i                                cstackCOMRAM 000016
i2random_pitches@random_array_index               cstackCOMRAM 000015
i2random_pitches_non_repeating@i                  cstackCOMRAM 000017
i2random_pitches_non_repeating@randomIndex        cstackCOMRAM 000016
i2random_pitches_non_repeating@temp               cstackCOMRAM 000015
i2sendOut@a                                       cstackCOMRAM 000001
i2sendUSB@i                                       cstackCOMRAM 00000A
i2sendUSB@ii                                      cstackCOMRAM 00000B
i2sendUSB@message1                                cstackCOMRAM 000009
i2sendUSB@message2                                cstackCOMRAM 000001
i2sendUSB@message3                                cstackCOMRAM 000002
i2sendUSB@midiMessage                             cstackCOMRAM 000006
initializeMenuArray@NumberOfElements              cstackBANK0  00006B
initializeMenuArray@i                             cstackBANK0  00006C
initializeSaveSlotsOnce@initializeSlotsOnce       cstackBANK0  0000B4
int$flags                                         temp         00005F
int2string@isNegative                             bitbssCOMRAM 000191
int2string@number                                 cstackBANK0  000074
int2string@number_to_display_temp                 cstackBANK0  000078
int_func                                          intcode_body 0051CE
intlevel0                                         text         000000
intlevel1                                         text         000000
intlevel2                                         text         000000
intlevel3                                         text         000000
key_press_release_note_off@temp                   bssBANK0     0000E2
keyboardTranspose@keyPress                        bitbssCOMRAM 000192
keyboardTranspose@semitone_temp                   bssCOMRAM    000053
keyboard_all_note_efficient@pitch                 cstackBANK0  000085
keyboard_eight_note_efficient@index               cstackBANK0  000089
keyboard_eight_note_efficient@pitch               cstackBANK0  000088
keyboard_sharps_only_efficient@index              cstackBANK0  00007E
keyboard_sharps_only_efficient@pitch              cstackBANK0  00007D
loadFromEEPROM@baseAddress                        cstackBANK1  0001D2
loadFromEEPROM@byte_count                         cstackBANK1  0001D5
loadFromEEPROM@slotNumber                         cstackBANK1  0001D4
loadFromEEPROM@to_load                            cstackBANK1  000187
map@in_max                                        cstackBANK0  000082
map@in_min                                        cstackBANK0  00007E
map@out_max                                       cstackBANK0  00008A
map@out_min                                       cstackBANK0  000086
map@x                                             cstackBANK0  00007A
noteOff@channel                                   cstackBANK0  00006D
noteOff@pitch                                     cstackBANK0  00006B
noteOff@velocity                                  cstackBANK0  00006C
noteOffDrum@channel                               cstackBANK0  00006D
noteOffDrum@pitch                                 cstackBANK0  00006B
noteOffDrum@velocity                              cstackBANK0  00006C
noteOn@channel                                    cstackBANK0  000070
noteOn@pitch                                      cstackBANK0  00006E
noteOn@velocity                                   cstackBANK0  00006F
noteOnDrum@channel                                cstackBANK0  000070
noteOnDrum@pitch                                  cstackBANK0  00006E
noteOnDrum@velocity                               cstackBANK0  00006F
pitchBend@channel                                 cstackBANK0  00006D
pitchBend@highByte                                cstackBANK0  00006C
pitchBend@lowByte                                 cstackBANK0  00006B
playDiatonicSeventhMajor@i                        cstackBANK0  00007C
playDiatonicSeventhMajor@i_1684                   cstackBANK0  00007D
playDiatonicSeventhMajor@index                    cstackBANK0  000077
playDiatonicSeventhMajor@pitch                    cstackBANK0  00007E
playDiatonicSeventhMinor@i                        cstackBANK0  00007D
playDiatonicSeventhMinor@i_1694                   cstackBANK0  00007E
playDiatonicSeventhMinor@index                    cstackBANK0  000077
playDiatonicSeventhMinor@pitch                    cstackBANK0  00007C
playDiatonicTriadMajor@i                          cstackBANK0  00007C
playDiatonicTriadMajor@i_1679                     cstackBANK0  00007D
playDiatonicTriadMajor@index                      cstackBANK0  000077
playDiatonicTriadMajor@pitch                      cstackBANK0  00007E
playDiatonicTriadMinor@i                          cstackBANK0  00007D
playDiatonicTriadMinor@i_1689                     cstackBANK0  00007E
playDiatonicTriadMinor@index                      cstackBANK0  000077
playDiatonicTriadMinor@pitch                      cstackBANK0  00007C
playSeventh@i                                     cstackBANK0  00007D
playSeventh@i_1662                                cstackBANK0  00007E
playSeventh@pitch                                 cstackBANK0  00007F
playSeventh@seventh_p                             cstackBANK0  00007B
playThisNote8@index                               cstackBANK0  00007F
playThisNote8@mode_p                              cstackBANK0  000086
playThisNote8@pitch                               cstackBANK0  000084
playThisNote8@temp_pitch                          cstackBANK0  000085
playThisNote@pitch                                cstackBANK0  000084
playThisNotePentatonic@index                      cstackBANK0  000077
playThisNotePentatonic@temp_pitch                 cstackBANK0  00007C
playTriad@i                                       cstackBANK0  00007D
playTriad@i_1657                                  cstackBANK0  00007E
playTriad@pitch                                   cstackBANK0  00007F
playTriad@triad_p                                 cstackBANK0  00007B
printThisNumber@n                                 cstackBANK0  000060
processPotentiometers@highByte                    cstackBANK0  000072
processPotentiometers@i                           cstackBANK0  000073
processPotentiometers@lowByte                     cstackBANK0  000071
programChange@channel                             cstackBANK0  00006D
programChange@data1                               cstackBANK0  00006B
programChange@data2                               cstackBANK0  00006C
random_pitches@i                                  cstackBANK0  000075
random_pitches@random_array_index                 cstackBANK0  000074
random_pitches_non_repeating@i                    cstackBANK0  000076
random_pitches_non_repeating@randomIndex          cstackBANK0  000075
random_pitches_non_repeating@temp                 cstackBANK0  000074
readPotentiometers@FIRST_READING                  bitbssCOMRAM 000190
readPotentiometers@count                          bssBANK2     000280
readPotentiometers@i                              cstackBANK0  0000CC
readPotentiometers@i_3355                         cstackBANK0  0000CB
readPotentiometers@i_3356                         cstackBANK0  0000CD
rotateArrayLeft@array_index                       cstackBANK0  000067
rotateArrayLeft@i                                 cstackBANK0  000068
saveToEEPROM@baseAddress                          cstackBANK0  0000AF
saveToEEPROM@byte_count                           cstackBANK0  0000B2
saveToEEPROM@slotNumber                           cstackBANK0  0000B1
saveToEEPROM@to_save                              cstackBANK0  000064
selectSlotOnBoot@slot                             cstackBANK0  0000CC
sendOut@a                                         cstackBANK0  000060
sendUSB@i                                         cstackBANK0  000069
sendUSB@ii                                        cstackBANK0  00006A
sendUSB@message1                                  cstackBANK0  000065
sendUSB@message2                                  cstackBANK0  000060
sendUSB@message3                                  cstackBANK0  000061
sendUSB@midiMessage                               cstackBANK0  000066
setControllerNumbers@array_index                  cstackBANK0  00007B
setControllerResolution@i                         cstackBANK0  000060
sort_pitches@a                                    cstackCOMRAM 000003
sort_pitches@i                                    cstackCOMRAM 000005
sort_pitches@j                                    cstackCOMRAM 000004
srand@x                                           cstackBANK0  000060
stackhi                                           (abs)        000CFF
stacklo                                           (abs)        000369
start                                             init         00000E
start_initialization                              cinit        0065EC
strcpy@cp                                         cstackBANK0  000064
strcpy@from                                       cstackBANK0  000062
strcpy@to                                         cstackBANK0  000060
wait_one_pulse@mode                               cstackBANK0  000060
wtemp6                                            temp         000060


FUNCTION INFORMATION:

 *************** function _main *****************
 Defined at:
		line 441 in file "main.c"
 Parameters:    Size  Location     Type
		None
 Auto vars:     Size  Location     Type
		None
 Return value:  Size  Location     Type
                  2  4823[None  ] int 
 Registers used:
		wreg, fsr1l, fsr1h, fsr2l, fsr2h, status,2, status,0, tblptrl, tblptrh, tblptru, prodl, prodh, cstack
 Tracked objects:
		On entry : 
		On exit  : 
		Unchanged: 
 Data sizes:     COMRAM   BANK0   BANK1   BANK2   BANK3   BANK4   BANK5   BANK6   BANK7   BANK8   BANK9  BANK10  BANK11  BANK12
      Params:         0       0       0       0       0       0       0       0       0       0       0       0       0       0
      Locals:         0       0       0       0       0       0       0       0       0       0       0       0       0       0
      Temps:          0       1       0       0       0       0       0       0       0       0       0       0       0       0
      Totals:         0       1       0       0       0       0       0       0       0       0       0       0       0       0
Total ram usage:        1 bytes
 Hardware stack levels required when called:   16
 This function calls:
		_ADC_Initialize
		_Lcd_Start
		_Read_b_eep
		_analogInputs
		_calculate_alpha
		_calculate_pulse_length
		_digitalInputs
		_displayTest
		_initializeMenuArray
		_initializeSaveSlotsOnce
		_menu_lcd
		_panic_button
		_processEncoderBuxton
		_selectSlotOnBoot
		_setup
		_srand
 This function is called by:
		Startup code after reset
 This function uses a non-reentrant model


 *************** function _srand *****************
 Defined at:
		line 6 in file "C:\Program Files (x86)\Microchip\xc8\v1.45\sources\common\rand.c"
 Parameters:    Size  Location     Type
  x               2    0[BANK0 ] unsigned int 
 Auto vars:     Size  Location     Type
		None
 Return value:  Size  Location     Type
                  1    wreg      void 
 Registers used:
		status,2
 Tracked objects:
		On entry : 
		On exit  : 
		Unchanged: 
 Data sizes:     COMRAM   BANK0   BANK1   BANK2   BANK3   BANK4   BANK5   BANK6   BANK7   BANK8   BANK9  BANK10  BANK11  BANK12
      Params:         0       2       0       0       0       0       0       0       0       0       0       0       0       0
      Locals:         0       0       0       0       0       0       0       0       0       0       0       0       0       0
      Temps:          0       0       0       0       0       0       0       0       0       0       0       0       0       0
      Totals:         0       2       0       0       0       0       0       0       0       0       0       0       0       0
Total ram usage:        2 bytes
 Hardware stack levels used:    1
 Hardware stack levels required when called:    5
 This function calls:
		Nothing
 This function is called by:
		_main
 This function uses a non-reentrant model


 *************** function _setup *****************
 Defined at:
		line 172 in file "main.c"
 Parameters:    Size  Location     Type
		None
 Auto vars:     Size  Location     Type
		None
 Return value:  Size  Location     Type
                  1    wreg      void 
 Registers used:
		wreg, status,2, status,0
 Tracked objects:
		On entry : 
		On exit  : 
		Unchanged: 
 Data sizes:     COMRAM   BANK0   BANK1   BANK2   BANK3   BANK4   BANK5   BANK6   BANK7   BANK8   BANK9  BANK10  BANK11  BANK12
      Params:         0       0       0       0       0       0       0       0       0       0       0       0       0       0
      Locals:         0       0       0       0       0       0       0       0       0       0       0       0       0       0
      Temps:          0       0       0       0       0       0       0       0       0       0       0       0       0       0
      Totals:         0       0       0       0       0       0       0       0       0       0       0       0       0       0
Total ram usage:        0 bytes
 Hardware stack levels used:    1
 Hardware stack levels required when called:    5
 This function calls:
		Nothing
 This function is called by:
		_main
 This function uses a non-reentrant model


 *************** function _selectSlotOnBoot *****************
 Defined at:
		line 41 in file "eeprom.c"
 Parameters:    Size  Location     Type
		None
 Auto vars:     Size  Location     Type
  slot            1  108[BANK0 ] unsigned char 
 Return value:  Size  Location     Type
                  1    wreg      void 
 Registers used:
		wreg, fsr2l, fsr2h, status,2, status,0, prodl, prodh, cstack
 Tracked objects:
		On entry : 
		On exit  : 
		Unchanged: 
 Data sizes:     COMRAM   BANK0   BANK1   BANK2   BANK3   BANK4   BANK5   BANK6   BANK7   BANK8   BANK9  BANK10  BANK11  BANK12
      Params:         0       0       0       0       0       0       0       0       0       0       0       0       0       0
      Locals:         0       1       0       0       0       0       0       0       0       0       0       0       0       0
      Temps:          0       0       0       0       0       0       0       0       0       0       0       0       0       0
      Totals:         0       1       0       0       0       0       0       0       0       0       0       0       0       0
Total ram usage:        1 bytes
 Hardware stack levels used:    1
 Hardware stack levels required when called:    8
 This function calls:
		_Read_b_eep
		_loadFromEEPROM
 This function is called by:
		_main
 This function uses a non-reentrant model


 *************** function _panic_button *****************
 Defined at:
		line 426 in file "main.c"
 Parameters:    Size  Location     Type
		None
 Auto vars:     Size  Location     Type
		None
 Return value:  Size  Location     Type
                  1    wreg      void 
 Registers used:
		wreg, fsr2l, fsr2h, status,2, status,0, prodl, prodh, cstack
 Tracked objects:
		On entry : 
		On exit  : 
		Unchanged: 
 Data sizes:     COMRAM   BANK0   BANK1   BANK2   BANK3   BANK4   BANK5   BANK6   BANK7   BANK8   BANK9  BANK10  BANK11  BANK12
      Params:         0       0       0       0       0       0       0       0       0       0       0       0       0       0
      Locals:         0       0       0       0       0       0       0       0       0       0       0       0       0       0
      Temps:          0       0       0       0       0       0       0       0       0       0       0       0       0       0
      Totals:         0       0       0       0       0       0       0       0       0       0       0       0       0       0
Total ram usage:        0 bytes
 Hardware stack levels used:    1
 Hardware stack levels required when called:    7
 This function calls:
		_controlChange
 This function is called by:
		_main
 This function uses a non-reentrant model


 *************** function _menu_lcd *****************
 Defined at:
		line 294 in file "menu.c"
 Parameters:    Size  Location     Type
		None
 Auto vars:     Size  Location     Type
		None
 Return value:  Size  Location     Type
                  1    wreg      void 
 Registers used:
		wreg, fsr1l, fsr1h, fsr2l, fsr2h, status,2, status,0, tblptrl, tblptrh, tblptru, prodl, prodh, cstack
 Tracked objects:
		On entry : 
		On exit  : 
		Unchanged: 
 Data sizes:     COMRAM   BANK0   BANK1   BANK2   BANK3   BANK4   BANK5   BANK6   BANK7   BANK8   BANK9  BANK10  BANK11  BANK12
      Params:         0       0       0       0       0       0       0       0       0       0       0       0       0       0
      Locals:         0       0       0       0       0       0       0       0       0       0       0       0       0       0
      Temps:          0       1       0       0       0       0       0       0       0       0       0       0       0       0
      Totals:         0       1       0       0       0       0       0       0       0       0       0       0       0       0
Total ram usage:        1 bytes
 Hardware stack levels used:    1
 Hardware stack levels required when called:   15
 This function calls:
		_Function_A
		_Function_B
		_Function_C
		_Function_D
		_Function_E
		_Function_F
		_Function_G
		_Function_H
		_Lcd_Clear
		_Lcd_Print_String
		_Lcd_Set_Cursor
		___lbmod
		___wmul
		_exitFunction
 This function is called by:
		_main
 This function uses a non-reentrant model


 *************** function _Lcd_Clear *****************
 Defined at:
		line 53 in file "lcd.c"
 Parameters:    Size  Location     Type
		None
 Auto vars:     Size  Location     Type
		None
 Return value:  Size  Location     Type
                  1    wreg      void 
 Registers used:
		wreg, status,2, cstack
 Tracked objects:
		On entry : 
		On exit  : 
		Unchanged: 
 Data sizes:     COMRAM   BANK0   BANK1   BANK2   BANK3   BANK4   BANK5   BANK6   BANK7   BANK8   BANK9  BANK10  BANK11  BANK12
      Params:         0       0       0       0       0       0       0       0       0       0       0       0       0       0
      Locals:         0       0       0       0       0       0       0       0       0       0       0       0       0       0
      Temps:          0       0       0       0       0       0       0       0       0       0       0       0       0       0
      Totals:         0       0       0       0       0       0       0       0       0       0       0       0       0       0
Total ram usage:        0 bytes
 Hardware stack levels used:    1
 Hardware stack levels required when called:    7
 This function calls:
		_Lcd_Cmd
 This function is called by:
		_menu_lcd
 This function uses a non-reentrant model


 *************** function _Function_H *****************
 Defined at:
		line 986 in file "menu.c"
 Parameters:    Size  Location     Type
		None
 Auto vars:     Size  Location     Type
		None
 Return value:  Size  Location     Type
                  1    wreg      void 
 Registers used:
		wreg, fsr1l, fsr1h, fsr2l, fsr2h, status,2, status,0, tblptrl, tblptrh, tblptru, prodl, prodh, cstack
 Tracked objects:
		On entry : 
		On exit  : 
		Unchanged: 
 Data sizes:     COMRAM   BANK0   BANK1   BANK2   BANK3   BANK4   BANK5   BANK6   BANK7   BANK8   BANK9  BANK10  BANK11  BANK12
      Params:         0       0       0       0       0       0       0       0       0       0       0       0       0       0
      Locals:         0       0       0       0       0       0       0       0       0       0       0       0       0       0
      Temps:          0       1       0       0       0       0       0       0       0       0       0       0       0       0
      Totals:         0       1       0       0       0       0       0       0       0       0       0       0       0       0
Total ram usage:        1 bytes
 Hardware stack levels used:    1
 Hardware stack levels required when called:   14
 This function calls:
		_Function_H_1
		_Function_H_2
		_Function_H_3
		_Function_H_4
		_Function_H_5
		_Function_H_6
		_Function_H_7
		_Function_H_8
		_Function_H_9
		_Lcd_Print_String
		___lbmod
		___wmul
		_clear_row2
		_processEncoderBuxton
 This function is called by:
		_menu_lcd
 This function uses a non-reentrant model


 *************** function _Function_H_9 *****************
 Defined at:
		line 1474 in file "menu.c"
 Parameters:    Size  Location     Type
		None
 Auto vars:     Size  Location     Type
		None
 Return value:  Size  Location     Type
                  1    wreg      void 
 Registers used:
		wreg, fsr1l, fsr1h, status,2, status,0, tblptrl, tblptrh, tblptru, prodl, prodh, cstack
 Tracked objects:
		On entry : 
		On exit  : 
		Unchanged: 
 Data sizes:     COMRAM   BANK0   BANK1   BANK2   BANK3   BANK4   BANK5   BANK6   BANK7   BANK8   BANK9  BANK10  BANK11  BANK12
      Params:         0       0       0       0       0       0       0       0       0       0       0       0       0       0
      Locals:         0       0       0       0       0       0       0       0       0       0       0       0       0       0
      Temps:          0       1       0       0       0       0       0       0       0       0       0       0       0       0
      Totals:         0       1       0       0       0       0       0       0       0       0       0       0       0       0
Total ram usage:        1 bytes
 Hardware stack levels used:    1
 Hardware stack levels required when called:   10
 This function calls:
		_Function_H_9_1
		_Function_H_9_2
		_Function_H_9_3
		_Function_H_9_4
		_Lcd_Print_String
		___lbmod
		___wmul
		_clear_row1
		_clear_row2
		_processEncoderBuxton
 This function is called by:
		_Function_H
 This function uses a non-reentrant model


 *************** function _Function_H_9_4 *****************
 Defined at:
		line 1449 in file "menu.c"
 Parameters:    Size  Location     Type
		None
 Auto vars:     Size  Location     Type
		None
 Return value:  Size  Location     Type
                  1    wreg      void 
 Registers used:
		wreg, fsr1l, fsr1h, status,2, status,0, tblptrl, tblptrh, tblptru, prodl, prodh, cstack
 Tracked objects:
		On entry : 
		On exit  : 
		Unchanged: 
 Data sizes:     COMRAM   BANK0   BANK1   BANK2   BANK3   BANK4   BANK5   BANK6   BANK7   BANK8   BANK9  BANK10  BANK11  BANK12
      Params:         0       0       0       0       0       0       0       0       0       0       0       0       0       0
      Locals:         0       0       0       0       0       0       0       0       0       0       0       0       0       0
      Temps:          0       1       0       0       0       0       0       0       0       0       0       0       0       0
      Totals:         0       1       0       0       0       0       0       0       0       0       0       0       0       0
Total ram usage:        1 bytes
 Hardware stack levels used:    1
 Hardware stack levels required when called:    9
 This function calls:
		_Lcd_Print_String
		___lbmod
		___wmul
		_clear_row1
		_clear_row2
		_processEncoderBuxton
 This function is called by:
		_Function_H_9
 This function uses a non-reentrant model


 *************** function _Function_H_9_3 *****************
 Defined at:
		line 1425 in file "menu.c"
 Parameters:    Size  Location     Type
		None
 Auto vars:     Size  Location     Type
		None
 Return value:  Size  Location     Type
                  1    wreg      void 
 Registers used:
		wreg, fsr1l, fsr1h, status,2, status,0, tblptrl, tblptrh, tblptru, prodl, prodh, cstack
 Tracked objects:
		On entry : 
		On exit  : 
		Unchanged: 
 Data sizes:     COMRAM   BANK0   BANK1   BANK2   BANK3   BANK4   BANK5   BANK6   BANK7   BANK8   BANK9  BANK10  BANK11  BANK12
      Params:         0       0       0       0       0       0       0       0       0       0       0       0       0       0
      Locals:         0       0       0       0       0       0       0       0       0       0       0       0       0       0
      Temps:          0       1       0       0       0       0       0       0       0       0       0       0       0       0
      Totals:         0       1       0       0       0       0       0       0       0       0       0       0       0       0
Total ram usage:        1 bytes
 Hardware stack levels used:    1
 Hardware stack levels required when called:    9
 This function calls:
		_Lcd_Print_String
		___lbmod
		___wmul
		_clear_row1
		_clear_row2
		_processEncoderBuxton
 This function is called by:
		_Function_H_9
 This function uses a non-reentrant model


 *************** function _Function_H_9_2 *****************
 Defined at:
		line 1402 in file "menu.c"
 Parameters:    Size  Location     Type
		None
 Auto vars:     Size  Location     Type
		None
 Return value:  Size  Location     Type
                  1    wreg      void 
 Registers used:
		wreg, fsr1l, fsr1h, status,2, status,0, tblptrl, tblptrh, tblptru, prodl, prodh, cstack
 Tracked objects:
		On entry : 
		On exit  : 
		Unchanged: 
 Data sizes:     COMRAM   BANK0   BANK1   BANK2   BANK3   BANK4   BANK5   BANK6   BANK7   BANK8   BANK9  BANK10  BANK11  BANK12
      Params:         0       0       0       0       0       0       0       0       0       0       0       0       0       0
      Locals:         0       0       0       0       0       0       0       0       0       0       0       0       0       0
      Temps:          0       1       0       0       0       0       0       0       0       0       0       0       0       0
      Totals:         0       1       0       0       0       0       0       0       0       0       0       0       0       0
Total ram usage:        1 bytes
 Hardware stack levels used:    1
 Hardware stack levels required when called:    9
 This function calls:
		_Lcd_Print_String
		___lbmod
		___wmul
		_clear_row1
		_clear_row2
		_processEncoderBuxton
 This function is called by:
		_Function_H_9
 This function uses a non-reentrant model


 *************** function _Function_H_9_1 *****************
 Defined at:
		line 1379 in file "menu.c"
 Parameters:    Size  Location     Type
		None
 Auto vars:     Size  Location     Type
		None
 Return value:  Size  Location     Type
                  1    wreg      void 
 Registers used:
		wreg, fsr1l, fsr1h, status,2, status,0, tblptrl, tblptrh, tblptru, prodl, prodh, cstack
 Tracked objects:
		On entry : 
		On exit  : 
		Unchanged: 
 Data sizes:     COMRAM   BANK0   BANK1   BANK2   BANK3   BANK4   BANK5   BANK6   BANK7   BANK8   BANK9  BANK10  BANK11  BANK12
      Params:         0       0       0       0       0       0       0       0       0       0       0       0       0       0
      Locals:         0       0       0       0       0       0       0       0       0       0       0       0       0       0
      Temps:          0       1       0       0       0       0       0       0       0       0       0       0       0       0
      Totals:         0       1       0       0       0       0       0       0       0       0       0       0       0       0
Total ram usage:        1 bytes
 Hardware stack levels used:    1
 Hardware stack levels required when called:    9
 This function calls:
		_Lcd_Print_String
		___lbmod
		___wmul
		_clear_row1
		_clear_row2
		_processEncoderBuxton
 This function is called by:
		_Function_H_9
 This function uses a non-reentrant model


 *************** function _Function_H_8 *****************
 Defined at:
		line 1357 in file "menu.c"
 Parameters:    Size  Location     Type
		None
 Auto vars:     Size  Location     Type
		None
 Return value:  Size  Location     Type
                  1    wreg      void 
 Registers used:
		wreg, fsr1l, fsr1h, status,2, status,0, tblptrl, tblptrh, tblptru, prodl, prodh, cstack
 Tracked objects:
		On entry : 
		On exit  : 
		Unchanged: 
 Data sizes:     COMRAM   BANK0   BANK1   BANK2   BANK3   BANK4   BANK5   BANK6   BANK7   BANK8   BANK9  BANK10  BANK11  BANK12
      Params:         0       0       0       0       0       0       0       0       0       0       0       0       0       0
      Locals:         0       0       0       0       0       0       0       0       0       0       0       0       0       0
      Temps:          0       1       0       0       0       0       0       0       0       0       0       0       0       0
      Totals:         0       1       0       0       0       0       0       0       0       0       0       0       0       0
Total ram usage:        1 bytes
 Hardware stack levels used:    1
 Hardware stack levels required when called:   10
 This function calls:
		_Function_H_8_1
		_Function_H_8_2
		_Lcd_Print_String
		___lbmod
		___wmul
		_clear_row2
		_processEncoderBuxton
 This function is called by:
		_Function_H
 This function uses a non-reentrant model


 *************** function _Function_H_8_2 *****************
 Defined at:
		line 1335 in file "menu.c"
 Parameters:    Size  Location     Type
		None
 Auto vars:     Size  Location     Type
		None
 Return value:  Size  Location     Type
                  1    wreg      void 
 Registers used:
		wreg, fsr1l, fsr1h, status,2, status,0, tblptrl, tblptrh, tblptru, cstack
 Tracked objects:
		On entry : 
		On exit  : 
		Unchanged: 
 Data sizes:     COMRAM   BANK0   BANK1   BANK2   BANK3   BANK4   BANK5   BANK6   BANK7   BANK8   BANK9  BANK10  BANK11  BANK12
      Params:         0       0       0       0       0       0       0       0       0       0       0       0       0       0
      Locals:         0       0       0       0       0       0       0       0       0       0       0       0       0       0
      Temps:          0       0       0       0       0       0       0       0       0       0       0       0       0       0
      Totals:         0       0       0       0       0       0       0       0       0       0       0       0       0       0
Total ram usage:        0 bytes
 Hardware stack levels used:    1
 Hardware stack levels required when called:    9
 This function calls:
		_Lcd_Print_String
		_clear_row2
		_processEncoderBuxton
 This function is called by:
		_Function_H_8
 This function uses a non-reentrant model


 *************** function _Function_H_8_1 *****************
 Defined at:
		line 1309 in file "menu.c"
 Parameters:    Size  Location     Type
		None
 Auto vars:     Size  Location     Type
		None
 Return value:  Size  Location     Type
                  1    wreg      void 
 Registers used:
		wreg, fsr1l, fsr1h, status,2, status,0, tblptrl, tblptrh, tblptru, cstack
 Tracked objects:
		On entry : 
		On exit  : 
		Unchanged: 
 Data sizes:     COMRAM   BANK0   BANK1   BANK2   BANK3   BANK4   BANK5   BANK6   BANK7   BANK8   BANK9  BANK10  BANK11  BANK12
      Params:         0       0       0       0       0       0       0       0       0       0       0       0       0       0
      Locals:         0       0       0       0       0       0       0       0       0       0       0       0       0       0
      Temps:          0       0       0       0       0       0       0       0       0       0       0       0       0       0
      Totals:         0       0       0       0       0       0       0       0       0       0       0       0       0       0
Total ram usage:        0 bytes
 Hardware stack levels used:    1
 Hardware stack levels required when called:    9
 This function calls:
		_Lcd_Print_String
		_clear_row1
		_clear_row2
		_processEncoderBuxton
 This function is called by:
		_Function_H_8
 This function uses a non-reentrant model


 *************** function _Function_H_7 *****************
 Defined at:
		line 1276 in file "menu.c"
 Parameters:    Size  Location     Type
		None
 Auto vars:     Size  Location     Type
		None
 Return value:  Size  Location     Type
                  1    wreg      void 
 Registers used:
		wreg, fsr1l, fsr1h, fsr2l, fsr2h, status,2, status,0, tblptrl, tblptrh, tblptru, cstack
 Tracked objects:
		On entry : 
		On exit  : 
		Unchanged: 
 Data sizes:     COMRAM   BANK0   BANK1   BANK2   BANK3   BANK4   BANK5   BANK6   BANK7   BANK8   BANK9  BANK10  BANK11  BANK12
      Params:         0       0       0       0       0       0       0       0       0       0       0       0       0       0
      Locals:         0       0       0       0       0       0       0       0       0       0       0       0       0       0
      Temps:          0       0       0       0       0       0       0       0       0       0       0       0       0       0
      Totals:         0       0       0       0       0       0       0       0       0       0       0       0       0       0
Total ram usage:        0 bytes
 Hardware stack levels used:    1
 Hardware stack levels required when called:    9
 This function calls:
		_Lcd_Print_String
		_clear_row1
		_clear_row2
		_processEncoderBuxton
		_strcpy
 This function is called by:
		_Function_H
 This function uses a non-reentrant model


 *************** function _Function_H_6 *****************
 Defined at:
		line 1255 in file "menu.c"
 Parameters:    Size  Location     Type
		None
 Auto vars:     Size  Location     Type
		None
 Return value:  Size  Location     Type
                  1    wreg      void 
 Registers used:
		wreg, fsr1l, fsr1h, fsr2l, fsr2h, status,2, status,0, tblptrl, tblptrh, tblptru, prodl, prodh, cstack
 Tracked objects:
		On entry : 
		On exit  : 
		Unchanged: 
 Data sizes:     COMRAM   BANK0   BANK1   BANK2   BANK3   BANK4   BANK5   BANK6   BANK7   BANK8   BANK9  BANK10  BANK11  BANK12
      Params:         0       0       0       0       0       0       0       0       0       0       0       0       0       0
      Locals:         0       0       0       0       0       0       0       0       0       0       0       0       0       0
      Temps:          0       1       0       0       0       0       0       0       0       0       0       0       0       0
      Totals:         0       1       0       0       0       0       0       0       0       0       0       0       0       0
Total ram usage:        1 bytes
 Hardware stack levels used:    1
 Hardware stack levels required when called:   13
 This function calls:
		_Function_H_6_1
		_Function_H_6_2
		_Lcd_Print_String
		___lbmod
		___wmul
		_clear_row2
		_processEncoderBuxton
 This function is called by:
		_Function_H
 This function uses a non-reentrant model


 *************** function _Function_H_6_2 *****************
 Defined at:
		line 1224 in file "menu.c"
 Parameters:    Size  Location     Type
		None
 Auto vars:     Size  Location     Type
		None
 Return value:  Size  Location     Type
                  1    wreg      void 
 Registers used:
		wreg, fsr1l, fsr1h, fsr2l, fsr2h, status,2, status,0, tblptrl, tblptrh, tblptru, cstack
 Tracked objects:
		On entry : 
		On exit  : 
		Unchanged: 
 Data sizes:     COMRAM   BANK0   BANK1   BANK2   BANK3   BANK4   BANK5   BANK6   BANK7   BANK8   BANK9  BANK10  BANK11  BANK12
      Params:         0       0       0       0       0       0       0       0       0       0       0       0       0       0
      Locals:         0       0       0       0       0       0       0       0       0       0       0       0       0       0
      Temps:          0       0       0       0       0       0       0       0       0       0       0       0       0       0
      Totals:         0       0       0       0       0       0       0       0       0       0       0       0       0       0
Total ram usage:        0 bytes
 Hardware stack levels used:    1
 Hardware stack levels required when called:    9
 This function calls:
		_Lcd_Print_String
		_clear_row1
		_clear_row2
		_processEncoderBuxton
		_strcpy
 This function is called by:
		_Function_H_6
 This function uses a non-reentrant model


 *************** function _Function_H_6_1 *****************
 Defined at:
		line 1170 in file "menu.c"
 Parameters:    Size  Location     Type
		None
 Auto vars:     Size  Location     Type
		None
 Return value:  Size  Location     Type
                  1    wreg      void 
 Registers used:
		wreg, fsr1l, fsr1h, fsr2l, fsr2h, status,2, status,0, tblptrl, tblptrh, tblptru, prodl, prodh, cstack
 Tracked objects:
		On entry : 
		On exit  : 
		Unchanged: 
 Data sizes:     COMRAM   BANK0   BANK1   BANK2   BANK3   BANK4   BANK5   BANK6   BANK7   BANK8   BANK9  BANK10  BANK11  BANK12
      Params:         0       0       0       0       0       0       0       0       0       0       0       0       0       0
      Locals:         0       0       0       0       0       0       0       0       0       0       0       0       0       0
      Temps:          0       0       0       0       0       0       0       0       0       0       0       0       0       0
      Totals:         0       0       0       0       0       0       0       0       0       0       0       0       0       0
Total ram usage:        0 bytes
 Hardware stack levels used:    1
 Hardware stack levels required when called:   12
 This function calls:
		_Lcd_Print_String
		_clear_row1
		_clear_row2
		_playThisNote
		_playThisNote8
		_playThisNotePentatonic
		_processEncoderBuxton
		_strcpy
 This function is called by:
		_Function_H_6
 This function uses a non-reentrant model


 *************** function _Function_H_5 *****************
 Defined at:
		line 1137 in file "menu.c"
 Parameters:    Size  Location     Type
		None
 Auto vars:     Size  Location     Type
  i               1   17[BANK0 ] unsigned char 
 Return value:  Size  Location     Type
                  1    wreg      void 
 Registers used:
		wreg, fsr1l, fsr1h, fsr2l, fsr2h, status,2, status,0, tblptrl, tblptrh, tblptru, prodl, prodh, cstack
 Tracked objects:
		On entry : 
		On exit  : 
		Unchanged: 
 Data sizes:     COMRAM   BANK0   BANK1   BANK2   BANK3   BANK4   BANK5   BANK6   BANK7   BANK8   BANK9  BANK10  BANK11  BANK12
      Params:         0       0       0       0       0       0       0       0       0       0       0       0       0       0
      Locals:         0       1       0       0       0       0       0       0       0       0       0       0       0       0
      Temps:          0       1       0       0       0       0       0       0       0       0       0       0       0       0
      Totals:         0       2       0       0       0       0       0       0       0       0       0       0       0       0
Total ram usage:        2 bytes
 Hardware stack levels used:    1
 Hardware stack levels required when called:    9
 This function calls:
		_Lcd_Print_String
		___lbmod
		___wmul
		_clear_row1
		_clear_row2
		_processEncoderBuxton
 This function is called by:
		_Function_H
 This function uses a non-reentrant model


 *************** function _Function_H_4 *****************
 Defined at:
		line 1103 in file "menu.c"
 Parameters:    Size  Location     Type
		None
 Auto vars:     Size  Location     Type
		None
 Return value:  Size  Location     Type
                  1    wreg      void 
 Registers used:
		wreg, fsr1l, fsr1h, fsr2l, fsr2h, status,2, status,0, tblptrl, tblptrh, tblptru, prodl, prodh, cstack
 Tracked objects:
		On entry : 
		On exit  : 
		Unchanged: 
 Data sizes:     COMRAM   BANK0   BANK1   BANK2   BANK3   BANK4   BANK5   BANK6   BANK7   BANK8   BANK9  BANK10  BANK11  BANK12
      Params:         0       0       0       0       0       0       0       0       0       0       0       0       0       0
      Locals:         0       0       0       0       0       0       0       0       0       0       0       0       0       0
      Temps:          0       1       0       0       0       0       0       0       0       0       0       0       0       0
      Totals:         0       1       0       0       0       0       0       0       0       0       0       0       0       0
Total ram usage:        1 bytes
 Hardware stack levels used:    1
 Hardware stack levels required when called:    9
 This function calls:
		_Lcd_Print_String
		___lbmod
		___wmul
		_clear_row1
		_clear_row2
		_processEncoderBuxton
		_setupArpeggio
 This function is called by:
		_Function_H
 This function uses a non-reentrant model


 *************** function _Function_H_3 *****************
 Defined at:
		line 1076 in file "menu.c"
 Parameters:    Size  Location     Type
		None
 Auto vars:     Size  Location     Type
		None
 Return value:  Size  Location     Type
                  1    wreg      void 
 Registers used:
		wreg, fsr1l, fsr1h, status,2, status,0, tblptrl, tblptrh, tblptru, cstack
 Tracked objects:
		On entry : 
		On exit  : 
		Unchanged: 
 Data sizes:     COMRAM   BANK0   BANK1   BANK2   BANK3   BANK4   BANK5   BANK6   BANK7   BANK8   BANK9  BANK10  BANK11  BANK12
      Params:         0       0       0       0       0       0       0       0       0       0       0       0       0       0
      Locals:         0       0       0       0       0       0       0       0       0       0       0       0       0       0
      Temps:          0       0       0       0       0       0       0       0       0       0       0       0       0       0
      Totals:         0       0       0       0       0       0       0       0       0       0       0       0       0       0
Total ram usage:        0 bytes
 Hardware stack levels used:    1
 Hardware stack levels required when called:    9
 This function calls:
		_Lcd_Print_String
		_Lcd_Set_Cursor
		_clear_row2
		_int2string
		_processEncoderBuxton
 This function is called by:
		_Function_H
 This function uses a non-reentrant model


 *************** function _Function_H_2 *****************
 Defined at:
		line 1049 in file "menu.c"
 Parameters:    Size  Location     Type
		None
 Auto vars:     Size  Location     Type
		None
 Return value:  Size  Location     Type
                  1    wreg      void 
 Registers used:
		wreg, fsr1l, fsr1h, status,2, status,0, tblptrl, tblptrh, tblptru, prodl, prodh, cstack
 Tracked objects:
		On entry : 
		On exit  : 
		Unchanged: 
 Data sizes:     COMRAM   BANK0   BANK1   BANK2   BANK3   BANK4   BANK5   BANK6   BANK7   BANK8   BANK9  BANK10  BANK11  BANK12
      Params:         0       0       0       0       0       0       0       0       0       0       0       0       0       0
      Locals:         0       0       0       0       0       0       0       0       0       0       0       0       0       0
      Temps:          0       0       0       0       0       0       0       0       0       0       0       0       0       0
      Totals:         0       0       0       0       0       0       0       0       0       0       0       0       0       0
Total ram usage:        0 bytes
 Hardware stack levels used:    1
 Hardware stack levels required when called:    9
 This function calls:
		_Lcd_Print_String
		_Lcd_Set_Cursor
		_calculate_pulse_length
		_clear_row2
		_int2string
		_processEncoderBuxton
 This function is called by:
		_Function_H
 This function uses a non-reentrant model


 *************** function _Function_H_1 *****************
 Defined at:
		line 1013 in file "menu.c"
 Parameters:    Size  Location     Type
		None
 Auto vars:     Size  Location     Type
		None
 Return value:  Size  Location     Type
                  1    wreg      void 
 Registers used:
		wreg, fsr1l, fsr1h, fsr2l, fsr2h, status,2, status,0, tblptrl, tblptrh, tblptru, cstack
 Tracked objects:
		On entry : 
		On exit  : 
		Unchanged: 
 Data sizes:     COMRAM   BANK0   BANK1   BANK2   BANK3   BANK4   BANK5   BANK6   BANK7   BANK8   BANK9  BANK10  BANK11  BANK12
      Params:         0       0       0       0       0       0       0       0       0       0       0       0       0       0
      Locals:         0       0       0       0       0       0       0       0       0       0       0       0       0       0
      Temps:          0       0       0       0       0       0       0       0       0       0       0       0       0       0
      Totals:         0       0       0       0       0       0       0       0       0       0       0       0       0       0
Total ram usage:        0 bytes
 Hardware stack levels used:    1
 Hardware stack levels required when called:    9
 This function calls:
		_Lcd_Print_String
		_clear_row2
		_processEncoderBuxton
		_strcpy
 This function is called by:
		_Function_H
 This function uses a non-reentrant model


 *************** function _Function_G *****************
 Defined at:
		line 962 in file "menu.c"
 Parameters:    Size  Location     Type
		None
 Auto vars:     Size  Location     Type
		None
 Return value:  Size  Location     Type
                  1    wreg      void 
 Registers used:
		wreg, fsr1l, fsr1h, fsr2l, fsr2h, status,2, status,0, tblptrl, tblptrh, tblptru, prodl, prodh, cstack
 Tracked objects:
		On entry : 
		On exit  : 
		Unchanged: 
 Data sizes:     COMRAM   BANK0   BANK1   BANK2   BANK3   BANK4   BANK5   BANK6   BANK7   BANK8   BANK9  BANK10  BANK11  BANK12
      Params:         0       0       0       0       0       0       0       0       0       0       0       0       0       0
      Locals:         0       0       0       0       0       0       0       0       0       0       0       0       0       0
      Temps:          0       1       0       0       0       0       0       0       0       0       0       0       0       0
      Totals:         0       1       0       0       0       0       0       0       0       0       0       0       0       0
Total ram usage:        1 bytes
 Hardware stack levels used:    1
 Hardware stack levels required when called:   11
 This function calls:
		_Function_G_1
		_Function_G_2
		_Function_G_3
		_Function_G_4
		_Lcd_Print_String
		___lbmod
		___wmul
		_clear_row2
		_eepromExit
		_processEncoderBuxton
 This function is called by:
		_menu_lcd
 This function uses a non-reentrant model


 *************** function _Function_G_4 *****************
 Defined at:
		line 933 in file "menu.c"
 Parameters:    Size  Location     Type
		None
 Auto vars:     Size  Location     Type
		None
 Return value:  Size  Location     Type
                  1    wreg      void 
 Registers used:
		wreg, fsr1l, fsr1h, status,2, status,0, tblptrl, tblptrh, tblptru, prodl, prodh, cstack
 Tracked objects:
		On entry : 
		On exit  : 
		Unchanged: 
 Data sizes:     COMRAM   BANK0   BANK1   BANK2   BANK3   BANK4   BANK5   BANK6   BANK7   BANK8   BANK9  BANK10  BANK11  BANK12
      Params:         0       0       0       0       0       0       0       0       0       0       0       0       0       0
      Locals:         0       0       0       0       0       0       0       0       0       0       0       0       0       0
      Temps:          0       1       0       0       0       0       0       0       0       0       0       0       0       0
      Totals:         0       1       0       0       0       0       0       0       0       0       0       0       0       0
Total ram usage:        1 bytes
 Hardware stack levels used:    1
 Hardware stack levels required when called:   10
 This function calls:
		_Busy_eep
		_Lcd_Print_String
		_Write_b_eep
		___lbmod
		___wmul
		_clear_row1
		_clear_row2
		_exitFunction
		_processEncoderBuxton
 This function is called by:
		_Function_G
 This function uses a non-reentrant model


 *************** function _exitFunction *****************
 Defined at:
		line 242 in file "menu.c"
 Parameters:    Size  Location     Type
		None
 Auto vars:     Size  Location     Type
		None
 Return value:  Size  Location     Type
                  1    wreg      void 
 Registers used:
		wreg, fsr1l, fsr1h, status,2, status,0, tblptrl, tblptrh, tblptru, cstack
 Tracked objects:
		On entry : 
		On exit  : 
		Unchanged: 
 Data sizes:     COMRAM   BANK0   BANK1   BANK2   BANK3   BANK4   BANK5   BANK6   BANK7   BANK8   BANK9  BANK10  BANK11  BANK12
      Params:         0       0       0       0       0       0       0       0       0       0       0       0       0       0
      Locals:         0       0       0       0       0       0       0       0       0       0       0       0       0       0
      Temps:          0       2       0       0       0       0       0       0       0       0       0       0       0       0
      Totals:         0       2       0       0       0       0       0       0       0       0       0       0       0       0
Total ram usage:        2 bytes
 Hardware stack levels used:    1
 Hardware stack levels required when called:    9
 This function calls:
		_Lcd_Print_String
		_clear_row1
 This function is called by:
		_menu_lcd
		_Function_G_4
 This function uses a non-reentrant model


 *************** function _Function_G_3 *****************
 Defined at:
		line 918 in file "menu.c"
 Parameters:    Size  Location     Type
		None
 Auto vars:     Size  Location     Type
		None
 Return value:  Size  Location     Type
                  1    wreg      void 
 Registers used:
		wreg, fsr1l, fsr1h, status,2, status,0, tblptrl, tblptrh, tblptru, cstack
 Tracked objects:
		On entry : 
		On exit  : 
		Unchanged: 
 Data sizes:     COMRAM   BANK0   BANK1   BANK2   BANK3   BANK4   BANK5   BANK6   BANK7   BANK8   BANK9  BANK10  BANK11  BANK12
      Params:         0       0       0       0       0       0       0       0       0       0       0       0       0       0
      Locals:         0       0       0       0       0       0       0       0       0       0       0       0       0       0
      Temps:          0       2       0       0       0       0       0       0       0       0       0       0       0       0
      Totals:         0       2       0       0       0       0       0       0       0       0       0       0       0       0
Total ram usage:        2 bytes
 Hardware stack levels used:    1
 Hardware stack levels required when called:    9
 This function calls:
		_Busy_eep
		_Lcd_Print_String
		_Write_b_eep
		_clear_row1
		_clear_row2
 This function is called by:
		_Function_G
 This function uses a non-reentrant model


 *************** function _Function_G_2 *****************
 Defined at:
		line 889 in file "menu.c"
 Parameters:    Size  Location     Type
		None
 Auto vars:     Size  Location     Type
		None
 Return value:  Size  Location     Type
                  1    wreg      void 
 Registers used:
		wreg, fsr1l, fsr1h, fsr2l, fsr2h, status,2, status,0, tblptrl, tblptrh, tblptru, prodl, prodh, cstack
 Tracked objects:
		On entry : 
		On exit  : 
		Unchanged: 
 Data sizes:     COMRAM   BANK0   BANK1   BANK2   BANK3   BANK4   BANK5   BANK6   BANK7   BANK8   BANK9  BANK10  BANK11  BANK12
      Params:         0       0       0       0       0       0       0       0       0       0       0       0       0       0
      Locals:         0       0       0       0       0       0       0       0       0       0       0       0       0       0
      Temps:          0       1       0       0       0       0       0       0       0       0       0       0       0       0
      Totals:         0       1       0       0       0       0       0       0       0       0       0       0       0       0
Total ram usage:        1 bytes
 Hardware stack levels used:    1
 Hardware stack levels required when called:   10
 This function calls:
		_Busy_eep
		_Lcd_Print_String
		_Write_b_eep
		___lbmod
		___wmul
		_clear_row1
		_clear_row2
		_eepromExit
		_exitLoad
		_loadFromEEPROM
		_processEncoderBuxton
 This function is called by:
		_Function_G
 This function uses a non-reentrant model


 *************** function _loadFromEEPROM *****************
 Defined at:
		line 54 in file "eeprom.c"
 Parameters:    Size  Location     Type
  slotNumber      1    wreg     unsigned char 
 Auto vars:     Size  Location     Type
  slotNumber      1   77[BANK1 ] unsigned char 
  byte_count      2   78[BANK1 ] unsigned int 
  to_load        75    0[BANK1 ] unsigned char [75]
  baseAddress     2   75[BANK1 ] unsigned int 
 Return value:  Size  Location     Type
                  1    wreg      void 
 Registers used:
		wreg, fsr2l, fsr2h, status,2, status,0, prodl, prodh, cstack
 Tracked objects:
		On entry : 
		On exit  : 
		Unchanged: 
 Data sizes:     COMRAM   BANK0   BANK1   BANK2   BANK3   BANK4   BANK5   BANK6   BANK7   BANK8   BANK9  BANK10  BANK11  BANK12
      Params:         0       0       0       0       0       0       0       0       0       0       0       0       0       0
      Locals:         0       0      80       0       0       0       0       0       0       0       0       0       0       0
      Temps:          0       0       0       0       0       0       0       0       0       0       0       0       0       0
      Totals:         0       0      80       0       0       0       0       0       0       0       0       0       0       0
Total ram usage:       80 bytes
 Hardware stack levels used:    1
 Hardware stack levels required when called:    7
 This function calls:
		_Read_b_eep
		_calculate_pulse_length
 This function is called by:
		_Function_G_2
		_selectSlotOnBoot
 This function uses a non-reentrant model


 *************** function _calculate_pulse_length *****************
 Defined at:
		line 137 in file "arpeggio.c"
 Parameters:    Size  Location     Type
		None
 Auto vars:     Size  Location     Type
  s_tick          4  100[BANK0 ] void 
 Return value:  Size  Location     Type
                  2   98[BANK0 ] unsigned short 
 Registers used:
		wreg, status,2, status,0, prodl, prodh, cstack
 Tracked objects:
		On entry : 
		On exit  : 
		Unchanged: 
 Data sizes:     COMRAM   BANK0   BANK1   BANK2   BANK3   BANK4   BANK5   BANK6   BANK7   BANK8   BANK9  BANK10  BANK11  BANK12
      Params:         0       2       0       0       0       0       0       0       0       0       0       0       0       0
      Locals:         0       8       0       0       0       0       0       0       0       0       0       0       0       0
      Temps:          0       0       0       0       0       0       0       0       0       0       0       0       0       0
      Totals:         0      10       0       0       0       0       0       0       0       0       0       0       0       0
Total ram usage:       10 bytes
 Hardware stack levels used:    1
 Hardware stack levels required when called:    6
 This function calls:
		___fladd
		___fldiv
		___flmul
		___flneg
		___fltol
		___xxtofl
 This function is called by:
		_Function_H_2
		_loadFromEEPROM
		_main
 This function uses a non-reentrant model


 *************** function _exitLoad *****************
 Defined at:
		line 268 in file "menu.c"
 Parameters:    Size  Location     Type
		None
 Auto vars:     Size  Location     Type
		None
 Return value:  Size  Location     Type
                  1    wreg      void 
 Registers used:
		wreg, fsr1l, fsr1h, status,2, status,0, tblptrl, tblptrh, tblptru, cstack
 Tracked objects:
		On entry : 
		On exit  : 
		Unchanged: 
 Data sizes:     COMRAM   BANK0   BANK1   BANK2   BANK3   BANK4   BANK5   BANK6   BANK7   BANK8   BANK9  BANK10  BANK11  BANK12
      Params:         0       0       0       0       0       0       0       0       0       0       0       0       0       0
      Locals:         0       0       0       0       0       0       0       0       0       0       0       0       0       0
      Temps:          0       2       0       0       0       0       0       0       0       0       0       0       0       0
      Totals:         0       2       0       0       0       0       0       0       0       0       0       0       0       0
Total ram usage:        2 bytes
 Hardware stack levels used:    1
 Hardware stack levels required when called:    9
 This function calls:
		_Lcd_Print_String
		_clear_row1
 This function is called by:
		_Function_G_2
 This function uses a non-reentrant model


 *************** function _Function_G_1 *****************
 Defined at:
		line 860 in file "menu.c"
 Parameters:    Size  Location     Type
		None
 Auto vars:     Size  Location     Type
		None
 Return value:  Size  Location     Type
                  1    wreg      void 
 Registers used:
		wreg, fsr1l, fsr1h, fsr2l, fsr2h, status,2, status,0, tblptrl, tblptrh, tblptru, prodl, prodh, cstack
 Tracked objects:
		On entry : 
		On exit  : 
		Unchanged: 
 Data sizes:     COMRAM   BANK0   BANK1   BANK2   BANK3   BANK4   BANK5   BANK6   BANK7   BANK8   BANK9  BANK10  BANK11  BANK12
      Params:         0       0       0       0       0       0       0       0       0       0       0       0       0       0
      Locals:         0       0       0       0       0       0       0       0       0       0       0       0       0       0
      Temps:          0       1       0       0       0       0       0       0       0       0       0       0       0       0
      Totals:         0       1       0       0       0       0       0       0       0       0       0       0       0       0
Total ram usage:        1 bytes
 Hardware stack levels used:    1
 Hardware stack levels required when called:   10
 This function calls:
		_Busy_eep
		_Lcd_Print_String
		_Write_b_eep
		___lbmod
		___wmul
		_clear_row1
		_clear_row2
		_eepromExit
		_exitSave
		_processEncoderBuxton
		_saveToEEPROM
 This function is called by:
		_Function_G
 This function uses a non-reentrant model


 *************** function _exitSave *****************
 Defined at:
		line 255 in file "menu.c"
 Parameters:    Size  Location     Type
		None
 Auto vars:     Size  Location     Type
		None
 Return value:  Size  Location     Type
                  1    wreg      void 
 Registers used:
		wreg, fsr1l, fsr1h, status,2, status,0, tblptrl, tblptrh, tblptru, cstack
 Tracked objects:
		On entry : 
		On exit  : 
		Unchanged: 
 Data sizes:     COMRAM   BANK0   BANK1   BANK2   BANK3   BANK4   BANK5   BANK6   BANK7   BANK8   BANK9  BANK10  BANK11  BANK12
      Params:         0       0       0       0       0       0       0       0       0       0       0       0       0       0
      Locals:         0       0       0       0       0       0       0       0       0       0       0       0       0       0
      Temps:          0       2       0       0       0       0       0       0       0       0       0       0       0       0
      Totals:         0       2       0       0       0       0       0       0       0       0       0       0       0       0
Total ram usage:        2 bytes
 Hardware stack levels used:    1
 Hardware stack levels required when called:    9
 This function calls:
		_Lcd_Print_String
		_clear_row1
 This function is called by:
		_Function_G_1
 This function uses a non-reentrant model


 *************** function _eepromExit *****************
 Defined at:
		line 281 in file "menu.c"
 Parameters:    Size  Location     Type
		None
 Auto vars:     Size  Location     Type
		None
 Return value:  Size  Location     Type
                  1    wreg      void 
 Registers used:
		wreg, fsr1l, fsr1h, status,2, status,0, tblptrl, tblptrh, tblptru, cstack
 Tracked objects:
		On entry : 
		On exit  : 
		Unchanged: 
 Data sizes:     COMRAM   BANK0   BANK1   BANK2   BANK3   BANK4   BANK5   BANK6   BANK7   BANK8   BANK9  BANK10  BANK11  BANK12
      Params:         0       0       0       0       0       0       0       0       0       0       0       0       0       0
      Locals:         0       0       0       0       0       0       0       0       0       0       0       0       0       0
      Temps:          0       2       0       0       0       0       0       0       0       0       0       0       0       0
      Totals:         0       2       0       0       0       0       0       0       0       0       0       0       0       0
Total ram usage:        2 bytes
 Hardware stack levels used:    1
 Hardware stack levels required when called:    9
 This function calls:
		_Lcd_Print_String
		_clear_row1
 This function is called by:
		_Function_G_1
		_Function_G_2
		_Function_G
 This function uses a non-reentrant model


 *************** function _Function_F *****************
 Defined at:
		line 834 in file "menu.c"
 Parameters:    Size  Location     Type
		None
 Auto vars:     Size  Location     Type
		None
 Return value:  Size  Location     Type
                  1    wreg      void 
 Registers used:
		wreg, fsr1l, fsr1h, fsr2l, fsr2h, status,2, status,0, tblptrl, tblptrh, tblptru, prodl, prodh, cstack
 Tracked objects:
		On entry : 
		On exit  : 
		Unchanged: 
 Data sizes:     COMRAM   BANK0   BANK1   BANK2   BANK3   BANK4   BANK5   BANK6   BANK7   BANK8   BANK9  BANK10  BANK11  BANK12
      Params:         0       0       0       0       0       0       0       0       0       0       0       0       0       0
      Locals:         0       0       0       0       0       0       0       0       0       0       0       0       0       0
      Temps:          0       0       0       0       0       0       0       0       0       0       0       0       0       0
      Totals:         0       0       0       0       0       0       0       0       0       0       0       0       0       0
Total ram usage:        0 bytes
 Hardware stack levels used:    1
 Hardware stack levels required when called:    9
 This function calls:
		_Lcd_Print_String
		_Lcd_Set_Cursor
		_clear_row2
		_int2string
		_processEncoderBuxton
		_programChange
 This function is called by:
		_menu_lcd
 This function uses a non-reentrant model


 *************** function _programChange *****************
 Defined at:
		line 166 in file "midi.c"
 Parameters:    Size  Location     Type
  channel         1    wreg     unsigned char 
  data1           1   11[BANK0 ] unsigned char 
  data2           1   12[BANK0 ] unsigned char 
 Auto vars:     Size  Location     Type
  channel         1   13[BANK0 ] unsigned char 
 Return value:  Size  Location     Type
                  1    wreg      void 
 Registers used:
		wreg, fsr2l, fsr2h, status,2, status,0, prodl, prodh, cstack
 Tracked objects:
		On entry : 
		On exit  : 
		Unchanged: 
 Data sizes:     COMRAM   BANK0   BANK1   BANK2   BANK3   BANK4   BANK5   BANK6   BANK7   BANK8   BANK9  BANK10  BANK11  BANK12
      Params:         0       2       0       0       0       0       0       0       0       0       0       0       0       0
      Locals:         0       1       0       0       0       0       0       0       0       0       0       0       0       0
      Temps:          0       0       0       0       0       0       0       0       0       0       0       0       0       0
      Totals:         0       3       0       0       0       0       0       0       0       0       0       0       0       0
Total ram usage:        3 bytes
 Hardware stack levels used:    1
 Hardware stack levels required when called:    6
 This function calls:
		_sendOut
		_sendUSB
 This function is called by:
		_Function_F
 This function uses a non-reentrant model


 *************** function _Function_E *****************
 Defined at:
		line 815 in file "menu.c"
 Parameters:    Size  Location     Type
		None
 Auto vars:     Size  Location     Type
		None
 Return value:  Size  Location     Type
                  1    wreg      void 
 Registers used:
		wreg, fsr1l, fsr1h, status,2, status,0, tblptrl, tblptrh, tblptru, prodl, prodh, cstack
 Tracked objects:
		On entry : 
		On exit  : 
		Unchanged: 
 Data sizes:     COMRAM   BANK0   BANK1   BANK2   BANK3   BANK4   BANK5   BANK6   BANK7   BANK8   BANK9  BANK10  BANK11  BANK12
      Params:         0       0       0       0       0       0       0       0       0       0       0       0       0       0
      Locals:         0       0       0       0       0       0       0       0       0       0       0       0       0       0
      Temps:          0       1       0       0       0       0       0       0       0       0       0       0       0       0
      Totals:         0       1       0       0       0       0       0       0       0       0       0       0       0       0
Total ram usage:        1 bytes
 Hardware stack levels used:    1
 Hardware stack levels required when called:    9
 This function calls:
		_Function_E_1
		_Function_E_2
		_Lcd_Print_String
		___lbmod
		___wmul
		_clear_row2
		_processEncoderBuxton
 This function is called by:
		_menu_lcd
 This function uses a non-reentrant model


 *************** function _Function_E_2 *****************
 Defined at:
		line 796 in file "menu.c"
 Parameters:    Size  Location     Type
		None
 Auto vars:     Size  Location     Type
		None
 Return value:  Size  Location     Type
                  1    wreg      void 
 Registers used:
		wreg, fsr1l, fsr1h, status,2, status,0, tblptrl, tblptrh, tblptru, cstack
 Tracked objects:
		On entry : 
		On exit  : 
		Unchanged: 
 Data sizes:     COMRAM   BANK0   BANK1   BANK2   BANK3   BANK4   BANK5   BANK6   BANK7   BANK8   BANK9  BANK10  BANK11  BANK12
      Params:         0       0       0       0       0       0       0       0       0       0       0       0       0       0
      Locals:         0       0       0       0       0       0       0       0       0       0       0       0       0       0
      Temps:          0       0       0       0       0       0       0       0       0       0       0       0       0       0
      Totals:         0       0       0       0       0       0       0       0       0       0       0       0       0       0
Total ram usage:        0 bytes
 Hardware stack levels used:    1
 Hardware stack levels required when called:    8
 This function calls:
		_Lcd_Print_String
		_Lcd_Set_Cursor
		_int2string
		_processEncoderBuxton
 This function is called by:
		_Function_E
 This function uses a non-reentrant model


 *************** function _Function_E_1 *****************
 Defined at:
		line 775 in file "menu.c"
 Parameters:    Size  Location     Type
		None
 Auto vars:     Size  Location     Type
		None
 Return value:  Size  Location     Type
                  1    wreg      void 
 Registers used:
		wreg, fsr1l, fsr1h, status,2, status,0, tblptrl, tblptrh, tblptru, cstack
 Tracked objects:
		On entry : 
		On exit  : 
		Unchanged: 
 Data sizes:     COMRAM   BANK0   BANK1   BANK2   BANK3   BANK4   BANK5   BANK6   BANK7   BANK8   BANK9  BANK10  BANK11  BANK12
      Params:         0       0       0       0       0       0       0       0       0       0       0       0       0       0
      Locals:         0       0       0       0       0       0       0       0       0       0       0       0       0       0
      Temps:          0       0       0       0       0       0       0       0       0       0       0       0       0       0
      Totals:         0       0       0       0       0       0       0       0       0       0       0       0       0       0
Total ram usage:        0 bytes
 Hardware stack levels used:    1
 Hardware stack levels required when called:    8
 This function calls:
		_Lcd_Print_String
		_Lcd_Set_Cursor
		_int2string
		_processEncoderBuxton
 This function is called by:
		_Function_E
 This function uses a non-reentrant model


 *************** function _Function_D *****************
 Defined at:
		line 752 in file "menu.c"
 Parameters:    Size  Location     Type
		None
 Auto vars:     Size  Location     Type
		None
 Return value:  Size  Location     Type
                  1    wreg      void 
 Registers used:
		wreg, fsr1l, fsr1h, fsr2l, fsr2h, status,2, status,0, tblptrl, tblptrh, tblptru, prodl, prodh, cstack
 Tracked objects:
		On entry : 
		On exit  : 
		Unchanged: 
 Data sizes:     COMRAM   BANK0   BANK1   BANK2   BANK3   BANK4   BANK5   BANK6   BANK7   BANK8   BANK9  BANK10  BANK11  BANK12
      Params:         0       0       0       0       0       0       0       0       0       0       0       0       0       0
      Locals:         0       0       0       0       0       0       0       0       0       0       0       0       0       0
      Temps:          0       1       0       0       0       0       0       0       0       0       0       0       0       0
      Totals:         0       1       0       0       0       0       0       0       0       0       0       0       0       0
Total ram usage:        1 bytes
 Hardware stack levels used:    1
 Hardware stack levels required when called:   10
 This function calls:
		_Function_D_1
		_Function_D_2
		_Function_D_3
		_Function_D_4
		_Function_D_5
		_Lcd_Print_String
		___lbmod
		___wmul
		_clear_row2
		_processEncoderBuxton
 This function is called by:
		_menu_lcd
 This function uses a non-reentrant model


 *************** function _Function_D_5 *****************
 Defined at:
		line 726 in file "menu.c"
 Parameters:    Size  Location     Type
		None
 Auto vars:     Size  Location     Type
  array_index     1   29[BANK0 ] unsigned char 
 Return value:  Size  Location     Type
                  1    wreg      void 
 Registers used:
		wreg, fsr1l, fsr1h, fsr2l, fsr2h, status,2, status,0, tblptrl, tblptrh, tblptru, prodl, prodh, cstack
 Tracked objects:
		On entry : 
		On exit  : 
		Unchanged: 
 Data sizes:     COMRAM   BANK0   BANK1   BANK2   BANK3   BANK4   BANK5   BANK6   BANK7   BANK8   BANK9  BANK10  BANK11  BANK12
      Params:         0       0       0       0       0       0       0       0       0       0       0       0       0       0
      Locals:         0       1       0       0       0       0       0       0       0       0       0       0       0       0
      Temps:          0       1       0       0       0       0       0       0       0       0       0       0       0       0
      Totals:         0       2       0       0       0       0       0       0       0       0       0       0       0       0
Total ram usage:        2 bytes
 Hardware stack levels used:    1
 Hardware stack levels required when called:    9
 This function calls:
		_Lcd_Print_String
		___lbmod
		___wmul
		_clear_row1
		_clear_row2
		_processEncoderBuxton
		_setControllerNumbers
 This function is called by:
		_Function_D
 This function uses a non-reentrant model


 *************** function _Function_D_4 *****************
 Defined at:
		line 699 in file "menu.c"
 Parameters:    Size  Location     Type
		None
 Auto vars:     Size  Location     Type
  array_index     1   29[BANK0 ] unsigned char 
 Return value:  Size  Location     Type
                  1    wreg      void 
 Registers used:
		wreg, fsr1l, fsr1h, fsr2l, fsr2h, status,2, status,0, tblptrl, tblptrh, tblptru, prodl, prodh, cstack
 Tracked objects:
		On entry : 
		On exit  : 
		Unchanged: 
 Data sizes:     COMRAM   BANK0   BANK1   BANK2   BANK3   BANK4   BANK5   BANK6   BANK7   BANK8   BANK9  BANK10  BANK11  BANK12
      Params:         0       0       0       0       0       0       0       0       0       0       0       0       0       0
      Locals:         0       1       0       0       0       0       0       0       0       0       0       0       0       0
      Temps:          0       1       0       0       0       0       0       0       0       0       0       0       0       0
      Totals:         0       2       0       0       0       0       0       0       0       0       0       0       0       0
Total ram usage:        2 bytes
 Hardware stack levels used:    1
 Hardware stack levels required when called:    9
 This function calls:
		_Lcd_Print_String
		___lbmod
		___wmul
		_clear_row1
		_clear_row2
		_processEncoderBuxton
		_setControllerNumbers
 This function is called by:
		_Function_D
 This function uses a non-reentrant model


 *************** function _Function_D_3 *****************
 Defined at:
		line 675 in file "menu.c"
 Parameters:    Size  Location     Type
		None
 Auto vars:     Size  Location     Type
  array_index     1   29[BANK0 ] unsigned char 
 Return value:  Size  Location     Type
                  1    wreg      void 
 Registers used:
		wreg, fsr1l, fsr1h, fsr2l, fsr2h, status,2, status,0, tblptrl, tblptrh, tblptru, prodl, prodh, cstack
 Tracked objects:
		On entry : 
		On exit  : 
		Unchanged: 
 Data sizes:     COMRAM   BANK0   BANK1   BANK2   BANK3   BANK4   BANK5   BANK6   BANK7   BANK8   BANK9  BANK10  BANK11  BANK12
      Params:         0       0       0       0       0       0       0       0       0       0       0       0       0       0
      Locals:         0       1       0       0       0       0       0       0       0       0       0       0       0       0
      Temps:          0       1       0       0       0       0       0       0       0       0       0       0       0       0
      Totals:         0       2       0       0       0       0       0       0       0       0       0       0       0       0
Total ram usage:        2 bytes
 Hardware stack levels used:    1
 Hardware stack levels required when called:    9
 This function calls:
		_Lcd_Print_String
		___lbmod
		___wmul
		_clear_row1
		_clear_row2
		_processEncoderBuxton
		_setControllerNumbers
 This function is called by:
		_Function_D
 This function uses a non-reentrant model


 *************** function _setControllerNumbers *****************
 Defined at:
		line 125 in file "menu.c"
 Parameters:    Size  Location     Type
  array_index     1    wreg     unsigned char 
 Auto vars:     Size  Location     Type
  array_index     1   27[BANK0 ] unsigned char 
 Return value:  Size  Location     Type
                  1    wreg      void 
 Registers used:
		wreg, fsr1l, fsr1h, fsr2l, fsr2h, status,2, status,0, tblptrl, tblptrh, tblptru, prodl, prodh, cstack
 Tracked objects:
		On entry : 
		On exit  : 
		Unchanged: 
 Data sizes:     COMRAM   BANK0   BANK1   BANK2   BANK3   BANK4   BANK5   BANK6   BANK7   BANK8   BANK9  BANK10  BANK11  BANK12
      Params:         0       0       0       0       0       0       0       0       0       0       0       0       0       0
      Locals:         0       1       0       0       0       0       0       0       0       0       0       0       0       0
      Temps:          0       1       0       0       0       0       0       0       0       0       0       0       0       0
      Totals:         0       2       0       0       0       0       0       0       0       0       0       0       0       0
Total ram usage:        2 bytes
 Hardware stack levels used:    1
 Hardware stack levels required when called:    8
 This function calls:
		_Lcd_Print_String
		_Lcd_Set_Cursor
		_int2string
 This function is called by:
		_Function_D_3
		_Function_D_4
		_Function_D_5
		_initializeControllerNumbers
 This function uses a non-reentrant model


 *************** function _Function_D_2 *****************
 Defined at:
		line 651 in file "menu.c"
 Parameters:    Size  Location     Type
		None
 Auto vars:     Size  Location     Type
		None
 Return value:  Size  Location     Type
                  1    wreg      void 
 Registers used:
		wreg, fsr1l, fsr1h, status,2, status,0, tblptrl, tblptrh, tblptru, cstack
 Tracked objects:
		On entry : 
		On exit  : 
		Unchanged: 
 Data sizes:     COMRAM   BANK0   BANK1   BANK2   BANK3   BANK4   BANK5   BANK6   BANK7   BANK8   BANK9  BANK10  BANK11  BANK12
      Params:         0       0       0       0       0       0       0       0       0       0       0       0       0       0
      Locals:         0       0       0       0       0       0       0       0       0       0       0       0       0       0
      Temps:          0       0       0       0       0       0       0       0       0       0       0       0       0       0
      Totals:         0       0       0       0       0       0       0       0       0       0       0       0       0       0
Total ram usage:        0 bytes
 Hardware stack levels used:    1
 Hardware stack levels required when called:    8
 This function calls:
		_Busy_eep
		_Lcd_Print_String
		_Lcd_Set_Cursor
		_Write_b_eep
		_calculate_alpha
		_int2string
		_processEncoderBuxton
 This function is called by:
		_Function_D
 This function uses a non-reentrant model


 *************** function _calculate_alpha *****************
 Defined at:
		line 24 in file "potentiometers.c"
 Parameters:    Size  Location     Type
		None
 Auto vars:     Size  Location     Type
		None
 Return value:  Size  Location     Type
                  1    wreg      void 
 Registers used:
		wreg, status,2, status,0, cstack
 Tracked objects:
		On entry : 
		On exit  : 
		Unchanged: 
 Data sizes:     COMRAM   BANK0   BANK1   BANK2   BANK3   BANK4   BANK5   BANK6   BANK7   BANK8   BANK9  BANK10  BANK11  BANK12
      Params:         0       0       0       0       0       0       0       0       0       0       0       0       0       0
      Locals:         0       0       0       0       0       0       0       0       0       0       0       0       0       0
      Temps:          0       0       0       0       0       0       0       0       0       0       0       0       0       0
      Totals:         0       0       0       0       0       0       0       0       0       0       0       0       0       0
Total ram usage:        0 bytes
 Hardware stack levels used:    1
 Hardware stack levels required when called:    6
 This function calls:
		___fldiv
		___xxtofl
 This function is called by:
		_Function_D_2
		_main
 This function uses a non-reentrant model


 *************** function ___fldiv *****************
 Defined at:
		line 11 in file "C:\Program Files (x86)\Microchip\xc8\v1.45\sources\common\sprcdiv.c"
 Parameters:    Size  Location     Type
  b               4   39[BANK0 ] void 
  a               4   43[BANK0 ] void 
 Auto vars:     Size  Location     Type
  grs             4   58[BANK0 ] unsigned long 
  rem             4   52[BANK0 ] unsigned long 
  new_exp         2   56[BANK0 ] int 
  aexp            1   63[BANK0 ] unsigned char 
  bexp            1   62[BANK0 ] unsigned char 
  sign            1   51[BANK0 ] unsigned char 
 Return value:  Size  Location     Type
                  4   39[BANK0 ] unsigned char 
 Registers used:
		wreg, status,2, status,0
 Tracked objects:
		On entry : 
		On exit  : 
		Unchanged: 
 Data sizes:     COMRAM   BANK0   BANK1   BANK2   BANK3   BANK4   BANK5   BANK6   BANK7   BANK8   BANK9  BANK10  BANK11  BANK12
      Params:         0       8       0       0       0       0       0       0       0       0       0       0       0       0
      Locals:         0      13       0       0       0       0       0       0       0       0       0       0       0       0
      Temps:          0       4       0       0       0       0       0       0       0       0       0       0       0       0
      Totals:         0      25       0       0       0       0       0       0       0       0       0       0       0       0
Total ram usage:       25 bytes
 Hardware stack levels used:    1
 Hardware stack levels required when called:    5
 This function calls:
		Nothing
 This function is called by:
		_calculate_alpha
		_calculate_pulse_length
 This function uses a non-reentrant model


 *************** function _Function_D_1 *****************
 Defined at:
		line 622 in file "menu.c"
 Parameters:    Size  Location     Type
		None
 Auto vars:     Size  Location     Type
		None
 Return value:  Size  Location     Type
                  1    wreg      void 
 Registers used:
		wreg, fsr1l, fsr1h, fsr2l, fsr2h, status,2, status,0, tblptrl, tblptrh, tblptru, prodl, prodh, cstack
 Tracked objects:
		On entry : 
		On exit  : 
		Unchanged: 
 Data sizes:     COMRAM   BANK0   BANK1   BANK2   BANK3   BANK4   BANK5   BANK6   BANK7   BANK8   BANK9  BANK10  BANK11  BANK12
      Params:         0       0       0       0       0       0       0       0       0       0       0       0       0       0
      Locals:         0       0       0       0       0       0       0       0       0       0       0       0       0       0
      Temps:          0       1       0       0       0       0       0       0       0       0       0       0       0       0
      Totals:         0       1       0       0       0       0       0       0       0       0       0       0       0       0
Total ram usage:        1 bytes
 Hardware stack levels used:    1
 Hardware stack levels required when called:    9
 This function calls:
		_Lcd_Print_String
		___lbmod
		___wmul
		_clear_row1
		_clear_row2
		_processEncoderBuxton
		_setControllerResolution
 This function is called by:
		_Function_D
 This function uses a non-reentrant model


 *************** function _setControllerResolution *****************
 Defined at:
		line 115 in file "menu.c"
 Parameters:    Size  Location     Type
		None
 Auto vars:     Size  Location     Type
  i               1    0[BANK0 ] unsigned char 
 Return value:  Size  Location     Type
                  1    wreg      void 
 Registers used:
		wreg, fsr2l, fsr2h, status,2, status,0, prodl, prodh
 Tracked objects:
		On entry : 
		On exit  : 
		Unchanged: 
 Data sizes:     COMRAM   BANK0   BANK1   BANK2   BANK3   BANK4   BANK5   BANK6   BANK7   BANK8   BANK9  BANK10  BANK11  BANK12
      Params:         0       0       0       0       0       0       0       0       0       0       0       0       0       0
      Locals:         0       1       0       0       0       0       0       0       0       0       0       0       0       0
      Temps:          0       0       0       0       0       0       0       0       0       0       0       0       0       0
      Totals:         0       1       0       0       0       0       0       0       0       0       0       0       0       0
Total ram usage:        1 bytes
 Hardware stack levels used:    1
 Hardware stack levels required when called:    5
 This function calls:
		Nothing
 This function is called by:
		_Function_D_1
 This function uses a non-reentrant model


 *************** function _Function_C *****************
 Defined at:
		line 597 in file "menu.c"
 Parameters:    Size  Location     Type
		None
 Auto vars:     Size  Location     Type
		None
 Return value:  Size  Location     Type
                  1    wreg      void 
 Registers used:
		wreg, fsr1l, fsr1h, fsr2l, fsr2h, status,2, status,0, tblptrl, tblptrh, tblptru, prodl, prodh, cstack
 Tracked objects:
		On entry : 
		On exit  : 
		Unchanged: 
 Data sizes:     COMRAM   BANK0   BANK1   BANK2   BANK3   BANK4   BANK5   BANK6   BANK7   BANK8   BANK9  BANK10  BANK11  BANK12
      Params:         0       0       0       0       0       0       0       0       0       0       0       0       0       0
      Locals:         0       0       0       0       0       0       0       0       0       0       0       0       0       0
      Temps:          0       1       0       0       0       0       0       0       0       0       0       0       0       0
      Totals:         0       1       0       0       0       0       0       0       0       0       0       0       0       0
Total ram usage:        1 bytes
 Hardware stack levels used:    1
 Hardware stack levels required when called:   10
 This function calls:
		_Function_C_1
		_Function_C_2
		_Function_C_3
		_Lcd_Print_String
		___lbmod
		___wmul
		_clear_row2
		_processEncoderBuxton
 This function is called by:
		_menu_lcd
 This function uses a non-reentrant model


 *************** function _Function_C_3 *****************
 Defined at:
		line 550 in file "menu.c"
 Parameters:    Size  Location     Type
		None
 Auto vars:     Size  Location     Type
  array_index     1   27[BANK0 ] unsigned char 
 Return value:  Size  Location     Type
                  1    wreg      void 
 Registers used:
		wreg, fsr1l, fsr1h, fsr2l, fsr2h, status,2, status,0, tblptrl, tblptrh, tblptru, prodl, prodh, cstack
 Tracked objects:
		On entry : 
		On exit  : 
		Unchanged: 
 Data sizes:     COMRAM   BANK0   BANK1   BANK2   BANK3   BANK4   BANK5   BANK6   BANK7   BANK8   BANK9  BANK10  BANK11  BANK12
      Params:         0       0       0       0       0       0       0       0       0       0       0       0       0       0
      Locals:         0       1       0       0       0       0       0       0       0       0       0       0       0       0
      Temps:          0       1       0       0       0       0       0       0       0       0       0       0       0       0
      Totals:         0       2       0       0       0       0       0       0       0       0       0       0       0       0
Total ram usage:        2 bytes
 Hardware stack levels used:    1
 Hardware stack levels required when called:    9
 This function calls:
		_Lcd_Print_String
		_Lcd_Set_Cursor
		___lbmod
		___wmul
		_clear_row1
		_clear_row2
		_int2string
		_processEncoderBuxton
 This function is called by:
		_Function_C
 This function uses a non-reentrant model


 *************** function _Function_C_2 *****************
 Defined at:
		line 502 in file "menu.c"
 Parameters:    Size  Location     Type
		None
 Auto vars:     Size  Location     Type
  array_index     1   27[BANK0 ] unsigned char 
 Return value:  Size  Location     Type
                  1    wreg      void 
 Registers used:
		wreg, fsr1l, fsr1h, fsr2l, fsr2h, status,2, status,0, tblptrl, tblptrh, tblptru, prodl, prodh, cstack
 Tracked objects:
		On entry : 
		On exit  : 
		Unchanged: 
 Data sizes:     COMRAM   BANK0   BANK1   BANK2   BANK3   BANK4   BANK5   BANK6   BANK7   BANK8   BANK9  BANK10  BANK11  BANK12
      Params:         0       0       0       0       0       0       0       0       0       0       0       0       0       0
      Locals:         0       1       0       0       0       0       0       0       0       0       0       0       0       0
      Temps:          0       1       0       0       0       0       0       0       0       0       0       0       0       0
      Totals:         0       2       0       0       0       0       0       0       0       0       0       0       0       0
Total ram usage:        2 bytes
 Hardware stack levels used:    1
 Hardware stack levels required when called:    9
 This function calls:
		_Lcd_Print_String
		_Lcd_Set_Cursor
		___lbmod
		___wmul
		_clear_row1
		_clear_row2
		_int2string
		_processEncoderBuxton
 This function is called by:
		_Function_C
 This function uses a non-reentrant model


 *************** function _int2string *****************
 Defined at:
		line 86 in file "menu.c"
 Parameters:    Size  Location     Type
  number          2   20[BANK0 ] int 
 Auto vars:     Size  Location     Type
  number_to_di    2   24[BANK0 ] int 
 Return value:  Size  Location     Type
                  1    wreg      void 
 Registers used:
		wreg, status,2, status,0, cstack
 Tracked objects:
		On entry : 
		On exit  : 
		Unchanged: 
 Data sizes:     COMRAM   BANK0   BANK1   BANK2   BANK3   BANK4   BANK5   BANK6   BANK7   BANK8   BANK9  BANK10  BANK11  BANK12
      Params:         0       2       0       0       0       0       0       0       0       0       0       0       0       0
      Locals:         0       2       0       0       0       0       0       0       0       0       0       0       0       0
      Temps:          0       2       0       0       0       0       0       0       0       0       0       0       0       0
      Totals:         0       6       0       0       0       0       0       0       0       0       0       0       0       0
Total ram usage:        6 bytes
 Hardware stack levels used:    1
 Hardware stack levels required when called:    6
 This function calls:
		___awdiv
		___awmod
 This function is called by:
		_setControllerNumbers
		_Function_C_2
		_Function_C_3
		_Function_D_2
		_Function_E_1
		_Function_E_2
		_Function_F
		_Function_H_2
		_Function_H_3
 This function uses a non-reentrant model


 *************** function ___awdiv *****************
 Defined at:
		line 8 in file "C:\Program Files (x86)\Microchip\xc8\v1.45\sources\common\awdiv.c"
 Parameters:    Size  Location     Type
  dividend        2    0[BANK0 ] int 
  divisor         2    2[BANK0 ] int 
 Auto vars:     Size  Location     Type
  quotient        2    6[BANK0 ] int 
  sign            1    5[BANK0 ] unsigned char 
  counter         1    4[BANK0 ] unsigned char 
 Return value:  Size  Location     Type
                  2    0[BANK0 ] int 
 Registers used:
		wreg, status,2, status,0
 Tracked objects:
		On entry : 
		On exit  : 
		Unchanged: 
 Data sizes:     COMRAM   BANK0   BANK1   BANK2   BANK3   BANK4   BANK5   BANK6   BANK7   BANK8   BANK9  BANK10  BANK11  BANK12
      Params:         0       4       0       0       0       0       0       0       0       0       0       0       0       0
      Locals:         0       4       0       0       0       0       0       0       0       0       0       0       0       0
      Temps:          0       0       0       0       0       0       0       0       0       0       0       0       0       0
      Totals:         0       8       0       0       0       0       0       0       0       0       0       0       0       0
Total ram usage:        8 bytes
 Hardware stack levels used:    1
 Hardware stack levels required when called:    5
 This function calls:
		Nothing
 This function is called by:
		_int2string
 This function uses a non-reentrant model


 *************** function _Function_C_1 *****************
 Defined at:
		line 479 in file "menu.c"
 Parameters:    Size  Location     Type
		None
 Auto vars:     Size  Location     Type
		None
 Return value:  Size  Location     Type
                  1    wreg      void 
 Registers used:
		wreg, fsr1l, fsr1h, status,2, status,0, tblptrl, tblptrh, tblptru, prodl, prodh, cstack
 Tracked objects:
		On entry : 
		On exit  : 
		Unchanged: 
 Data sizes:     COMRAM   BANK0   BANK1   BANK2   BANK3   BANK4   BANK5   BANK6   BANK7   BANK8   BANK9  BANK10  BANK11  BANK12
      Params:         0       0       0       0       0       0       0       0       0       0       0       0       0       0
      Locals:         0       0       0       0       0       0       0       0       0       0       0       0       0       0
      Temps:          0       1       0       0       0       0       0       0       0       0       0       0       0       0
      Totals:         0       1       0       0       0       0       0       0       0       0       0       0       0       0
Total ram usage:        1 bytes
 Hardware stack levels used:    1
 Hardware stack levels required when called:    9
 This function calls:
		_Lcd_Print_String
		___lbmod
		___wmul
		_clear_row1
		_clear_row2
		_processEncoderBuxton
 This function is called by:
		_Function_C
 This function uses a non-reentrant model


 *************** function _Function_B *****************
 Defined at:
		line 460 in file "menu.c"
 Parameters:    Size  Location     Type
		None
 Auto vars:     Size  Location     Type
		None
 Return value:  Size  Location     Type
                  1    wreg      void 
 Registers used:
		wreg, fsr1l, fsr1h, status,2, status,0, tblptrl, tblptrh, tblptru, prodl, prodh, cstack
 Tracked objects:
		On entry : 
		On exit  : 
		Unchanged: 
 Data sizes:     COMRAM   BANK0   BANK1   BANK2   BANK3   BANK4   BANK5   BANK6   BANK7   BANK8   BANK9  BANK10  BANK11  BANK12
      Params:         0       0       0       0       0       0       0       0       0       0       0       0       0       0
      Locals:         0       0       0       0       0       0       0       0       0       0       0       0       0       0
      Temps:          0       1       0       0       0       0       0       0       0       0       0       0       0       0
      Totals:         0       1       0       0       0       0       0       0       0       0       0       0       0       0
Total ram usage:        1 bytes
 Hardware stack levels used:    1
 Hardware stack levels required when called:    9
 This function calls:
		_Lcd_Print_String
		___lbmod
		___wmul
		_clear_row2
		_processEncoderBuxton
 This function is called by:
		_menu_lcd
 This function uses a non-reentrant model


 *************** function _Function_A *****************
 Defined at:
		line 422 in file "menu.c"
 Parameters:    Size  Location     Type
		None
 Auto vars:     Size  Location     Type
		None
 Return value:  Size  Location     Type
                  1    wreg      void 
 Registers used:
		wreg, fsr1l, fsr1h, status,2, status,0, tblptrl, tblptrh, tblptru, prodl, prodh, cstack
 Tracked objects:
		On entry : 
		On exit  : 
		Unchanged: 
 Data sizes:     COMRAM   BANK0   BANK1   BANK2   BANK3   BANK4   BANK5   BANK6   BANK7   BANK8   BANK9  BANK10  BANK11  BANK12
      Params:         0       0       0       0       0       0       0       0       0       0       0       0       0       0
      Locals:         0       0       0       0       0       0       0       0       0       0       0       0       0       0
      Temps:          0       1       0       0       0       0       0       0       0       0       0       0       0       0
      Totals:         0       1       0       0       0       0       0       0       0       0       0       0       0       0
Total ram usage:        1 bytes
 Hardware stack levels used:    1
 Hardware stack levels required when called:   10
 This function calls:
		_Function_A_1
		_Function_A_2
		_Function_A_3
		_Lcd_Print_String
		___lbmod
		___wmul
		_clear_row2
		_processEncoderBuxton
 This function is called by:
		_menu_lcd
 This function uses a non-reentrant model


 *************** function _Function_A_3 *****************
 Defined at:
		line 401 in file "menu.c"
 Parameters:    Size  Location     Type
		None
 Auto vars:     Size  Location     Type
		None
 Return value:  Size  Location     Type
                  1    wreg      void 
 Registers used:
		wreg, fsr1l, fsr1h, status,2, status,0, tblptrl, tblptrh, tblptru, prodl, prodh, cstack
 Tracked objects:
		On entry : 
		On exit  : 
		Unchanged: 
 Data sizes:     COMRAM   BANK0   BANK1   BANK2   BANK3   BANK4   BANK5   BANK6   BANK7   BANK8   BANK9  BANK10  BANK11  BANK12
      Params:         0       0       0       0       0       0       0       0       0       0       0       0       0       0
      Locals:         0       0       0       0       0       0       0       0       0       0       0       0       0       0
      Temps:          0       1       0       0       0       0       0       0       0       0       0       0       0       0
      Totals:         0       1       0       0       0       0       0       0       0       0       0       0       0       0
Total ram usage:        1 bytes
 Hardware stack levels used:    1
 Hardware stack levels required when called:    9
 This function calls:
		_Lcd_Print_String
		___lbmod
		___wmul
		_clear_row1
		_clear_row2
		_processEncoderBuxton
 This function is called by:
		_Function_A
 This function uses a non-reentrant model


 *************** function _Function_A_2 *****************
 Defined at:
		line 380 in file "menu.c"
 Parameters:    Size  Location     Type
		None
 Auto vars:     Size  Location     Type
		None
 Return value:  Size  Location     Type
                  1    wreg      void 
 Registers used:
		wreg, fsr1l, fsr1h, status,2, status,0, tblptrl, tblptrh, tblptru, prodl, prodh, cstack
 Tracked objects:
		On entry : 
		On exit  : 
		Unchanged: 
 Data sizes:     COMRAM   BANK0   BANK1   BANK2   BANK3   BANK4   BANK5   BANK6   BANK7   BANK8   BANK9  BANK10  BANK11  BANK12
      Params:         0       0       0       0       0       0       0       0       0       0       0       0       0       0
      Locals:         0       0       0       0       0       0       0       0       0       0       0       0       0       0
      Temps:          0       1       0       0       0       0       0       0       0       0       0       0       0       0
      Totals:         0       1       0       0       0       0       0       0       0       0       0       0       0       0
Total ram usage:        1 bytes
 Hardware stack levels used:    1
 Hardware stack levels required when called:    9
 This function calls:
		_Lcd_Print_String
		___lbmod
		___wmul
		_clear_row1
		_clear_row2
		_processEncoderBuxton
 This function is called by:
		_Function_A
 This function uses a non-reentrant model


 *************** function _Function_A_1 *****************
 Defined at:
		line 358 in file "menu.c"
 Parameters:    Size  Location     Type
		None
 Auto vars:     Size  Location     Type
		None
 Return value:  Size  Location     Type
                  1    wreg      void 
 Registers used:
		wreg, fsr1l, fsr1h, status,2, status,0, tblptrl, tblptrh, tblptru, prodl, prodh, cstack
 Tracked objects:
		On entry : 
		On exit  : 
		Unchanged: 
 Data sizes:     COMRAM   BANK0   BANK1   BANK2   BANK3   BANK4   BANK5   BANK6   BANK7   BANK8   BANK9  BANK10  BANK11  BANK12
      Params:         0       0       0       0       0       0       0       0       0       0       0       0       0       0
      Locals:         0       0       0       0       0       0       0       0       0       0       0       0       0       0
      Temps:          0       1       0       0       0       0       0       0       0       0       0       0       0       0
      Totals:         0       1       0       0       0       0       0       0       0       0       0       0       0       0
Total ram usage:        1 bytes
 Hardware stack levels used:    1
 Hardware stack levels required when called:    9
 This function calls:
		_Lcd_Print_String
		___lbmod
		___wmul
		_clear_row1
		_clear_row2
		_processEncoderBuxton
 This function is called by:
		_Function_A
 This function uses a non-reentrant model


 *************** function _processEncoderBuxton *****************
 Defined at:
		line 51 in file "encoder.c"
 Parameters:    Size  Location     Type
		None
 Auto vars:     Size  Location     Type
		None
 Return value:  Size  Location     Type
                  1    wreg      void 
 Registers used:
		wreg, status,2, status,0
 Tracked objects:
		On entry : 
		On exit  : 
		Unchanged: 
 Data sizes:     COMRAM   BANK0   BANK1   BANK2   BANK3   BANK4   BANK5   BANK6   BANK7   BANK8   BANK9  BANK10  BANK11  BANK12
      Params:         0       0       0       0       0       0       0       0       0       0       0       0       0       0
      Locals:         0       0       0       0       0       0       0       0       0       0       0       0       0       0
      Temps:          0       7       0       0       0       0       0       0       0       0       0       0       0       0
      Totals:         0       7       0       0       0       0       0       0       0       0       0       0       0       0
Total ram usage:        7 bytes
 Hardware stack levels used:    1
 Hardware stack levels required when called:    5
 This function calls:
		Nothing
 This function is called by:
		_Function_A_1
		_Function_A_2
		_Function_A_3
		_Function_A
		_Function_B
		_Function_C_1
		_Function_C_2
		_Function_C_3
		_Function_C
		_Function_D_1
		_Function_D_2
		_Function_D_3
		_Function_D_4
		_Function_D_5
		_Function_D
		_Function_E_1
		_Function_E_2
		_Function_E
		_Function_F
		_Function_G_1
		_Function_G_2
		_Function_G_4
		_Function_G
		_Function_H
		_Function_H_1
		_Function_H_2
		_Function_H_3
		_Function_H_4
		_Function_H_5
		_Function_H_6_1
		_Function_H_6_2
		_Function_H_6
		_Function_H_7
		_Function_H_8_1
		_Function_H_8_2
		_Function_H_8
		_Function_H_9_1
		_Function_H_9_2
		_Function_H_9_3
		_Function_H_9_4
		_Function_H_9
		_main
 This function uses a non-reentrant model


 *************** function _clear_row2 *****************
 Defined at:
		line 79 in file "menu.c"
 Parameters:    Size  Location     Type
		None
 Auto vars:     Size  Location     Type
		None
 Return value:  Size  Location     Type
                  1    wreg      void 
 Registers used:
		wreg, fsr1l, fsr1h, status,2, status,0, tblptrl, tblptrh, tblptru, cstack
 Tracked objects:
		On entry : 
		On exit  : 
		Unchanged: 
 Data sizes:     COMRAM   BANK0   BANK1   BANK2   BANK3   BANK4   BANK5   BANK6   BANK7   BANK8   BANK9  BANK10  BANK11  BANK12
      Params:         0       0       0       0       0       0       0       0       0       0       0       0       0       0
      Locals:         0       0       0       0       0       0       0       0       0       0       0       0       0       0
      Temps:          0       0       0       0       0       0       0       0       0       0       0       0       0       0
      Totals:         0       0       0       0       0       0       0       0       0       0       0       0       0       0
Total ram usage:        0 bytes
 Hardware stack levels used:    1
 Hardware stack levels required when called:    8
 This function calls:
		_Lcd_Print_String
		_Lcd_Set_Cursor
 This function is called by:
		_Function_A_1
		_Function_A_2
		_Function_A_3
		_Function_A
		_Function_B
		_Function_C_1
		_Function_C_2
		_Function_C_3
		_Function_C
		_Function_D_1
		_Function_D_3
		_Function_D_4
		_Function_D_5
		_Function_D
		_Function_E
		_Function_F
		_Function_G_1
		_Function_G_2
		_Function_G_3
		_Function_G_4
		_Function_G
		_Function_H
		_Function_H_1
		_Function_H_2
		_Function_H_3
		_Function_H_4
		_Function_H_5
		_Function_H_6_1
		_Function_H_6_2
		_Function_H_6
		_Function_H_7
		_Function_H_8_1
		_Function_H_8_2
		_Function_H_8
		_Function_H_9_1
		_Function_H_9_2
		_Function_H_9_3
		_Function_H_9_4
		_Function_H_9
 This function uses a non-reentrant model


 *************** function _clear_row1 *****************
 Defined at:
		line 72 in file "menu.c"
 Parameters:    Size  Location     Type
		None
 Auto vars:     Size  Location     Type
		None
 Return value:  Size  Location     Type
                  1    wreg      void 
 Registers used:
		wreg, fsr1l, fsr1h, status,2, status,0, tblptrl, tblptrh, tblptru, cstack
 Tracked objects:
		On entry : 
		On exit  : 
		Unchanged: 
 Data sizes:     COMRAM   BANK0   BANK1   BANK2   BANK3   BANK4   BANK5   BANK6   BANK7   BANK8   BANK9  BANK10  BANK11  BANK12
      Params:         0       0       0       0       0       0       0       0       0       0       0       0       0       0
      Locals:         0       0       0       0       0       0       0       0       0       0       0       0       0       0
      Temps:          0       0       0       0       0       0       0       0       0       0       0       0       0       0
      Totals:         0       0       0       0       0       0       0       0       0       0       0       0       0       0
Total ram usage:        0 bytes
 Hardware stack levels used:    1
 Hardware stack levels required when called:    8
 This function calls:
		_Lcd_Print_String
		_Lcd_Set_Cursor
 This function is called by:
		_exitFunction
		_exitSave
		_exitLoad
		_eepromExit
		_Function_A_1
		_Function_A_2
		_Function_A_3
		_Function_C_1
		_Function_C_2
		_Function_C_3
		_Function_D_1
		_Function_D_3
		_Function_D_4
		_Function_D_5
		_Function_G_1
		_Function_G_2
		_Function_G_3
		_Function_G_4
		_Function_H_4
		_Function_H_5
		_Function_H_6_1
		_Function_H_6_2
		_Function_H_7
		_Function_H_8_1
		_Function_H_9_1
		_Function_H_9_2
		_Function_H_9_3
		_Function_H_9_4
		_Function_H_9
 This function uses a non-reentrant model


 *************** function _Lcd_Set_Cursor *****************
 Defined at:
		line 59 in file "lcd.c"
 Parameters:    Size  Location     Type
  a               1    wreg     unsigned char 
  b               1    3[BANK0 ] unsigned char 
 Auto vars:     Size  Location     Type
  a               1    4[BANK0 ] unsigned char 
  temp            1    7[BANK0 ] unsigned char 
  y               1    6[BANK0 ] unsigned char 
  z               1    5[BANK0 ] unsigned char 
 Return value:  Size  Location     Type
                  1    wreg      void 
 Registers used:
		wreg, status,2, status,0, cstack
 Tracked objects:
		On entry : 
		On exit  : 
		Unchanged: 
 Data sizes:     COMRAM   BANK0   BANK1   BANK2   BANK3   BANK4   BANK5   BANK6   BANK7   BANK8   BANK9  BANK10  BANK11  BANK12
      Params:         0       1       0       0       0       0       0       0       0       0       0       0       0       0
      Locals:         0       4       0       0       0       0       0       0       0       0       0       0       0       0
      Temps:          0       0       0       0       0       0       0       0       0       0       0       0       0       0
      Totals:         0       5       0       0       0       0       0       0       0       0       0       0       0       0
Total ram usage:        5 bytes
 Hardware stack levels used:    1
 Hardware stack levels required when called:    7
 This function calls:
		_Lcd_Cmd
 This function is called by:
		_clear_row1
		_clear_row2
		_setControllerNumbers
		_menu_lcd
		_Function_C_2
		_Function_C_3
		_Function_D_2
		_Function_E_1
		_Function_E_2
		_Function_F
		_Function_H_2
		_Function_H_3
 This function uses a non-reentrant model


 *************** function _Lcd_Print_String *****************
 Defined at:
		line 114 in file "lcd.c"
 Parameters:    Size  Location     Type
  a               2   10[BANK0 ] PTR unsigned char 
		 -> STR_76(16), STR_75(12), STR_74(10), STR_73(12), 
		 -> STR_72(10), STR_71(12), STR_70(10), STR_69(12), 
		 -> STR_68(10), STR_67(12), STR_66(13), STR_65(15), 
		 -> STR_64(15), STR_63(16), STR_61(14), STR_59(12), 
		 -> STR_58(15), STR_56(14), STR_54(15), STR_53(17), 
		 -> STR_50(9), STR_49(10), STR_48(13), STR_47(13), 
		 -> STR_46(17), STR_45(14), STR_44(14), STR_42(15), 
		 -> STR_40(16), STR_39(17), STR_38(13), STR_37(17), 
		 -> STR_36(8), STR_35(8), STR_34(12), STR_33(17), 
		 -> STR_32(15), STR_31(14), STR_30(17), STR_29(15), 
		 -> STR_28(17), STR_27(14), STR_26(16), STR_25(14), 
		 -> STR_24(12), LCD_STRINGS(2397), STR_23(13), STR_22(17), 
		 -> STR_21(16), STR_20(5), STR_19(11), STR_18(11), 
		 -> STR_17(11), STR_16(10), STR_15(11), STR_14(11), 
		 -> STR_13(11), STR_12(10), string2display(5), STR_11(17), 
		 -> STR_10(17), 
 Auto vars:     Size  Location     Type
  i               2   14[BANK0 ] int 
 Return value:  Size  Location     Type
                  1    wreg      void 
 Registers used:
		wreg, fsr1l, fsr1h, status,2, status,0, tblptrl, tblptrh, tblptru, cstack
 Tracked objects:
		On entry : 
		On exit  : 
		Unchanged: 
 Data sizes:     COMRAM   BANK0   BANK1   BANK2   BANK3   BANK4   BANK5   BANK6   BANK7   BANK8   BANK9  BANK10  BANK11  BANK12
      Params:         0       2       0       0       0       0       0       0       0       0       0       0       0       0
      Locals:         0       2       0       0       0       0       0       0       0       0       0       0       0       0
      Temps:          0       2       0       0       0       0       0       0       0       0       0       0       0       0
      Totals:         0       6       0       0       0       0       0       0       0       0       0       0       0       0
Total ram usage:        6 bytes
 Hardware stack levels used:    1
 Hardware stack levels required when called:    7
 This function calls:
		_Lcd_Print_Char
 This function is called by:
		_clear_row1
		_clear_row2
		_setControllerNumbers
		_exitFunction
		_exitSave
		_exitLoad
		_eepromExit
		_menu_lcd
		_Function_A_1
		_Function_A_2
		_Function_A_3
		_Function_A
		_Function_B
		_Function_C_1
		_Function_C_2
		_Function_C_3
		_Function_C
		_Function_D_1
		_Function_D_2
		_Function_D_3
		_Function_D_4
		_Function_D_5
		_Function_D
		_Function_E_1
		_Function_E_2
		_Function_E
		_Function_F
		_Function_G_1
		_Function_G_2
		_Function_G_3
		_Function_G_4
		_Function_G
		_Function_H
		_Function_H_1
		_Function_H_2
		_Function_H_3
		_Function_H_4
		_Function_H_5
		_Function_H_6_1
		_Function_H_6_2
		_Function_H_6
		_Function_H_7
		_Function_H_8_1
		_Function_H_8_2
		_Function_H_8
		_Function_H_9_1
		_Function_H_9_2
		_Function_H_9_3
		_Function_H_9_4
		_Function_H_9
 This function uses a non-reentrant model


 *************** function _Lcd_Print_Char *****************
 Defined at:
		line 98 in file "lcd.c"
 Parameters:    Size  Location     Type
  data            1    wreg     unsigned char 
 Auto vars:     Size  Location     Type
  data            1    3[BANK0 ] unsigned char 
  i               2    6[BANK0 ] int 
  i               2    4[BANK0 ] int 
  Upper_Nibble    1    2[BANK0 ] unsigned char 
  Lower_Nibble    1    1[BANK0 ] unsigned char 
 Return value:  Size  Location     Type
                  1    wreg      void 
 Registers used:
		wreg, status,2, status,0, cstack
 Tracked objects:
		On entry : 
		On exit  : 
		Unchanged: 
 Data sizes:     COMRAM   BANK0   BANK1   BANK2   BANK3   BANK4   BANK5   BANK6   BANK7   BANK8   BANK9  BANK10  BANK11  BANK12
      Params:         0       0       0       0       0       0       0       0       0       0       0       0       0       0
      Locals:         0       7       0       0       0       0       0       0       0       0       0       0       0       0
      Temps:          0       0       0       0       0       0       0       0       0       0       0       0       0       0
      Totals:         0       7       0       0       0       0       0       0       0       0       0       0       0       0
Total ram usage:        7 bytes
 Hardware stack levels used:    1
 Hardware stack levels required when called:    6
 This function calls:
		_Lcd_SetBit
 This function is called by:
		_Lcd_Print_String
 This function uses a non-reentrant model


 *************** function ___lbmod *****************
 Defined at:
		line 4 in file "C:\Program Files (x86)\Microchip\xc8\v1.45\sources\common\lbmod.c"
 Parameters:    Size  Location     Type
  dividend        1    wreg     unsigned char 
  divisor         1    0[BANK0 ] unsigned char 
 Auto vars:     Size  Location     Type
  dividend        1    1[BANK0 ] unsigned char 
  rem             1    3[BANK0 ] unsigned char 
  counter         1    2[BANK0 ] unsigned char 
 Return value:  Size  Location     Type
                  1    wreg      unsigned char 
 Registers used:
		wreg, status,2, status,0
 Tracked objects:
		On entry : 
		On exit  : 
		Unchanged: 
 Data sizes:     COMRAM   BANK0   BANK1   BANK2   BANK3   BANK4   BANK5   BANK6   BANK7   BANK8   BANK9  BANK10  BANK11  BANK12
      Params:         0       1       0       0       0       0       0       0       0       0       0       0       0       0
      Locals:         0       3       0       0       0       0       0       0       0       0       0       0       0       0
      Temps:          0       0       0       0       0       0       0       0       0       0       0       0       0       0
      Totals:         0       4       0       0       0       0       0       0       0       0       0       0       0       0
Total ram usage:        4 bytes
 Hardware stack levels used:    1
 Hardware stack levels required when called:    5
 This function calls:
		Nothing
 This function is called by:
		_menu_lcd
		_Function_A_1
		_Function_A_2
		_Function_A_3
		_Function_A
		_Function_B
		_Function_C_1
		_Function_C_2
		_Function_C_3
		_Function_C
		_Function_D_1
		_Function_D_3
		_Function_D_4
		_Function_D_5
		_Function_D
		_Function_E
		_Function_G_1
		_Function_G_2
		_Function_G_4
		_Function_G
		_Function_H
		_Function_H_4
		_Function_H_5
		_Function_H_6
		_Function_H_8
		_Function_H_9_1
		_Function_H_9_2
		_Function_H_9_3
		_Function_H_9_4
		_Function_H_9
 This function uses a non-reentrant model


 *************** function _initializeSaveSlotsOnce *****************
 Defined at:
		line 28 in file "eeprom.c"
 Parameters:    Size  Location     Type
		None
 Auto vars:     Size  Location     Type
  initializeSl    1   84[BANK0 ] unsigned char 
 Return value:  Size  Location     Type
                  1    wreg      void 
 Registers used:
		wreg, fsr2l, fsr2h, status,2, status,0, cstack
 Tracked objects:
		On entry : 
		On exit  : 
		Unchanged: 
 Data sizes:     COMRAM   BANK0   BANK1   BANK2   BANK3   BANK4   BANK5   BANK6   BANK7   BANK8   BANK9  BANK10  BANK11  BANK12
      Params:         0       0       0       0       0       0       0       0       0       0       0       0       0       0
      Locals:         0       1       0       0       0       0       0       0       0       0       0       0       0       0
      Temps:          0       0       0       0       0       0       0       0       0       0       0       0       0       0
      Totals:         0       1       0       0       0       0       0       0       0       0       0       0       0       0
Total ram usage:        1 bytes
 Hardware stack levels used:    1
 Hardware stack levels required when called:    7
 This function calls:
		_Busy_eep
		_Read_b_eep
		_Write_b_eep
		_saveToEEPROM
 This function is called by:
		_main
 This function uses a non-reentrant model


 *************** function _saveToEEPROM *****************
 Defined at:
		line 194 in file "eeprom.c"
 Parameters:    Size  Location     Type
  slotNumber      1    wreg     unsigned char 
 Auto vars:     Size  Location     Type
  slotNumber      1   81[BANK0 ] unsigned char 
  byte_count      2   82[BANK0 ] unsigned int 
  to_save        75    4[BANK0 ] unsigned char [75]
  baseAddress     2   79[BANK0 ] unsigned int 
 Return value:  Size  Location     Type
                  1    wreg      void 
 Registers used:
		wreg, fsr2l, fsr2h, status,2, status,0, cstack
 Tracked objects:
		On entry : 
		On exit  : 
		Unchanged: 
 Data sizes:     COMRAM   BANK0   BANK1   BANK2   BANK3   BANK4   BANK5   BANK6   BANK7   BANK8   BANK9  BANK10  BANK11  BANK12
      Params:         0       0       0       0       0       0       0       0       0       0       0       0       0       0
      Locals:         0      80       0       0       0       0       0       0       0       0       0       0       0       0
      Temps:          0       0       0       0       0       0       0       0       0       0       0       0       0       0
      Totals:         0      80       0       0       0       0       0       0       0       0       0       0       0       0
Total ram usage:       80 bytes
 Hardware stack levels used:    1
 Hardware stack levels required when called:    6
 This function calls:
		_Busy_eep
		_Write_b_eep
 This function is called by:
		_Function_G_1
		_initializeSaveSlotsOnce
 This function uses a non-reentrant model


 *************** function _Write_b_eep *****************
 Defined at:
		line 49 in file "C:\Program Files (x86)\Microchip\xc8\v1.45\sources\pic18\plib\EEP\write_B.c"
 Parameters:    Size  Location     Type
  badd            2    0[BANK0 ] unsigned int 
  bdat            1    2[BANK0 ] unsigned char 
 Auto vars:     Size  Location     Type
  GIE_BIT_VAL     1    3[BANK0 ] unsigned char 
 Return value:  Size  Location     Type
                  1    wreg      void 
 Registers used:
		wreg, status,2, status,0
 Tracked objects:
		On entry : 
		On exit  : 
		Unchanged: 
 Data sizes:     COMRAM   BANK0   BANK1   BANK2   BANK3   BANK4   BANK5   BANK6   BANK7   BANK8   BANK9  BANK10  BANK11  BANK12
      Params:         0       3       0       0       0       0       0       0       0       0       0       0       0       0
      Locals:         0       1       0       0       0       0       0       0       0       0       0       0       0       0
      Temps:          0       0       0       0       0       0       0       0       0       0       0       0       0       0
      Totals:         0       4       0       0       0       0       0       0       0       0       0       0       0       0
Total ram usage:        4 bytes
 Hardware stack levels used:    1
 Hardware stack levels required when called:    5
 This function calls:
		Nothing
 This function is called by:
		_Function_D_2
		_Function_G_1
		_Function_G_2
		_Function_G_3
		_Function_G_4
		_initializeSaveSlotsOnce
		_saveToEEPROM
 This function uses a non-reentrant model


 *************** function _Busy_eep *****************
 Defined at:
		line 12 in file "C:\Program Files (x86)\Microchip\xc8\v1.45\sources\pic18\plib\EEP\busy_eep.c"
 Parameters:    Size  Location     Type
		None
 Auto vars:     Size  Location     Type
		None
 Return value:  Size  Location     Type
                  1    wreg      void 
 Registers used:
		None
 Tracked objects:
		On entry : 
		On exit  : 
		Unchanged: 
 Data sizes:     COMRAM   BANK0   BANK1   BANK2   BANK3   BANK4   BANK5   BANK6   BANK7   BANK8   BANK9  BANK10  BANK11  BANK12
      Params:         0       0       0       0       0       0       0       0       0       0       0       0       0       0
      Locals:         0       0       0       0       0       0       0       0       0       0       0       0       0       0
      Temps:          0       0       0       0       0       0       0       0       0       0       0       0       0       0
      Totals:         0       0       0       0       0       0       0       0       0       0       0       0       0       0
Total ram usage:        0 bytes
 Hardware stack levels used:    1
 Hardware stack levels required when called:    5
 This function calls:
		Nothing
 This function is called by:
		_Function_D_2
		_Function_G_1
		_Function_G_2
		_Function_G_3
		_Function_G_4
		_initializeSaveSlotsOnce
		_saveToEEPROM
 This function uses a non-reentrant model


 *************** function _Read_b_eep *****************
 Defined at:
		line 35 in file "C:\Program Files (x86)\Microchip\xc8\v1.45\sources\pic18\plib\EEP\read_B.c"
 Parameters:    Size  Location     Type
  badd            2    0[BANK0 ] unsigned int 
 Auto vars:     Size  Location     Type
		None
 Return value:  Size  Location     Type
                  1    wreg      unsigned char 
 Registers used:
		wreg, status,2, status,0
 Tracked objects:
		On entry : 
		On exit  : 
		Unchanged: 
 Data sizes:     COMRAM   BANK0   BANK1   BANK2   BANK3   BANK4   BANK5   BANK6   BANK7   BANK8   BANK9  BANK10  BANK11  BANK12
      Params:         0       2       0       0       0       0       0       0       0       0       0       0       0       0
      Locals:         0       0       0       0       0       0       0       0       0       0       0       0       0       0
      Temps:          0       0       0       0       0       0       0       0       0       0       0       0       0       0
      Totals:         0       2       0       0       0       0       0       0       0       0       0       0       0       0
Total ram usage:        2 bytes
 Hardware stack levels used:    1
 Hardware stack levels required when called:    5
 This function calls:
		Nothing
 This function is called by:
		_initializeSaveSlotsOnce
		_selectSlotOnBoot
		_loadFromEEPROM
		_main
 This function uses a non-reentrant model


 *************** function _initializeMenuArray *****************
 Defined at:
		line 27 in file "menu.c"
 Parameters:    Size  Location     Type
		None
 Auto vars:     Size  Location     Type
  i               1   12[BANK0 ] unsigned char 
  NumberOfElem    1   11[BANK0 ] unsigned char 
 Return value:  Size  Location     Type
                  1    wreg      void 
 Registers used:
		wreg, fsr1l, fsr1h, fsr2l, fsr2h, status,2, status,0, prodl, prodh, cstack
 Tracked objects:
		On entry : 
		On exit  : 
		Unchanged: 
 Data sizes:     COMRAM   BANK0   BANK1   BANK2   BANK3   BANK4   BANK5   BANK6   BANK7   BANK8   BANK9  BANK10  BANK11  BANK12
      Params:         0       0       0       0       0       0       0       0       0       0       0       0       0       0
      Locals:         0       2       0       0       0       0       0       0       0       0       0       0       0       0
      Temps:          0       1       0       0       0       0       0       0       0       0       0       0       0       0
      Totals:         0       3       0       0       0       0       0       0       0       0       0       0       0       0
Total ram usage:        3 bytes
 Hardware stack levels used:    1
 Hardware stack levels required when called:    6
 This function calls:
		___wmul
 This function is called by:
		_main
 This function uses a non-reentrant model


 *************** function _displayTest *****************
 Defined at:
		line 31 in file "segment.c"
 Parameters:    Size  Location     Type
		None
 Auto vars:     Size  Location     Type
		None
 Return value:  Size  Location     Type
                  1    wreg      void 
 Registers used:
		wreg, fsr2l, fsr2h, status,2, status,0, tblptrl, tblptrh, tblptru, cstack
 Tracked objects:
		On entry : 
		On exit  : 
		Unchanged: 
 Data sizes:     COMRAM   BANK0   BANK1   BANK2   BANK3   BANK4   BANK5   BANK6   BANK7   BANK8   BANK9  BANK10  BANK11  BANK12
      Params:         0       0       0       0       0       0       0       0       0       0       0       0       0       0
      Locals:         0       0       0       0       0       0       0       0       0       0       0       0       0       0
      Temps:          0       2       0       0       0       0       0       0       0       0       0       0       0       0
      Totals:         0       2       0       0       0       0       0       0       0       0       0       0       0       0
Total ram usage:        2 bytes
 Hardware stack levels used:    1
 Hardware stack levels required when called:    6
 This function calls:
		_strcpy
 This function is called by:
		_main
 This function uses a non-reentrant model


 *************** function _digitalInputs *****************
 Defined at:
		line 289 in file "main.c"
 Parameters:    Size  Location     Type
		None
 Auto vars:     Size  Location     Type
		None
 Return value:  Size  Location     Type
                  1    wreg      void 
 Registers used:
		wreg, fsr1l, fsr1h, fsr2l, fsr2h, status,2, status,0, tblptrl, tblptrh, tblptru, prodl, prodh, cstack
 Tracked objects:
		On entry : 
		On exit  : 
		Unchanged: 
 Data sizes:     COMRAM   BANK0   BANK1   BANK2   BANK3   BANK4   BANK5   BANK6   BANK7   BANK8   BANK9  BANK10  BANK11  BANK12
      Params:         0       0       0       0       0       0       0       0       0       0       0       0       0       0
      Locals:         0       0       0       0       0       0       0       0       0       0       0       0       0       0
      Temps:          0       0       0       0       0       0       0       0       0       0       0       0       0       0
      Totals:         0       0       0       0       0       0       0       0       0       0       0       0       0       0
Total ram usage:        0 bytes
 Hardware stack levels used:    1
 Hardware stack levels required when called:   14
 This function calls:
		_buttonInputsSerial
		_keyboardTranspose
		_processDrumpad
		_processKeyboard
		_processOctave
 This function is called by:
		_main
 This function uses a non-reentrant model


 *************** function _processOctave *****************
 Defined at:
		line 189 in file "octave.c"
 Parameters:    Size  Location     Type
		None
 Auto vars:     Size  Location     Type
		None
 Return value:  Size  Location     Type
                  1    wreg      void 
 Registers used:
		wreg, fsr1l, fsr1h, fsr2l, fsr2h, status,2, status,0, tblptrl, tblptrh, tblptru, prodl, prodh, cstack
 Tracked objects:
		On entry : 
		On exit  : 
		Unchanged: 
 Data sizes:     COMRAM   BANK0   BANK1   BANK2   BANK3   BANK4   BANK5   BANK6   BANK7   BANK8   BANK9  BANK10  BANK11  BANK12
      Params:         0       0       0       0       0       0       0       0       0       0       0       0       0       0
      Locals:         0       0       0       0       0       0       0       0       0       0       0       0       0       0
      Temps:          0       2       0       0       0       0       0       0       0       0       0       0       0       0
      Totals:         0       2       0       0       0       0       0       0       0       0       0       0       0       0
Total ram usage:        2 bytes
 Hardware stack levels used:    1
 Hardware stack levels required when called:   12
 This function calls:
		___awmod
		___wmul
		_key_press_release_note_off
		_playThisNote
		_playThisNote8
		_playThisNotePentatonic
		_printThisNumber
		_random_pitches
		_random_pitches_non_repeating
		_resetArpeggio
		_strcpy
		_wait_one_pulse
 This function is called by:
		_digitalInputs
 This function uses a non-reentrant model


 *************** function _strcpy *****************
 Defined at:
		line 8 in file "C:\Program Files (x86)\Microchip\xc8\v1.45\sources\common\strcpy.c"
 Parameters:    Size  Location     Type
  to              2    0[BANK0 ] PTR unsigned char 
		 -> string_to_display(5), 
  from            2    2[BANK0 ] PTR const unsigned char 
		 -> STR_62(5), STR_60(5), STR_57(5), STR_55(5), 
		 -> STR_52(5), STR_51(5), STR_43(5), STR_41(5), 
		 -> STR_9(5), STR_8(5), STR_7(5), STR_6(5), 
		 -> STR_5(5), STR_4(5), STR_3(5), STR_2(5), 
		 -> STR_1(5), 
 Auto vars:     Size  Location     Type
  cp              2    4[BANK0 ] PTR unsigned char 
		 -> string_to_display(5), 
 Return value:  Size  Location     Type
                  2    0[BANK0 ] PTR unsigned char 
 Registers used:
		wreg, fsr2l, fsr2h, status,2, status,0, tblptrl, tblptrh, tblptru
 Tracked objects:
		On entry : 
		On exit  : 
		Unchanged: 
 Data sizes:     COMRAM   BANK0   BANK1   BANK2   BANK3   BANK4   BANK5   BANK6   BANK7   BANK8   BANK9  BANK10  BANK11  BANK12
      Params:         0       4       0       0       0       0       0       0       0       0       0       0       0       0
      Locals:         0       2       0       0       0       0       0       0       0       0       0       0       0       0
      Temps:          0       0       0       0       0       0       0       0       0       0       0       0       0       0
      Totals:         0       6       0       0       0       0       0       0       0       0       0       0       0       0
Total ram usage:        6 bytes
 Hardware stack levels used:    1
 Hardware stack levels required when called:    5
 This function calls:
		Nothing
 This function is called by:
		_processOctave
		_displayTest
		_Function_H_1
		_Function_H_6_1
		_Function_H_6_2
		_Function_H_7
 This function uses a non-reentrant model


 *************** function ___wmul *****************
 Defined at:
		line 15 in file "C:\Program Files (x86)\Microchip\xc8\v1.45\sources\common\Umul16.c"
 Parameters:    Size  Location     Type
  multiplier      2    4[BANK0 ] unsigned int 
  multiplicand    2    6[BANK0 ] unsigned int 
 Auto vars:     Size  Location     Type
  product         2    8[BANK0 ] unsigned int 
 Return value:  Size  Location     Type
                  2    4[BANK0 ] unsigned int 
 Registers used:
		wreg, status,2, status,0, prodl, prodh
 Tracked objects:
		On entry : 
		On exit  : 
		Unchanged: 
 Data sizes:     COMRAM   BANK0   BANK1   BANK2   BANK3   BANK4   BANK5   BANK6   BANK7   BANK8   BANK9  BANK10  BANK11  BANK12
      Params:         0       4       0       0       0       0       0       0       0       0       0       0       0       0
      Locals:         0       2       0       0       0       0       0       0       0       0       0       0       0       0
      Temps:          0       0       0       0       0       0       0       0       0       0       0       0       0       0
      Totals:         0       6       0       0       0       0       0       0       0       0       0       0       0       0
Total ram usage:        6 bytes
 Hardware stack levels used:    1
 Hardware stack levels required when called:    5
 This function calls:
		Nothing
 This function is called by:
		_processOctave
		_initializeMenuArray
		_menu_lcd
		_Function_A_1
		_Function_A_2
		_Function_A_3
		_Function_A
		_Function_B
		_Function_C_1
		_Function_C_2
		_Function_C_3
		_Function_C
		_Function_D_1
		_Function_D_3
		_Function_D_4
		_Function_D_5
		_Function_D
		_Function_E
		_Function_G_1
		_Function_G_2
		_Function_G_4
		_Function_G
		_Function_H
		_Function_H_4
		_Function_H_5
		_Function_H_6
		_Function_H_8
		_Function_H_9_1
		_Function_H_9_2
		_Function_H_9_3
		_Function_H_9_4
		_Function_H_9
 This function uses a non-reentrant model


 *************** function _processKeyboard *****************
 Defined at:
		line 23 in file "keyboard.c"
 Parameters:    Size  Location     Type
		None
 Auto vars:     Size  Location     Type
		None
 Return value:  Size  Location     Type
                  1    wreg      void 
 Registers used:
		wreg, fsr1l, fsr1h, fsr2l, fsr2h, status,2, status,0, tblptrl, tblptrh, tblptru, prodl, prodh, cstack
 Tracked objects:
		On entry : 
		On exit  : 
		Unchanged: 
 Data sizes:     COMRAM   BANK0   BANK1   BANK2   BANK3   BANK4   BANK5   BANK6   BANK7   BANK8   BANK9  BANK10  BANK11  BANK12
      Params:         0       0       0       0       0       0       0       0       0       0       0       0       0       0
      Locals:         0       0       0       0       0       0       0       0       0       0       0       0       0       0
      Temps:          0       0       0       0       0       0       0       0       0       0       0       0       0       0
      Totals:         0       0       0       0       0       0       0       0       0       0       0       0       0       0
Total ram usage:        0 bytes
 Hardware stack levels used:    1
 Hardware stack levels required when called:   13
 This function calls:
		_keyboard_all_note_efficient
		_keyboard_eight_note_efficient
		_keyboard_sharps_only_efficient
 This function is called by:
		_digitalInputs
 This function uses a non-reentrant model


 *************** function _keyboard_sharps_only_efficient *****************
 Defined at:
		line 123 in file "keyboard.c"
 Parameters:    Size  Location     Type
		None
 Auto vars:     Size  Location     Type
  index           1   30[BANK0 ] unsigned char 
  pitch           1   29[BANK0 ] unsigned char 
 Return value:  Size  Location     Type
                  1    wreg      void 
 Registers used:
		wreg, fsr1l, fsr1h, fsr2l, fsr2h, status,2, status,0, tblptrl, tblptrh, tblptru, prodl, prodh, cstack
 Tracked objects:
		On entry : 
		On exit  : 
		Unchanged: 
 Data sizes:     COMRAM   BANK0   BANK1   BANK2   BANK3   BANK4   BANK5   BANK6   BANK7   BANK8   BANK9  BANK10  BANK11  BANK12
      Params:         0       0       0       0       0       0       0       0       0       0       0       0       0       0
      Locals:         0       2       0       0       0       0       0       0       0       0       0       0       0       0
      Temps:          0       0       0       0       0       0       0       0       0       0       0       0       0       0
      Totals:         0       2       0       0       0       0       0       0       0       0       0       0       0       0
Total ram usage:        2 bytes
 Hardware stack levels used:    1
 Hardware stack levels required when called:   11
 This function calls:
		_playThisNotePentatonic
 This function is called by:
		_processKeyboard
 This function uses a non-reentrant model


 *************** function _playThisNotePentatonic *****************
 Defined at:
		line 33 in file "keyboard.c"
 Parameters:    Size  Location     Type
  pitch           1    wreg     unsigned char 
  index           1   23[BANK0 ] unsigned char 
 Auto vars:     Size  Location     Type
  pitch           1    0[COMRAM] unsigned char 
  temp_pitch      1   28[BANK0 ] unsigned char 
 Return value:  Size  Location     Type
                  1    wreg      void 
 Registers used:
		wreg, fsr1l, fsr1h, fsr2l, fsr2h, status,2, status,0, tblptrl, tblptrh, tblptru, prodl, prodh, cstack
 Tracked objects:
		On entry : 
		On exit  : 
		Unchanged: 
 Data sizes:     COMRAM   BANK0   BANK1   BANK2   BANK3   BANK4   BANK5   BANK6   BANK7   BANK8   BANK9  BANK10  BANK11  BANK12
      Params:         0       1       0       0       0       0       0       0       0       0       0       0       0       0
      Locals:         0       1       0       0       0       0       0       0       0       0       0       0       0       0
      Temps:          0       4       0       0       0       0       0       0       0       0       0       0       0       0
      Totals:         0       6       0       0       0       0       0       0       0       0       0       0       0       0
Total ram usage:        6 bytes
 Hardware stack levels used:    1
 Hardware stack levels required when called:   10
 This function calls:
		_add_notes_to_arpeggio
		_delete_notes_from_arpeggio
		_finish_arpeggio_setup
		_key_press_release_note_off
		_noteOff
		_noteOn
		_wait_one_pulse
 This function is called by:
		_keyboard_sharps_only_efficient
		_processOctave
		_Function_H_6_1
 This function uses a non-reentrant model


 *************** function _keyboard_eight_note_efficient *****************
 Defined at:
		line 1337 in file "keyboard.c"
 Parameters:    Size  Location     Type
		None
 Auto vars:     Size  Location     Type
  index           1   41[BANK0 ] unsigned char 
  pitch           1   40[BANK0 ] unsigned char 
 Return value:  Size  Location     Type
                  1    wreg      void 
 Registers used:
		wreg, fsr1l, fsr1h, fsr2l, fsr2h, status,2, status,0, tblptrl, tblptrh, tblptru, prodl, prodh, cstack
 Tracked objects:
		On entry : 
		On exit  : 
		Unchanged: 
 Data sizes:     COMRAM   BANK0   BANK1   BANK2   BANK3   BANK4   BANK5   BANK6   BANK7   BANK8   BANK9  BANK10  BANK11  BANK12
      Params:         0       0       0       0       0       0       0       0       0       0       0       0       0       0
      Locals:         0       2       0       0       0       0       0       0       0       0       0       0       0       0
      Temps:          0       0       0       0       0       0       0       0       0       0       0       0       0       0
      Totals:         0       2       0       0       0       0       0       0       0       0       0       0       0       0
Total ram usage:        2 bytes
 Hardware stack levels used:    1
 Hardware stack levels required when called:   12
 This function calls:
		_playThisNote8
 This function is called by:
		_processKeyboard
 This function uses a non-reentrant model


 *************** function _playThisNote8 *****************
 Defined at:
		line 876 in file "keyboard.c"
 Parameters:    Size  Location     Type
  pitch           1    wreg     unsigned char 
  index           1   31[BANK0 ] unsigned char 
 Auto vars:     Size  Location     Type
  pitch           1   36[BANK0 ] unsigned char 
  temp_pitch      1   37[BANK0 ] unsigned char 
  mode_p          2   38[BANK0 ] PTR unsigned char 
		 -> locrian_key(15), aeolian_key(15), mixolydian_key(15), lydian_key(15), 
		 -> phrygian_key(15), dorian_key(15), ionian_key(15), 
 Return value:  Size  Location     Type
                  1    wreg      void 
 Registers used:
		wreg, fsr1l, fsr1h, fsr2l, fsr2h, status,2, status,0, tblptrl, tblptrh, tblptru, prodl, prodh, cstack
 Tracked objects:
		On entry : 
		On exit  : 
		Unchanged: 
 Data sizes:     COMRAM   BANK0   BANK1   BANK2   BANK3   BANK4   BANK5   BANK6   BANK7   BANK8   BANK9  BANK10  BANK11  BANK12
      Params:         0       1       0       0       0       0       0       0       0       0       0       0       0       0
      Locals:         0       4       0       0       0       0       0       0       0       0       0       0       0       0
      Temps:          0       4       0       0       0       0       0       0       0       0       0       0       0       0
      Totals:         0       9       0       0       0       0       0       0       0       0       0       0       0       0
Total ram usage:        9 bytes
 Hardware stack levels used:    1
 Hardware stack levels required when called:   11
 This function calls:
		_add_notes_to_arpeggio
		_delete_notes_from_arpeggio
		_finish_arpeggio_setup
		_key_press_release_note_off
		_noteOff
		_noteOn
		_playDiatonicSeventhMajor
		_playDiatonicSeventhMinor
		_playDiatonicTriadMajor
		_playDiatonicTriadMinor
		_wait_one_pulse
 This function is called by:
		_keyboard_eight_note_efficient
		_processOctave
		_Function_H_6_1
 This function uses a non-reentrant model


 *************** function _playDiatonicTriadMinor *****************
 Defined at:
		line 1181 in file "keyboard.c"
 Parameters:    Size  Location     Type
  pitch           1    wreg     unsigned char 
  index           1   23[BANK0 ] unsigned char 
 Auto vars:     Size  Location     Type
  pitch           1   28[BANK0 ] unsigned char 
  i               1   30[BANK0 ] unsigned char 
  i               1   29[BANK0 ] unsigned char 
 Return value:  Size  Location     Type
                  1    wreg      void 
 Registers used:
		wreg, fsr1l, fsr1h, fsr2l, fsr2h, status,2, status,0, tblptrl, tblptrh, tblptru, prodl, prodh, cstack
 Tracked objects:
		On entry : 
		On exit  : 
		Unchanged: 
 Data sizes:     COMRAM   BANK0   BANK1   BANK2   BANK3   BANK4   BANK5   BANK6   BANK7   BANK8   BANK9  BANK10  BANK11  BANK12
      Params:         0       1       0       0       0       0       0       0       0       0       0       0       0       0
      Locals:         0       3       0       0       0       0       0       0       0       0       0       0       0       0
      Temps:          0       4       0       0       0       0       0       0       0       0       0       0       0       0
      Totals:         0       8       0       0       0       0       0       0       0       0       0       0       0       0
Total ram usage:        8 bytes
 Hardware stack levels used:    1
 Hardware stack levels required when called:   10
 This function calls:
		_finish_arpeggio_setup
		_key_press_release_note_off
		_noteOff
		_noteOn
		_wait_one_pulse
 This function is called by:
		_playThisNote8
 This function uses a non-reentrant model


 *************** function _playDiatonicTriadMajor *****************
 Defined at:
		line 1041 in file "keyboard.c"
 Parameters:    Size  Location     Type
  pitch           1    wreg     unsigned char 
  index           1   23[BANK0 ] unsigned char 
 Auto vars:     Size  Location     Type
  pitch           1   30[BANK0 ] unsigned char 
  i               1   29[BANK0 ] unsigned char 
  i               1   28[BANK0 ] unsigned char 
 Return value:  Size  Location     Type
                  1    wreg      void 
 Registers used:
		wreg, fsr1l, fsr1h, fsr2l, fsr2h, status,2, status,0, tblptrl, tblptrh, tblptru, prodl, prodh, cstack
 Tracked objects:
		On entry : 
		On exit  : 
		Unchanged: 
 Data sizes:     COMRAM   BANK0   BANK1   BANK2   BANK3   BANK4   BANK5   BANK6   BANK7   BANK8   BANK9  BANK10  BANK11  BANK12
      Params:         0       1       0       0       0       0       0       0       0       0       0       0       0       0
      Locals:         0       3       0       0       0       0       0       0       0       0       0       0       0       0
      Temps:          0       4       0       0       0       0       0       0       0       0       0       0       0       0
      Totals:         0       8       0       0       0       0       0       0       0       0       0       0       0       0
Total ram usage:        8 bytes
 Hardware stack levels used:    1
 Hardware stack levels required when called:   10
 This function calls:
		_finish_arpeggio_setup
		_key_press_release_note_off
		_noteOff
		_noteOn
		_wait_one_pulse
 This function is called by:
		_playThisNote8
 This function uses a non-reentrant model


 *************** function _playDiatonicSeventhMinor *****************
 Defined at:
		line 1259 in file "keyboard.c"
 Parameters:    Size  Location     Type
  pitch           1    wreg     unsigned char 
  index           1   23[BANK0 ] unsigned char 
 Auto vars:     Size  Location     Type
  pitch           1   28[BANK0 ] unsigned char 
  i               1   30[BANK0 ] unsigned char 
  i               1   29[BANK0 ] unsigned char 
 Return value:  Size  Location     Type
                  1    wreg      void 
 Registers used:
		wreg, fsr1l, fsr1h, fsr2l, fsr2h, status,2, status,0, tblptrl, tblptrh, tblptru, prodl, prodh, cstack
 Tracked objects:
		On entry : 
		On exit  : 
		Unchanged: 
 Data sizes:     COMRAM   BANK0   BANK1   BANK2   BANK3   BANK4   BANK5   BANK6   BANK7   BANK8   BANK9  BANK10  BANK11  BANK12
      Params:         0       1       0       0       0       0       0       0       0       0       0       0       0       0
      Locals:         0       3       0       0       0       0       0       0       0       0       0       0       0       0
      Temps:          0       4       0       0       0       0       0       0       0       0       0       0       0       0
      Totals:         0       8       0       0       0       0       0       0       0       0       0       0       0       0
Total ram usage:        8 bytes
 Hardware stack levels used:    1
 Hardware stack levels required when called:   10
 This function calls:
		_finish_arpeggio_setup
		_key_press_release_note_off
		_noteOff
		_noteOn
		_wait_one_pulse
 This function is called by:
		_playThisNote8
 This function uses a non-reentrant model


 *************** function _playDiatonicSeventhMajor *****************
 Defined at:
		line 1109 in file "keyboard.c"
 Parameters:    Size  Location     Type
  pitch           1    wreg     unsigned char 
  index           1   23[BANK0 ] unsigned char 
 Auto vars:     Size  Location     Type
  pitch           1   30[BANK0 ] unsigned char 
  i               1   29[BANK0 ] unsigned char 
  i               1   28[BANK0 ] unsigned char 
 Return value:  Size  Location     Type
                  1    wreg      void 
 Registers used:
		wreg, fsr1l, fsr1h, fsr2l, fsr2h, status,2, status,0, tblptrl, tblptrh, tblptru, prodl, prodh, cstack
 Tracked objects:
		On entry : 
		On exit  : 
		Unchanged: 
 Data sizes:     COMRAM   BANK0   BANK1   BANK2   BANK3   BANK4   BANK5   BANK6   BANK7   BANK8   BANK9  BANK10  BANK11  BANK12
      Params:         0       1       0       0       0       0       0       0       0       0       0       0       0       0
      Locals:         0       3       0       0       0       0       0       0       0       0       0       0       0       0
      Temps:          0       4       0       0       0       0       0       0       0       0       0       0       0       0
      Totals:         0       8       0       0       0       0       0       0       0       0       0       0       0       0
Total ram usage:        8 bytes
 Hardware stack levels used:    1
 Hardware stack levels required when called:   10
 This function calls:
		_finish_arpeggio_setup
		_key_press_release_note_off
		_noteOff
		_noteOn
		_wait_one_pulse
 This function is called by:
		_playThisNote8
 This function uses a non-reentrant model


 *************** function _keyboard_all_note_efficient *****************
 Defined at:
		line 564 in file "keyboard.c"
 Parameters:    Size  Location     Type
		None
 Auto vars:     Size  Location     Type
  pitch           1   37[BANK0 ] unsigned char 
 Return value:  Size  Location     Type
                  1    wreg      void 
 Registers used:
		wreg, fsr1l, fsr1h, fsr2l, fsr2h, status,2, status,0, tblptrl, tblptrh, tblptru, prodl, prodh, cstack
 Tracked objects:
		On entry : 
		On exit  : 
		Unchanged: 
 Data sizes:     COMRAM   BANK0   BANK1   BANK2   BANK3   BANK4   BANK5   BANK6   BANK7   BANK8   BANK9  BANK10  BANK11  BANK12
      Params:         0       0       0       0       0       0       0       0       0       0       0       0       0       0
      Locals:         0       1       0       0       0       0       0       0       0       0       0       0       0       0
      Temps:          0       0       0       0       0       0       0       0       0       0       0       0       0       0
      Totals:         0       1       0       0       0       0       0       0       0       0       0       0       0       0
Total ram usage:        1 bytes
 Hardware stack levels used:    1
 Hardware stack levels required when called:   12
 This function calls:
		_playThisNote
 This function is called by:
		_processKeyboard
 This function uses a non-reentrant model


 *************** function _playThisNote *****************
 Defined at:
		line 467 in file "keyboard.c"
 Parameters:    Size  Location     Type
  pitch           1    wreg     unsigned char 
 Auto vars:     Size  Location     Type
  pitch           1   36[BANK0 ] unsigned char 
 Return value:  Size  Location     Type
                  1    wreg      void 
 Registers used:
		wreg, fsr1l, fsr1h, fsr2l, fsr2h, status,2, status,0, tblptrl, tblptrh, tblptru, prodl, prodh, cstack
 Tracked objects:
		On entry : 
		On exit  : 
		Unchanged: 
 Data sizes:     COMRAM   BANK0   BANK1   BANK2   BANK3   BANK4   BANK5   BANK6   BANK7   BANK8   BANK9  BANK10  BANK11  BANK12
      Params:         0       0       0       0       0       0       0       0       0       0       0       0       0       0
      Locals:         0       1       0       0       0       0       0       0       0       0       0       0       0       0
      Temps:          0       4       0       0       0       0       0       0       0       0       0       0       0       0
      Totals:         0       5       0       0       0       0       0       0       0       0       0       0       0       0
Total ram usage:        5 bytes
 Hardware stack levels used:    1
 Hardware stack levels required when called:   11
 This function calls:
		_add_notes_to_arpeggio
		_delete_notes_from_arpeggio
		_finish_arpeggio_setup
		_key_press_release_note_off
		_noteOff
		_noteOn
		_playSeventh
		_playTriad
		_wait_one_pulse
 This function is called by:
		_keyboard_all_note_efficient
		_processOctave
		_Function_H_6_1
 This function uses a non-reentrant model


 *************** function _playTriad *****************
 Defined at:
		line 276 in file "keyboard.c"
 Parameters:    Size  Location     Type
  pitch           1    wreg     unsigned char 
 Auto vars:     Size  Location     Type
  pitch           1   31[BANK0 ] unsigned char 
  i               1   30[BANK0 ] unsigned char 
  i               1   29[BANK0 ] unsigned char 
  triad_p         2   27[BANK0 ] PTR unsigned char 
		 -> diminished_triad(3), augmented_triad(3), minor_triad(3), major_triad(3), 
 Return value:  Size  Location     Type
                  1    wreg      void 
 Registers used:
		wreg, fsr1l, fsr1h, fsr2l, fsr2h, status,2, status,0, prodl, prodh, cstack
 Tracked objects:
		On entry : 
		On exit  : 
		Unchanged: 
 Data sizes:     COMRAM   BANK0   BANK1   BANK2   BANK3   BANK4   BANK5   BANK6   BANK7   BANK8   BANK9  BANK10  BANK11  BANK12
      Params:         0       0       0       0       0       0       0       0       0       0       0       0       0       0
      Locals:         0       5       0       0       0       0       0       0       0       0       0       0       0       0
      Temps:          0       4       0       0       0       0       0       0       0       0       0       0       0       0
      Totals:         0       9       0       0       0       0       0       0       0       0       0       0       0       0
Total ram usage:        9 bytes
 Hardware stack levels used:    1
 Hardware stack levels required when called:   10
 This function calls:
		_finish_arpeggio_setup
		_key_press_release_note_off
		_noteOff
		_noteOn
		_wait_one_pulse
 This function is called by:
		_playThisNote
 This function uses a non-reentrant model


 *************** function _playSeventh *****************
 Defined at:
		line 370 in file "keyboard.c"
 Parameters:    Size  Location     Type
  pitch           1    wreg     unsigned char 
 Auto vars:     Size  Location     Type
  pitch           1   31[BANK0 ] unsigned char 
  i               1   30[BANK0 ] unsigned char 
  i               1   29[BANK0 ] unsigned char 
  seventh_p       2   27[BANK0 ] PTR unsigned char 
		 -> diminished_7th(4), half_diminished_7th(4), minor_7th(4), major_7th(4), 
		 -> dominant_7th(4), 
 Return value:  Size  Location     Type
                  1    wreg      void 
 Registers used:
		wreg, fsr1l, fsr1h, fsr2l, fsr2h, status,2, status,0, prodl, prodh, cstack
 Tracked objects:
		On entry : 
		On exit  : 
		Unchanged: 
 Data sizes:     COMRAM   BANK0   BANK1   BANK2   BANK3   BANK4   BANK5   BANK6   BANK7   BANK8   BANK9  BANK10  BANK11  BANK12
      Params:         0       0       0       0       0       0       0       0       0       0       0       0       0       0
      Locals:         0       5       0       0       0       0       0       0       0       0       0       0       0       0
      Temps:          0       4       0       0       0       0       0       0       0       0       0       0       0       0
      Totals:         0       9       0       0       0       0       0       0       0       0       0       0       0       0
Total ram usage:        9 bytes
 Hardware stack levels used:    1
 Hardware stack levels required when called:   10
 This function calls:
		_finish_arpeggio_setup
		_key_press_release_note_off
		_noteOff
		_noteOn
		_wait_one_pulse
 This function is called by:
		_playThisNote
 This function uses a non-reentrant model


 *************** function _noteOn *****************
 Defined at:
		line 83 in file "midi.c"
 Parameters:    Size  Location     Type
  channel         1    wreg     unsigned char 
  pitch           1   14[BANK0 ] unsigned char 
  velocity        1   15[BANK0 ] unsigned char 
 Auto vars:     Size  Location     Type
  channel         1   16[BANK0 ] unsigned char 
 Return value:  Size  Location     Type
                  1    wreg      void 
 Registers used:
		wreg, fsr2l, fsr2h, status,2, status,0, prodl, prodh, cstack
 Tracked objects:
		On entry : 
		On exit  : 
		Unchanged: 
 Data sizes:     COMRAM   BANK0   BANK1   BANK2   BANK3   BANK4   BANK5   BANK6   BANK7   BANK8   BANK9  BANK10  BANK11  BANK12
      Params:         0       2       0       0       0       0       0       0       0       0       0       0       0       0
      Locals:         0       1       0       0       0       0       0       0       0       0       0       0       0       0
      Temps:          0       0       0       0       0       0       0       0       0       0       0       0       0       0
      Totals:         0       3       0       0       0       0       0       0       0       0       0       0       0       0
Total ram usage:        3 bytes
 Hardware stack levels used:    1
 Hardware stack levels required when called:    7
 This function calls:
		_noteOff
		_sendOut
		_sendUSB
 This function is called by:
		_playThisNotePentatonic
		_playTriad
		_playSeventh
		_playThisNote
		_playThisNote8
		_playDiatonicTriadMajor
		_playDiatonicSeventhMajor
		_playDiatonicTriadMinor
		_playDiatonicSeventhMinor
		_keyboard_all_note
		_keyboard_eight_note
 This function uses a non-reentrant model


 *************** function _finish_arpeggio_setup *****************
 Defined at:
		line 87 in file "arpeggio.c"
 Parameters:    Size  Location     Type
		None
 Auto vars:     Size  Location     Type
		None
 Return value:  Size  Location     Type
                  1    wreg      void 
 Registers used:
		wreg, fsr1l, fsr1h, fsr2l, fsr2h, status,2, status,0, prodl, prodh, cstack
 Tracked objects:
		On entry : 
		On exit  : 
		Unchanged: 
 Data sizes:     COMRAM   BANK0   BANK1   BANK2   BANK3   BANK4   BANK5   BANK6   BANK7   BANK8   BANK9  BANK10  BANK11  BANK12
      Params:         0       0       0       0       0       0       0       0       0       0       0       0       0       0
      Locals:         0       0       0       0       0       0       0       0       0       0       0       0       0       0
      Temps:          0       0       0       0       0       0       0       0       0       0       0       0       0       0
      Totals:         0       0       0       0       0       0       0       0       0       0       0       0       0       0
Total ram usage:        0 bytes
 Hardware stack levels used:    1
 Hardware stack levels required when called:    9
 This function calls:
		_resetArpeggio
		_setupArpeggio
 This function is called by:
		_playThisNotePentatonic
		_playTriad
		_playSeventh
		_playThisNote
		_playThisNote8
		_playDiatonicTriadMajor
		_playDiatonicSeventhMajor
		_playDiatonicTriadMinor
		_playDiatonicSeventhMinor
 This function uses a non-reentrant model


 *************** function _setupArpeggio *****************
 Defined at:
		line 170 in file "arpeggio.c"
 Parameters:    Size  Location     Type
		None
 Auto vars:     Size  Location     Type
		None
 Return value:  Size  Location     Type
                  1    wreg      void 
 Registers used:
		wreg, fsr1l, fsr1h, fsr2l, fsr2h, status,2, status,0, prodl, prodh, cstack
 Tracked objects:
		On entry : 
		On exit  : 
		Unchanged: 
 Data sizes:     COMRAM   BANK0   BANK1   BANK2   BANK3   BANK4   BANK5   BANK6   BANK7   BANK8   BANK9  BANK10  BANK11  BANK12
      Params:         0       0       0       0       0       0       0       0       0       0       0       0       0       0
      Locals:         0       0       0       0       0       0       0       0       0       0       0       0       0       0
      Temps:          0       0       0       0       0       0       0       0       0       0       0       0       0       0
      Totals:         0       0       0       0       0       0       0       0       0       0       0       0       0       0
Total ram usage:        0 bytes
 Hardware stack levels used:    1
 Hardware stack levels required when called:    8
 This function calls:
		_copy_array
		_random_pitches
		_random_pitches_non_repeating
 This function is called by:
		_Function_H_4
		_finish_arpeggio_setup
 This function uses a non-reentrant model


 *************** function _random_pitches_non_repeating *****************
 Defined at:
		line 252 in file "arpeggio.c"
 Parameters:    Size  Location     Type
		None
 Auto vars:     Size  Location     Type
  randomIndex     1   21[BANK0 ] unsigned char 
  temp            1   20[BANK0 ] unsigned char 
  i               1   22[BANK0 ] unsigned char 
 Return value:  Size  Location     Type
                  1    wreg      void 
 Registers used:
		wreg, fsr1l, fsr1h, fsr2l, fsr2h, status,2, status,0, prodl, prodh, cstack
 Tracked objects:
		On entry : 
		On exit  : 
		Unchanged: 
 Data sizes:     COMRAM   BANK0   BANK1   BANK2   BANK3   BANK4   BANK5   BANK6   BANK7   BANK8   BANK9  BANK10  BANK11  BANK12
      Params:         0       0       0       0       0       0       0       0       0       0       0       0       0       0
      Locals:         0       3       0       0       0       0       0       0       0       0       0       0       0       0
      Temps:          0       0       0       0       0       0       0       0       0       0       0       0       0       0
      Totals:         0       3       0       0       0       0       0       0       0       0       0       0       0       0
Total ram usage:        3 bytes
 Hardware stack levels used:    1
 Hardware stack levels required when called:    7
 This function calls:
		___awmod
		_rand
 This function is called by:
		_processOctave
		_setupArpeggio
 This function uses a non-reentrant model


 *************** function _random_pitches *****************
 Defined at:
		line 241 in file "arpeggio.c"
 Parameters:    Size  Location     Type
		None
 Auto vars:     Size  Location     Type
  random_array    1   20[BANK0 ] unsigned char 
  i               1   21[BANK0 ] unsigned char 
 Return value:  Size  Location     Type
                  1    wreg      void 
 Registers used:
		wreg, fsr1l, fsr1h, fsr2l, fsr2h, status,2, status,0, prodl, prodh, cstack
 Tracked objects:
		On entry : 
		On exit  : 
		Unchanged: 
 Data sizes:     COMRAM   BANK0   BANK1   BANK2   BANK3   BANK4   BANK5   BANK6   BANK7   BANK8   BANK9  BANK10  BANK11  BANK12
      Params:         0       0       0       0       0       0       0       0       0       0       0       0       0       0
      Locals:         0       2       0       0       0       0       0       0       0       0       0       0       0       0
      Temps:          0       0       0       0       0       0       0       0       0       0       0       0       0       0
      Totals:         0       2       0       0       0       0       0       0       0       0       0       0       0       0
Total ram usage:        2 bytes
 Hardware stack levels used:    1
 Hardware stack levels required when called:    7
 This function calls:
		___awmod
		_rand
 This function is called by:
		_processOctave
		_setupArpeggio
 This function uses a non-reentrant model


 *************** function _rand *****************
 Defined at:
		line 12 in file "C:\Program Files (x86)\Microchip\xc8\v1.45\sources\common\rand.c"
 Parameters:    Size  Location     Type
		None
 Auto vars:     Size  Location     Type
		None
 Return value:  Size  Location     Type
                  2   12[BANK0 ] int 
 Registers used:
		wreg, status,2, status,0, cstack
 Tracked objects:
		On entry : 
		On exit  : 
		Unchanged: 
 Data sizes:     COMRAM   BANK0   BANK1   BANK2   BANK3   BANK4   BANK5   BANK6   BANK7   BANK8   BANK9  BANK10  BANK11  BANK12
      Params:         0       2       0       0       0       0       0       0       0       0       0       0       0       0
      Locals:         0       0       0       0       0       0       0       0       0       0       0       0       0       0
      Temps:          0       0       0       0       0       0       0       0       0       0       0       0       0       0
      Totals:         0       2       0       0       0       0       0       0       0       0       0       0       0       0
Total ram usage:        2 bytes
 Hardware stack levels used:    1
 Hardware stack levels required when called:    6
 This function calls:
		___lmul
 This function is called by:
		_random_pitches
		_random_pitches_non_repeating
 This function uses a non-reentrant model


 *************** function ___awmod *****************
 Defined at:
		line 8 in file "C:\Program Files (x86)\Microchip\xc8\v1.45\sources\common\awmod.c"
 Parameters:    Size  Location     Type
  dividend        2   14[BANK0 ] int 
  divisor         2   16[BANK0 ] int 
 Auto vars:     Size  Location     Type
  sign            1   19[BANK0 ] unsigned char 
  counter         1   18[BANK0 ] unsigned char 
 Return value:  Size  Location     Type
                  2   14[BANK0 ] int 
 Registers used:
		wreg, status,2, status,0
 Tracked objects:
		On entry : 
		On exit  : 
		Unchanged: 
 Data sizes:     COMRAM   BANK0   BANK1   BANK2   BANK3   BANK4   BANK5   BANK6   BANK7   BANK8   BANK9  BANK10  BANK11  BANK12
      Params:         0       4       0       0       0       0       0       0       0       0       0       0       0       0
      Locals:         0       2       0       0       0       0       0       0       0       0       0       0       0       0
      Temps:          0       0       0       0       0       0       0       0       0       0       0       0       0       0
      Totals:         0       6       0       0       0       0       0       0       0       0       0       0       0       0
Total ram usage:        6 bytes
 Hardware stack levels used:    1
 Hardware stack levels required when called:    5
 This function calls:
		Nothing
 This function is called by:
		_processOctave
		_int2string
		_random_pitches
		_random_pitches_non_repeating
 This function uses a non-reentrant model


 *************** function _copy_array *****************
 Defined at:
		line 197 in file "arpeggio.c"
 Parameters:    Size  Location     Type
		None
 Auto vars:     Size  Location     Type
  i               1    0[BANK0 ] unsigned char 
 Return value:  Size  Location     Type
                  1    wreg      void 
 Registers used:
		wreg, fsr1l, fsr1h, fsr2l, fsr2h, status,2, status,0, prodl, prodh
 Tracked objects:
		On entry : 
		On exit  : 
		Unchanged: 
 Data sizes:     COMRAM   BANK0   BANK1   BANK2   BANK3   BANK4   BANK5   BANK6   BANK7   BANK8   BANK9  BANK10  BANK11  BANK12
      Params:         0       0       0       0       0       0       0       0       0       0       0       0       0       0
      Locals:         0       1       0       0       0       0       0       0       0       0       0       0       0       0
      Temps:          0       0       0       0       0       0       0       0       0       0       0       0       0       0
      Totals:         0       1       0       0       0       0       0       0       0       0       0       0       0       0
Total ram usage:        1 bytes
 Hardware stack levels used:    1
 Hardware stack levels required when called:    5
 This function calls:
		Nothing
 This function is called by:
		_setupArpeggio
 This function uses a non-reentrant model


 *************** function _resetArpeggio *****************
 Defined at:
		line 149 in file "arpeggio.c"
 Parameters:    Size  Location     Type
		None
 Auto vars:     Size  Location     Type
		None
 Return value:  Size  Location     Type
                  1    wreg      void 
 Registers used:
		wreg, status,2, status,0
 Tracked objects:
		On entry : 
		On exit  : 
		Unchanged: 
 Data sizes:     COMRAM   BANK0   BANK1   BANK2   BANK3   BANK4   BANK5   BANK6   BANK7   BANK8   BANK9  BANK10  BANK11  BANK12
      Params:         0       0       0       0       0       0       0       0       0       0       0       0       0       0
      Locals:         0       0       0       0       0       0       0       0       0       0       0       0       0       0
      Temps:          0       0       0       0       0       0       0       0       0       0       0       0       0       0
      Totals:         0       0       0       0       0       0       0       0       0       0       0       0       0       0
Total ram usage:        0 bytes
 Hardware stack levels used:    1
 Hardware stack levels required when called:    5
 This function calls:
		Nothing
 This function is called by:
		_processOctave
		_finish_arpeggio_setup
 This function uses a non-reentrant model


 *************** function _delete_notes_from_arpeggio *****************
 Defined at:
		line 56 in file "arpeggio.c"
 Parameters:    Size  Location     Type
  pitch           1    wreg     unsigned char 
 Auto vars:     Size  Location     Type
  pitch           1    9[BANK0 ] unsigned char 
  INDEX_TO_SHI    1   10[BANK0 ] char 
 Return value:  Size  Location     Type
                  1    wreg      void 
 Registers used:
		wreg, fsr1l, fsr1h, fsr2l, fsr2h, status,2, status,0, tblptrl, tblptrh, tblptru, prodl, prodh, cstack
 Tracked objects:
		On entry : 
		On exit  : 
		Unchanged: 
 Data sizes:     COMRAM   BANK0   BANK1   BANK2   BANK3   BANK4   BANK5   BANK6   BANK7   BANK8   BANK9  BANK10  BANK11  BANK12
      Params:         0       0       0       0       0       0       0       0       0       0       0       0       0       0
      Locals:         0       2       0       0       0       0       0       0       0       0       0       0       0       0
      Temps:          0       0       0       0       0       0       0       0       0       0       0       0       0       0
      Totals:         0       2       0       0       0       0       0       0       0       0       0       0       0       0
Total ram usage:        2 bytes
 Hardware stack levels used:    1
 Hardware stack levels required when called:    6
 This function calls:
		_findArrayIndex
		_rotateArrayLeft
 This function is called by:
		_playThisNotePentatonic
		_playThisNote
		_playThisNote8
 This function uses a non-reentrant model


 *************** function _rotateArrayLeft *****************
 Defined at:
		line 571 in file "arpeggio.c"
 Parameters:    Size  Location     Type
  array_index     1    wreg     unsigned char 
 Auto vars:     Size  Location     Type
  array_index     1    7[BANK0 ] unsigned char 
  i               1    8[BANK0 ] unsigned char 
 Return value:  Size  Location     Type
                  1    wreg      void 
 Registers used:
		wreg, fsr1l, fsr1h, fsr2l, fsr2h, status,2, status,0, tblptrl, tblptrh, tblptru, prodl, prodh
 Tracked objects:
		On entry : 
		On exit  : 
		Unchanged: 
 Data sizes:     COMRAM   BANK0   BANK1   BANK2   BANK3   BANK4   BANK5   BANK6   BANK7   BANK8   BANK9  BANK10  BANK11  BANK12
      Params:         0       0       0       0       0       0       0       0       0       0       0       0       0       0
      Locals:         0       2       0       0       0       0       0       0       0       0       0       0       0       0
      Temps:          0       7       0       0       0       0       0       0       0       0       0       0       0       0
      Totals:         0       9       0       0       0       0       0       0       0       0       0       0       0       0
Total ram usage:        9 bytes
 Hardware stack levels used:    1
 Hardware stack levels required when called:    5
 This function calls:
		Nothing
 This function is called by:
		_delete_notes_from_arpeggio
 This function uses a non-reentrant model


 *************** function _findArrayIndex *****************
 Defined at:
		line 503 in file "arpeggio.c"
 Parameters:    Size  Location     Type
  pitch_of_key    1    wreg     unsigned char 
 Auto vars:     Size  Location     Type
  pitch_of_key    1    1[BANK0 ] unsigned char 
  i               1    2[BANK0 ] unsigned char 
 Return value:  Size  Location     Type
                  1    wreg      char 
 Registers used:
		wreg, fsr2l, fsr2h, status,2, status,0, tblptrl, tblptrh, tblptru, prodl, prodh
 Tracked objects:
		On entry : 
		On exit  : 
		Unchanged: 
 Data sizes:     COMRAM   BANK0   BANK1   BANK2   BANK3   BANK4   BANK5   BANK6   BANK7   BANK8   BANK9  BANK10  BANK11  BANK12
      Params:         0       0       0       0       0       0       0       0       0       0       0       0       0       0
      Locals:         0       2       0       0       0       0       0       0       0       0       0       0       0       0
      Temps:          0       1       0       0       0       0       0       0       0       0       0       0       0       0
      Totals:         0       3       0       0       0       0       0       0       0       0       0       0       0       0
Total ram usage:        3 bytes
 Hardware stack levels used:    1
 Hardware stack levels required when called:    5
 This function calls:
		Nothing
 This function is called by:
		_delete_notes_from_arpeggio
 This function uses a non-reentrant model


 *************** function _add_notes_to_arpeggio *****************
 Defined at:
		line 39 in file "arpeggio.c"
 Parameters:    Size  Location     Type
  pitch           1    wreg     unsigned char 
 Auto vars:     Size  Location     Type
  pitch           1    7[BANK0 ] unsigned char 
 Return value:  Size  Location     Type
                  1    wreg      void 
 Registers used:
		wreg, fsr2l, fsr2h, status,2, status,0, tblptrl, tblptrh, tblptru, prodl, prodh
 Tracked objects:
		On entry : 
		On exit  : 
		Unchanged: 
 Data sizes:     COMRAM   BANK0   BANK1   BANK2   BANK3   BANK4   BANK5   BANK6   BANK7   BANK8   BANK9  BANK10  BANK11  BANK12
      Params:         0       0       0       0       0       0       0       0       0       0       0       0       0       0
      Locals:         0       1       0       0       0       0       0       0       0       0       0       0       0       0
      Temps:          0       7       0       0       0       0       0       0       0       0       0       0       0       0
      Totals:         0       8       0       0       0       0       0       0       0       0       0       0       0       0
Total ram usage:        8 bytes
 Hardware stack levels used:    1
 Hardware stack levels required when called:    5
 This function calls:
		Nothing
 This function is called by:
		_playThisNotePentatonic
		_playThisNote
		_playThisNote8
 This function uses a non-reentrant model


 *************** function _processDrumpad *****************
 Defined at:
		line 21 in file "drum.c"
 Parameters:    Size  Location     Type
		None
 Auto vars:     Size  Location     Type
		None
 Return value:  Size  Location     Type
                  1    wreg      void 
 Registers used:
		wreg, fsr2l, fsr2h, status,2, status,0, prodl, prodh, cstack
 Tracked objects:
		On entry : 
		On exit  : 
		Unchanged: 
 Data sizes:     COMRAM   BANK0   BANK1   BANK2   BANK3   BANK4   BANK5   BANK6   BANK7   BANK8   BANK9  BANK10  BANK11  BANK12
      Params:         0       0       0       0       0       0       0       0       0       0       0       0       0       0
      Locals:         0       0       0       0       0       0       0       0       0       0       0       0       0       0
      Temps:          0       0       0       0       0       0       0       0       0       0       0       0       0       0
      Totals:         0       0       0       0       0       0       0       0       0       0       0       0       0       0
Total ram usage:        0 bytes
 Hardware stack levels used:    1
 Hardware stack levels required when called:    8
 This function calls:
		_controlChange
		_noteOffDrum
		_noteOnDrum
 This function is called by:
		_digitalInputs
 This function uses a non-reentrant model


 *************** function _noteOnDrum *****************
 Defined at:
		line 120 in file "midi.c"
 Parameters:    Size  Location     Type
  channel         1    wreg     unsigned char 
  pitch           1   14[BANK0 ] unsigned char 
  velocity        1   15[BANK0 ] unsigned char 
 Auto vars:     Size  Location     Type
  channel         1   16[BANK0 ] unsigned char 
 Return value:  Size  Location     Type
                  1    wreg      void 
 Registers used:
		wreg, fsr2l, fsr2h, status,2, status,0, prodl, prodh, cstack
 Tracked objects:
		On entry : 
		On exit  : 
		Unchanged: 
 Data sizes:     COMRAM   BANK0   BANK1   BANK2   BANK3   BANK4   BANK5   BANK6   BANK7   BANK8   BANK9  BANK10  BANK11  BANK12
      Params:         0       2       0       0       0       0       0       0       0       0       0       0       0       0
      Locals:         0       1       0       0       0       0       0       0       0       0       0       0       0       0
      Temps:          0       0       0       0       0       0       0       0       0       0       0       0       0       0
      Totals:         0       3       0       0       0       0       0       0       0       0       0       0       0       0
Total ram usage:        3 bytes
 Hardware stack levels used:    1
 Hardware stack levels required when called:    7
 This function calls:
		_noteOff
		_sendOut
		_sendUSB
 This function is called by:
		_processDrumpad
 This function uses a non-reentrant model


 *************** function _noteOffDrum *****************
 Defined at:
		line 105 in file "midi.c"
 Parameters:    Size  Location     Type
  channel         1    wreg     unsigned char 
  pitch           1   11[BANK0 ] unsigned char 
  velocity        1   12[BANK0 ] unsigned char 
 Auto vars:     Size  Location     Type
  channel         1   13[BANK0 ] unsigned char 
 Return value:  Size  Location     Type
                  1    wreg      void 
 Registers used:
		wreg, fsr2l, fsr2h, status,2, status,0, prodl, prodh, cstack
 Tracked objects:
		On entry : 
		On exit  : 
		Unchanged: 
 Data sizes:     COMRAM   BANK0   BANK1   BANK2   BANK3   BANK4   BANK5   BANK6   BANK7   BANK8   BANK9  BANK10  BANK11  BANK12
      Params:         0       2       0       0       0       0       0       0       0       0       0       0       0       0
      Locals:         0       1       0       0       0       0       0       0       0       0       0       0       0       0
      Temps:          0       0       0       0       0       0       0       0       0       0       0       0       0       0
      Totals:         0       3       0       0       0       0       0       0       0       0       0       0       0       0
Total ram usage:        3 bytes
 Hardware stack levels used:    1
 Hardware stack levels required when called:    6
 This function calls:
		_sendOut
		_sendUSB
 This function is called by:
		_processDrumpad
 This function uses a non-reentrant model


 *************** function _keyboardTranspose *****************
 Defined at:
		line 28 in file "octave.c"
 Parameters:    Size  Location     Type
		None
 Auto vars:     Size  Location     Type
		None
 Return value:  Size  Location     Type
                  1    wreg      void 
 Registers used:
		wreg, fsr2l, fsr2h, status,2, status,0, prodl, prodh, cstack
 Tracked objects:
		On entry : 
		On exit  : 
		Unchanged: 
 Data sizes:     COMRAM   BANK0   BANK1   BANK2   BANK3   BANK4   BANK5   BANK6   BANK7   BANK8   BANK9  BANK10  BANK11  BANK12
      Params:         0       0       0       0       0       0       0       0       0       0       0       0       0       0
      Locals:         0       0       0       0       0       0       0       0       0       0       0       0       0       0
      Temps:          0       0       0       0       0       0       0       0       0       0       0       0       0       0
      Totals:         0       0       0       0       0       0       0       0       0       0       0       0       0       0
Total ram usage:        0 bytes
 Hardware stack levels used:    1
 Hardware stack levels required when called:    8
 This function calls:
		_key_press_release_note_off
		_printThisNumber
		_wait_one_pulse
 This function is called by:
		_digitalInputs
 This function uses a non-reentrant model


 *************** function _wait_one_pulse *****************
 Defined at:
		line 20 in file "arpeggio.c"
 Parameters:    Size  Location     Type
  mode            1    wreg     unsigned char 
 Auto vars:     Size  Location     Type
  mode            1    0[BANK0 ] unsigned char 
 Return value:  Size  Location     Type
                  1    wreg      void 
 Registers used:
		wreg, status,2
 Tracked objects:
		On entry : 
		On exit  : 
		Unchanged: 
 Data sizes:     COMRAM   BANK0   BANK1   BANK2   BANK3   BANK4   BANK5   BANK6   BANK7   BANK8   BANK9  BANK10  BANK11  BANK12
      Params:         0       0       0       0       0       0       0       0       0       0       0       0       0       0
      Locals:         0       1       0       0       0       0       0       0       0       0       0       0       0       0
      Temps:          0       0       0       0       0       0       0       0       0       0       0       0       0       0
      Totals:         0       1       0       0       0       0       0       0       0       0       0       0       0       0
Total ram usage:        1 bytes
 Hardware stack levels used:    1
 Hardware stack levels required when called:    5
 This function calls:
		Nothing
 This function is called by:
		_playThisNotePentatonic
		_playTriad
		_playSeventh
		_playThisNote
		_playThisNote8
		_playDiatonicTriadMajor
		_playDiatonicSeventhMajor
		_playDiatonicTriadMinor
		_playDiatonicSeventhMinor
		_keyboardTranspose
		_processOctave
 This function uses a non-reentrant model


 *************** function _printThisNumber *****************
 Defined at:
		line 21 in file "octave.c"
 Parameters:    Size  Location     Type
  n               2    0[BANK0 ] int 
 Auto vars:     Size  Location     Type
		None
 Return value:  Size  Location     Type
                  1    wreg      void 
 Registers used:
		wreg, status,2
 Tracked objects:
		On entry : 
		On exit  : 
		Unchanged: 
 Data sizes:     COMRAM   BANK0   BANK1   BANK2   BANK3   BANK4   BANK5   BANK6   BANK7   BANK8   BANK9  BANK10  BANK11  BANK12
      Params:         0       2       0       0       0       0       0       0       0       0       0       0       0       0
      Locals:         0       0       0       0       0       0       0       0       0       0       0       0       0       0
      Temps:          0       0       0       0       0       0       0       0       0       0       0       0       0       0
      Totals:         0       2       0       0       0       0       0       0       0       0       0       0       0       0
Total ram usage:        2 bytes
 Hardware stack levels used:    1
 Hardware stack levels required when called:    5
 This function calls:
		Nothing
 This function is called by:
		_keyboardTranspose
		_processOctave
 This function uses a non-reentrant model


 *************** function _key_press_release_note_off *****************
 Defined at:
		line 99 in file "arpeggio.c"
 Parameters:    Size  Location     Type
		None
 Auto vars:     Size  Location     Type
		None
 Return value:  Size  Location     Type
                  1    wreg      void 
 Registers used:
		wreg, fsr2l, fsr2h, status,2, status,0, prodl, prodh, cstack
 Tracked objects:
		On entry : 
		On exit  : 
		Unchanged: 
 Data sizes:     COMRAM   BANK0   BANK1   BANK2   BANK3   BANK4   BANK5   BANK6   BANK7   BANK8   BANK9  BANK10  BANK11  BANK12
      Params:         0       0       0       0       0       0       0       0       0       0       0       0       0       0
      Locals:         0       0       0       0       0       0       0       0       0       0       0       0       0       0
      Temps:          0       0       0       0       0       0       0       0       0       0       0       0       0       0
      Totals:         0       0       0       0       0       0       0       0       0       0       0       0       0       0
Total ram usage:        0 bytes
 Hardware stack levels used:    1
 Hardware stack levels required when called:    7
 This function calls:
		_noteOff
 This function is called by:
		_playThisNotePentatonic
		_playTriad
		_playSeventh
		_playThisNote
		_playThisNote8
		_playDiatonicTriadMajor
		_playDiatonicSeventhMajor
		_playDiatonicTriadMinor
		_playDiatonicSeventhMinor
		_keyboardTranspose
		_processOctave
 This function uses a non-reentrant model


 *************** function _noteOff *****************
 Defined at:
		line 66 in file "midi.c"
 Parameters:    Size  Location     Type
  channel         1    wreg     unsigned char 
  pitch           1   11[BANK0 ] unsigned char 
  velocity        1   12[BANK0 ] unsigned char 
 Auto vars:     Size  Location     Type
  channel         1   13[BANK0 ] unsigned char 
 Return value:  Size  Location     Type
                  1    wreg      void 
 Registers used:
		wreg, fsr2l, fsr2h, status,2, status,0, prodl, prodh, cstack
 Tracked objects:
		On entry : 
		On exit  : 
		Unchanged: 
 Data sizes:     COMRAM   BANK0   BANK1   BANK2   BANK3   BANK4   BANK5   BANK6   BANK7   BANK8   BANK9  BANK10  BANK11  BANK12
      Params:         0       2       0       0       0       0       0       0       0       0       0       0       0       0
      Locals:         0       1       0       0       0       0       0       0       0       0       0       0       0       0
      Temps:          0       0       0       0       0       0       0       0       0       0       0       0       0       0
      Totals:         0       3       0       0       0       0       0       0       0       0       0       0       0       0
Total ram usage:        3 bytes
 Hardware stack levels used:    1
 Hardware stack levels required when called:    6
 This function calls:
		_sendOut
		_sendUSB
 This function is called by:
		_noteOn
		_noteOnDrum
		_playThisNotePentatonic
		_playTriad
		_playSeventh
		_playThisNote
		_playThisNote8
		_playDiatonicTriadMajor
		_playDiatonicSeventhMajor
		_playDiatonicTriadMinor
		_playDiatonicSeventhMinor
		_key_press_release_note_off
		_keyboard_all_note
		_keyboard_eight_note
 This function uses a non-reentrant model


 *************** function _buttonInputsSerial *****************
 Defined at:
		line 264 in file "main.c"
 Parameters:    Size  Location     Type
		None
 Auto vars:     Size  Location     Type
  i               1    5[BANK0 ] unsigned char 
  i               1    4[BANK0 ] unsigned char 
 Return value:  Size  Location     Type
                  1    wreg      void 
 Registers used:
		wreg, status,2, status,0, cstack
 Tracked objects:
		On entry : 
		On exit  : 
		Unchanged: 
 Data sizes:     COMRAM   BANK0   BANK1   BANK2   BANK3   BANK4   BANK5   BANK6   BANK7   BANK8   BANK9  BANK10  BANK11  BANK12
      Params:         0       0       0       0       0       0       0       0       0       0       0       0       0       0
      Locals:         0       2       0       0       0       0       0       0       0       0       0       0       0       0
      Temps:          0       4       0       0       0       0       0       0       0       0       0       0       0       0
      Totals:         0       6       0       0       0       0       0       0       0       0       0       0       0       0
Total ram usage:        6 bytes
 Hardware stack levels used:    1
 Hardware stack levels required when called:    6
 This function calls:
		_clock
		_load
 This function is called by:
		_digitalInputs
 This function uses a non-reentrant model


 *************** function _load *****************
 Defined at:
		line 251 in file "main.c"
 Parameters:    Size  Location     Type
		None
 Auto vars:     Size  Location     Type
		None
 Return value:  Size  Location     Type
                  1    wreg      void 
 Registers used:
		None
 Tracked objects:
		On entry : 
		On exit  : 
		Unchanged: 
 Data sizes:     COMRAM   BANK0   BANK1   BANK2   BANK3   BANK4   BANK5   BANK6   BANK7   BANK8   BANK9  BANK10  BANK11  BANK12
      Params:         0       0       0       0       0       0       0       0       0       0       0       0       0       0
      Locals:         0       0       0       0       0       0       0       0       0       0       0       0       0       0
      Temps:          0       0       0       0       0       0       0       0       0       0       0       0       0       0
      Totals:         0       0       0       0       0       0       0       0       0       0       0       0       0       0
Total ram usage:        0 bytes
 Hardware stack levels used:    1
 Hardware stack levels required when called:    5
 This function calls:
		Nothing
 This function is called by:
		_buttonInputsSerial
 This function uses a non-reentrant model


 *************** function _clock *****************
 Defined at:
		line 258 in file "main.c"
 Parameters:    Size  Location     Type
		None
 Auto vars:     Size  Location     Type
		None
 Return value:  Size  Location     Type
                  1    wreg      void 
 Registers used:
		None
 Tracked objects:
		On entry : 
		On exit  : 
		Unchanged: 
 Data sizes:     COMRAM   BANK0   BANK1   BANK2   BANK3   BANK4   BANK5   BANK6   BANK7   BANK8   BANK9  BANK10  BANK11  BANK12
      Params:         0       0       0       0       0       0       0       0       0       0       0       0       0       0
      Locals:         0       0       0       0       0       0       0       0       0       0       0       0       0       0
      Temps:          0       0       0       0       0       0       0       0       0       0       0       0       0       0
      Totals:         0       0       0       0       0       0       0       0       0       0       0       0       0       0
Total ram usage:        0 bytes
 Hardware stack levels used:    1
 Hardware stack levels required when called:    5
 This function calls:
		Nothing
 This function is called by:
		_buttonInputsSerial
 This function uses a non-reentrant model


 *************** function _analogInputs *****************
 Defined at:
		line 284 in file "main.c"
 Parameters:    Size  Location     Type
		None
 Auto vars:     Size  Location     Type
		None
 Return value:  Size  Location     Type
                  1    wreg      void 
 Registers used:
		wreg, fsr1l, fsr1h, fsr2l, fsr2h, status,2, status,0, prodl, prodh, cstack
 Tracked objects:
		On entry : 
		On exit  : 
		Unchanged: 
 Data sizes:     COMRAM   BANK0   BANK1   BANK2   BANK3   BANK4   BANK5   BANK6   BANK7   BANK8   BANK9  BANK10  BANK11  BANK12
      Params:         0       0       0       0       0       0       0       0       0       0       0       0       0       0
      Locals:         0       0       0       0       0       0       0       0       0       0       0       0       0       0
      Temps:          0       0       0       0       0       0       0       0       0       0       0       0       0       0
      Totals:         0       0       0       0       0       0       0       0       0       0       0       0       0       0
Total ram usage:        0 bytes
 Hardware stack levels used:    1
 Hardware stack levels required when called:    9
 This function calls:
		_readPotentiometers
 This function is called by:
		_main
 This function uses a non-reentrant model


 *************** function _readPotentiometers *****************
 Defined at:
		line 34 in file "potentiometers.c"
 Parameters:    Size  Location     Type
		None
 Auto vars:     Size  Location     Type
  i               1  109[BANK0 ] unsigned char 
  i               1  107[BANK0 ] unsigned char 
  i               1  108[BANK0 ] unsigned char 
 Return value:  Size  Location     Type
                  1    wreg      void 
 Registers used:
		wreg, fsr1l, fsr1h, fsr2l, fsr2h, status,2, status,0, prodl, prodh, cstack
 Tracked objects:
		On entry : 
		On exit  : 
		Unchanged: 
 Data sizes:     COMRAM   BANK0   BANK1   BANK2   BANK3   BANK4   BANK5   BANK6   BANK7   BANK8   BANK9  BANK10  BANK11  BANK12
      Params:         0       0       0       0       0       0       0       0       0       0       0       0       0       0
      Locals:         0       7       0       0       0       0       0       0       0       0       0       0       0       0
      Temps:          0       5       0       0       0       0       0       0       0       0       0       0       0       0
      Totals:         0      12       0       0       0       0       0       0       0       0       0       0       0       0
Total ram usage:       12 bytes
 Hardware stack levels used:    1
 Hardware stack levels required when called:    8
 This function calls:
		_ADC_Read
		___fladd
		___flmul
		___flneg
		___fltol
		___xxtofl
		_map
		_processPotentiometers
 This function is called by:
		_analogInputs
 This function uses a non-reentrant model


 *************** function _processPotentiometers *****************
 Defined at:
		line 140 in file "potentiometers.c"
 Parameters:    Size  Location     Type
  i               1    wreg     unsigned char 
 Auto vars:     Size  Location     Type
  i               1   19[BANK0 ] unsigned char 
  highByte        1   18[BANK0 ] unsigned char 
  lowByte         1   17[BANK0 ] unsigned char 
 Return value:  Size  Location     Type
                  1    wreg      void 
 Registers used:
		wreg, fsr2l, fsr2h, status,2, status,0, prodl, prodh, cstack
 Tracked objects:
		On entry : 
		On exit  : 
		Unchanged: 
 Data sizes:     COMRAM   BANK0   BANK1   BANK2   BANK3   BANK4   BANK5   BANK6   BANK7   BANK8   BANK9  BANK10  BANK11  BANK12
      Params:         0       0       0       0       0       0       0       0       0       0       0       0       0       0
      Locals:         0       3       0       0       0       0       0       0       0       0       0       0       0       0
      Temps:          0       3       0       0       0       0       0       0       0       0       0       0       0       0
      Totals:         0       6       0       0       0       0       0       0       0       0       0       0       0       0
Total ram usage:        6 bytes
 Hardware stack levels used:    1
 Hardware stack levels required when called:    7
 This function calls:
		_controlChange
		_pitchBend
 This function is called by:
		_readPotentiometers
 This function uses a non-reentrant model


 *************** function _pitchBend *****************
 Defined at:
		line 153 in file "midi.c"
 Parameters:    Size  Location     Type
  channel         1    wreg     unsigned char 
  lowByte         1   11[BANK0 ] unsigned char 
  highByte        1   12[BANK0 ] unsigned char 
 Auto vars:     Size  Location     Type
  channel         1   13[BANK0 ] unsigned char 
 Return value:  Size  Location     Type
                  1    wreg      void 
 Registers used:
		wreg, fsr2l, fsr2h, status,2, status,0, prodl, prodh, cstack
 Tracked objects:
		On entry : 
		On exit  : 
		Unchanged: 
 Data sizes:     COMRAM   BANK0   BANK1   BANK2   BANK3   BANK4   BANK5   BANK6   BANK7   BANK8   BANK9  BANK10  BANK11  BANK12
      Params:         0       2       0       0       0       0       0       0       0       0       0       0       0       0
      Locals:         0       1       0       0       0       0       0       0       0       0       0       0       0       0
      Temps:          0       0       0       0       0       0       0       0       0       0       0       0       0       0
      Totals:         0       3       0       0       0       0       0       0       0       0       0       0       0       0
Total ram usage:        3 bytes
 Hardware stack levels used:    1
 Hardware stack levels required when called:    6
 This function calls:
		_sendOut
		_sendUSB
 This function is called by:
		_processPotentiometers
 This function uses a non-reentrant model


 *************** function _controlChange *****************
 Defined at:
		line 139 in file "midi.c"
 Parameters:    Size  Location     Type
  channel         1    wreg     unsigned char 
  controllerNu    1   11[BANK0 ] unsigned char 
  value           1   12[BANK0 ] unsigned char 
 Auto vars:     Size  Location     Type
  channel         1   13[BANK0 ] unsigned char 
 Return value:  Size  Location     Type
                  1    wreg      void 
 Registers used:
		wreg, fsr2l, fsr2h, status,2, status,0, prodl, prodh, cstack
 Tracked objects:
		On entry : 
		On exit  : 
		Unchanged: 
 Data sizes:     COMRAM   BANK0   BANK1   BANK2   BANK3   BANK4   BANK5   BANK6   BANK7   BANK8   BANK9  BANK10  BANK11  BANK12
      Params:         0       2       0       0       0       0       0       0       0       0       0       0       0       0
      Locals:         0       1       0       0       0       0       0       0       0       0       0       0       0       0
      Temps:          0       0       0       0       0       0       0       0       0       0       0       0       0       0
      Totals:         0       3       0       0       0       0       0       0       0       0       0       0       0       0
Total ram usage:        3 bytes
 Hardware stack levels used:    1
 Hardware stack levels required when called:    6
 This function calls:
		_sendOut
		_sendUSB
 This function is called by:
		_processDrumpad
		_processPotentiometers
		_panic_button
 This function uses a non-reentrant model


 *************** function _sendUSB *****************
 Defined at:
		line 32 in file "midi.c"
 Parameters:    Size  Location     Type
  message1        1    wreg     unsigned char 
  message2        1    0[BANK0 ] unsigned char 
  message3        1    1[BANK0 ] unsigned char 
 Auto vars:     Size  Location     Type
  message1        1    5[BANK0 ] unsigned char 
  ii              1   10[BANK0 ] unsigned char 
  i               1    9[BANK0 ] unsigned char 
  midiMessage     3    6[BANK0 ] unsigned char [3]
 Return value:  Size  Location     Type
                  1    wreg      void 
 Registers used:
		wreg, fsr2l, fsr2h, status,2, status,0, prodl, prodh
 Tracked objects:
		On entry : 
		On exit  : 
		Unchanged: 
 Data sizes:     COMRAM   BANK0   BANK1   BANK2   BANK3   BANK4   BANK5   BANK6   BANK7   BANK8   BANK9  BANK10  BANK11  BANK12
      Params:         0       2       0       0       0       0       0       0       0       0       0       0       0       0
      Locals:         0       6       0       0       0       0       0       0       0       0       0       0       0       0
      Temps:          0       3       0       0       0       0       0       0       0       0       0       0       0       0
      Totals:         0      11       0       0       0       0       0       0       0       0       0       0       0       0
Total ram usage:       11 bytes
 Hardware stack levels used:    1
 Hardware stack levels required when called:    5
 This function calls:
		Nothing
 This function is called by:
		_noteOff
		_noteOn
		_noteOffDrum
		_noteOnDrum
		_controlChange
		_pitchBend
		_programChange
 This function uses a non-reentrant model


 *************** function _sendOut *****************
 Defined at:
		line 22 in file "midi.c"
 Parameters:    Size  Location     Type
  a               1    wreg     unsigned char 
 Auto vars:     Size  Location     Type
  a               1    0[BANK0 ] unsigned char 
 Return value:  Size  Location     Type
                  1    wreg      void 
 Registers used:
		wreg, status,2, cstack
 Tracked objects:
		On entry : 
		On exit  : 
		Unchanged: 
 Data sizes:     COMRAM   BANK0   BANK1   BANK2   BANK3   BANK4   BANK5   BANK6   BANK7   BANK8   BANK9  BANK10  BANK11  BANK12
      Params:         0       0       0       0       0       0       0       0       0       0       0       0       0       0
      Locals:         0       1       0       0       0       0       0       0       0       0       0       0       0       0
      Temps:          0       0       0       0       0       0       0       0       0       0       0       0       0       0
      Totals:         0       1       0       0       0       0       0       0       0       0       0       0       0       0
Total ram usage:        1 bytes
 Hardware stack levels used:    1
 Hardware stack levels required when called:    5
 This function calls:
		Nothing
 This function is called by:
		_noteOff
		_noteOn
		_noteOffDrum
		_noteOnDrum
		_controlChange
		_pitchBend
		_programChange
 This function uses a non-reentrant model


 *************** function _map *****************
 Defined at:
		line 29 in file "potentiometers.c"
 Parameters:    Size  Location     Type
  x               4   26[BANK0 ] long 
  in_min          4   30[BANK0 ] long 
  in_max          4   34[BANK0 ] long 
  out_min         4   38[BANK0 ] long 
  out_max         4   42[BANK0 ] long 
 Auto vars:     Size  Location     Type
		None
 Return value:  Size  Location     Type
                  4   26[BANK0 ] long 
 Registers used:
		wreg, status,2, status,0, cstack
 Tracked objects:
		On entry : 
		On exit  : 
		Unchanged: 
 Data sizes:     COMRAM   BANK0   BANK1   BANK2   BANK3   BANK4   BANK5   BANK6   BANK7   BANK8   BANK9  BANK10  BANK11  BANK12
      Params:         0      20       0       0       0       0       0       0       0       0       0       0       0       0
      Locals:         0       0       0       0       0       0       0       0       0       0       0       0       0       0
      Temps:          0      12       0       0       0       0       0       0       0       0       0       0       0       0
      Totals:         0      32       0       0       0       0       0       0       0       0       0       0       0       0
Total ram usage:       32 bytes
 Hardware stack levels used:    1
 Hardware stack levels required when called:    6
 This function calls:
		___aldiv
		___lmul
 This function is called by:
		_readPotentiometers
 This function uses a non-reentrant model


 *************** function ___lmul *****************
 Defined at:
		line 15 in file "C:\Program Files (x86)\Microchip\xc8\v1.45\sources\common\Umul32.c"
 Parameters:    Size  Location     Type
  multiplier      4    0[BANK0 ] unsigned long 
  multiplicand    4    4[BANK0 ] unsigned long 
 Auto vars:     Size  Location     Type
  product         4    8[BANK0 ] unsigned long 
 Return value:  Size  Location     Type
                  4    0[BANK0 ] unsigned long 
 Registers used:
		wreg, status,2, status,0
 Tracked objects:
		On entry : 
		On exit  : 
		Unchanged: 
 Data sizes:     COMRAM   BANK0   BANK1   BANK2   BANK3   BANK4   BANK5   BANK6   BANK7   BANK8   BANK9  BANK10  BANK11  BANK12
      Params:         0       8       0       0       0       0       0       0       0       0       0       0       0       0
      Locals:         0       4       0       0       0       0       0       0       0       0       0       0       0       0
      Temps:          0       0       0       0       0       0       0       0       0       0       0       0       0       0
      Totals:         0      12       0       0       0       0       0       0       0       0       0       0       0       0
Total ram usage:       12 bytes
 Hardware stack levels used:    1
 Hardware stack levels required when called:    5
 This function calls:
		Nothing
 This function is called by:
		_map
		_rand
 This function uses a non-reentrant model


 *************** function ___aldiv *****************
 Defined at:
		line 8 in file "C:\Program Files (x86)\Microchip\xc8\v1.45\sources\common\aldiv.c"
 Parameters:    Size  Location     Type
  dividend        4   12[BANK0 ] long 
  divisor         4   16[BANK0 ] long 
 Auto vars:     Size  Location     Type
  quotient        4   22[BANK0 ] long 
  sign            1   21[BANK0 ] unsigned char 
  counter         1   20[BANK0 ] unsigned char 
 Return value:  Size  Location     Type
                  4   12[BANK0 ] long 
 Registers used:
		wreg, status,2, status,0
 Tracked objects:
		On entry : 
		On exit  : 
		Unchanged: 
 Data sizes:     COMRAM   BANK0   BANK1   BANK2   BANK3   BANK4   BANK5   BANK6   BANK7   BANK8   BANK9  BANK10  BANK11  BANK12
      Params:         0       8       0       0       0       0       0       0       0       0       0       0       0       0
      Locals:         0       6       0       0       0       0       0       0       0       0       0       0       0       0
      Temps:          0       0       0       0       0       0       0       0       0       0       0       0       0       0
      Totals:         0      14       0       0       0       0       0       0       0       0       0       0       0       0
Total ram usage:       14 bytes
 Hardware stack levels used:    1
 Hardware stack levels required when called:    5
 This function calls:
		Nothing
 This function is called by:
		_map
 This function uses a non-reentrant model


 *************** function ___xxtofl *****************
 Defined at:
		line 10 in file "C:\Program Files (x86)\Microchip\xc8\v1.45\sources\common\xxtofl.c"
 Parameters:    Size  Location     Type
  sign            1    wreg     unsigned char 
  val             4    0[BANK0 ] long 
 Auto vars:     Size  Location     Type
  sign            1    8[BANK0 ] unsigned char 
  arg             4   10[BANK0 ] unsigned long 
  exp             1    9[BANK0 ] unsigned char 
 Return value:  Size  Location     Type
                  4    0[BANK0 ] unsigned char 
 Registers used:
		wreg, status,2, status,0
 Tracked objects:
		On entry : 
		On exit  : 
		Unchanged: 
 Data sizes:     COMRAM   BANK0   BANK1   BANK2   BANK3   BANK4   BANK5   BANK6   BANK7   BANK8   BANK9  BANK10  BANK11  BANK12
      Params:         0       4       0       0       0       0       0       0       0       0       0       0       0       0
      Locals:         0       6       0       0       0       0       0       0       0       0       0       0       0       0
      Temps:          0       4       0       0       0       0       0       0       0       0       0       0       0       0
      Totals:         0      14       0       0       0       0       0       0       0       0       0       0       0       0
Total ram usage:       14 bytes
 Hardware stack levels used:    1
 Hardware stack levels required when called:    5
 This function calls:
		Nothing
 This function is called by:
		_calculate_alpha
		_readPotentiometers
		_calculate_pulse_length
 This function uses a non-reentrant model


 *************** function ___fltol *****************
 Defined at:
		line 43 in file "C:\Program Files (x86)\Microchip\xc8\v1.45\sources\common\fltol.c"
 Parameters:    Size  Location     Type
  f1              4   88[BANK0 ] unsigned char 
 Auto vars:     Size  Location     Type
  exp1            1   97[BANK0 ] unsigned char 
  sign1           1   96[BANK0 ] unsigned char 
 Return value:  Size  Location     Type
                  4   88[BANK0 ] long 
 Registers used:
		wreg, status,2, status,0
 Tracked objects:
		On entry : 
		On exit  : 
		Unchanged: 
 Data sizes:     COMRAM   BANK0   BANK1   BANK2   BANK3   BANK4   BANK5   BANK6   BANK7   BANK8   BANK9  BANK10  BANK11  BANK12
      Params:         0       4       0       0       0       0       0       0       0       0       0       0       0       0
      Locals:         0       2       0       0       0       0       0       0       0       0       0       0       0       0
      Temps:          0       4       0       0       0       0       0       0       0       0       0       0       0       0
      Totals:         0      10       0       0       0       0       0       0       0       0       0       0       0       0
Total ram usage:       10 bytes
 Hardware stack levels used:    1
 Hardware stack levels required when called:    5
 This function calls:
		Nothing
 This function is called by:
		_readPotentiometers
		_calculate_pulse_length
 This function uses a non-reentrant model


 *************** function ___flneg *****************
 Defined at:
		line 15 in file "C:\Program Files (x86)\Microchip\xc8\v1.45\sources\common\flneg.c"
 Parameters:    Size  Location     Type
  f1              4   64[BANK0 ] long 
 Auto vars:     Size  Location     Type
		None
 Return value:  Size  Location     Type
                  4   64[BANK0 ] long 
 Registers used:
		wreg, status,2, status,0
 Tracked objects:
		On entry : 
		On exit  : 
		Unchanged: 
 Data sizes:     COMRAM   BANK0   BANK1   BANK2   BANK3   BANK4   BANK5   BANK6   BANK7   BANK8   BANK9  BANK10  BANK11  BANK12
      Params:         0       4       0       0       0       0       0       0       0       0       0       0       0       0
      Locals:         0       0       0       0       0       0       0       0       0       0       0       0       0       0
      Temps:          0       0       0       0       0       0       0       0       0       0       0       0       0       0
      Totals:         0       4       0       0       0       0       0       0       0       0       0       0       0       0
Total ram usage:        4 bytes
 Hardware stack levels used:    1
 Hardware stack levels required when called:    5
 This function calls:
		Nothing
 This function is called by:
		_readPotentiometers
		_calculate_pulse_length
 This function uses a non-reentrant model


 *************** function ___flmul *****************
 Defined at:
		line 8 in file "C:\Program Files (x86)\Microchip\xc8\v1.45\sources\common\sprcmul.c"
 Parameters:    Size  Location     Type
  b               4   14[BANK0 ] long 
  a               4   18[BANK0 ] long 
 Auto vars:     Size  Location     Type
  prod            4   33[BANK0 ] struct .
  grs             4   27[BANK0 ] unsigned long 
  temp            2   37[BANK0 ] struct .
  bexp            1   32[BANK0 ] unsigned char 
  aexp            1   31[BANK0 ] unsigned char 
  sign            1   26[BANK0 ] unsigned char 
 Return value:  Size  Location     Type
                  4   14[BANK0 ] unsigned char 
 Registers used:
		wreg, status,2, status,0, prodl, prodh
 Tracked objects:
		On entry : 
		On exit  : 
		Unchanged: 
 Data sizes:     COMRAM   BANK0   BANK1   BANK2   BANK3   BANK4   BANK5   BANK6   BANK7   BANK8   BANK9  BANK10  BANK11  BANK12
      Params:         0       8       0       0       0       0       0       0       0       0       0       0       0       0
      Locals:         0      13       0       0       0       0       0       0       0       0       0       0       0       0
      Temps:          0       4       0       0       0       0       0       0       0       0       0       0       0       0
      Totals:         0      25       0       0       0       0       0       0       0       0       0       0       0       0
Total ram usage:       25 bytes
 Hardware stack levels used:    1
 Hardware stack levels required when called:    5
 This function calls:
		Nothing
 This function is called by:
		_readPotentiometers
		_calculate_pulse_length
 This function uses a non-reentrant model


 *************** function ___fladd *****************
 Defined at:
		line 10 in file "C:\Program Files (x86)\Microchip\xc8\v1.45\sources\common\sprcadd.c"
 Parameters:    Size  Location     Type
  b               4   68[BANK0 ] unsigned char 
  a               4   72[BANK0 ] unsigned char 
 Auto vars:     Size  Location     Type
  grs             1   87[BANK0 ] unsigned char 
  bexp            1   86[BANK0 ] unsigned char 
  aexp            1   85[BANK0 ] unsigned char 
  signs           1   84[BANK0 ] unsigned char 
 Return value:  Size  Location     Type
                  4   68[BANK0 ] unsigned char 
 Registers used:
		wreg, status,2, status,0
 Tracked objects:
		On entry : 
		On exit  : 
		Unchanged: 
 Data sizes:     COMRAM   BANK0   BANK1   BANK2   BANK3   BANK4   BANK5   BANK6   BANK7   BANK8   BANK9  BANK10  BANK11  BANK12
      Params:         0       8       0       0       0       0       0       0       0       0       0       0       0       0
      Locals:         0       4       0       0       0       0       0       0       0       0       0       0       0       0
      Temps:          0       8       0       0       0       0       0       0       0       0       0       0       0       0
      Totals:         0      20       0       0       0       0       0       0       0       0       0       0       0       0
Total ram usage:       20 bytes
 Hardware stack levels used:    1
 Hardware stack levels required when called:    5
 This function calls:
		Nothing
 This function is called by:
		_readPotentiometers
		_calculate_pulse_length
 This function uses a non-reentrant model


 *************** function _ADC_Read *****************
 Defined at:
		line 35 in file "adc.c"
 Parameters:    Size  Location     Type
  adc_channel     1    wreg     unsigned char 
 Auto vars:     Size  Location     Type
  adc_channel     1    4[BANK0 ] unsigned char 
 Return value:  Size  Location     Type
                  2    0[BANK0 ] unsigned int 
 Registers used:
		wreg, status,2, status,0
 Tracked objects:
		On entry : 
		On exit  : 
		Unchanged: 
 Data sizes:     COMRAM   BANK0   BANK1   BANK2   BANK3   BANK4   BANK5   BANK6   BANK7   BANK8   BANK9  BANK10  BANK11  BANK12
      Params:         0       2       0       0       0       0       0       0       0       0       0       0       0       0
      Locals:         0       1       0       0       0       0       0       0       0       0       0       0       0       0
      Temps:          0       2       0       0       0       0       0       0       0       0       0       0       0       0
      Totals:         0       5       0       0       0       0       0       0       0       0       0       0       0       0
Total ram usage:        5 bytes
 Hardware stack levels used:    1
 Hardware stack levels required when called:    5
 This function calls:
		Nothing
 This function is called by:
		_readPotentiometers
 This function uses a non-reentrant model


 *************** function _Lcd_Start *****************
 Defined at:
		line 80 in file "lcd.c"
 Parameters:    Size  Location     Type
		None
 Auto vars:     Size  Location     Type
  i               2    4[BANK0 ] int 
 Return value:  Size  Location     Type
                  1    wreg      void 
 Registers used:
		wreg, status,2, status,0, cstack
 Tracked objects:
		On entry : 
		On exit  : 
		Unchanged: 
 Data sizes:     COMRAM   BANK0   BANK1   BANK2   BANK3   BANK4   BANK5   BANK6   BANK7   BANK8   BANK9  BANK10  BANK11  BANK12
      Params:         0       0       0       0       0       0       0       0       0       0       0       0       0       0
      Locals:         0       2       0       0       0       0       0       0       0       0       0       0       0       0
      Temps:          0       1       0       0       0       0       0       0       0       0       0       0       0       0
      Totals:         0       3       0       0       0       0       0       0       0       0       0       0       0       0
Total ram usage:        3 bytes
 Hardware stack levels used:    1
 Hardware stack levels required when called:    7
 This function calls:
		_Lcd_Cmd
		_Lcd_SetBit
 This function is called by:
		_main
 This function uses a non-reentrant model


 *************** function _Lcd_Cmd *****************
 Defined at:
		line 44 in file "lcd.c"
 Parameters:    Size  Location     Type
  a               1    wreg     unsigned char 
 Auto vars:     Size  Location     Type
  a               1    2[BANK0 ] unsigned char 
 Return value:  Size  Location     Type
                  1    wreg      void 
 Registers used:
		wreg, status,2, cstack
 Tracked objects:
		On entry : 
		On exit  : 
		Unchanged: 
 Data sizes:     COMRAM   BANK0   BANK1   BANK2   BANK3   BANK4   BANK5   BANK6   BANK7   BANK8   BANK9  BANK10  BANK11  BANK12
      Params:         0       0       0       0       0       0       0       0       0       0       0       0       0       0
      Locals:         0       1       0       0       0       0       0       0       0       0       0       0       0       0
      Temps:          0       1       0       0       0       0       0       0       0       0       0       0       0       0
      Totals:         0       2       0       0       0       0       0       0       0       0       0       0       0       0
Total ram usage:        2 bytes
 Hardware stack levels used:    1
 Hardware stack levels required when called:    6
 This function calls:
		_Lcd_SetBit
 This function is called by:
		_Lcd_Clear
		_Lcd_Set_Cursor
		_Lcd_Start
 This function uses a non-reentrant model


 *************** function _Lcd_SetBit *****************
 Defined at:
		line 21 in file "lcd.c"
 Parameters:    Size  Location     Type
  data_bit        1    wreg     unsigned char 
 Auto vars:     Size  Location     Type
  data_bit        1    0[BANK0 ] unsigned char 
 Return value:  Size  Location     Type
                  1    wreg      void 
 Registers used:
		wreg
 Tracked objects:
		On entry : 
		On exit  : 
		Unchanged: 
 Data sizes:     COMRAM   BANK0   BANK1   BANK2   BANK3   BANK4   BANK5   BANK6   BANK7   BANK8   BANK9  BANK10  BANK11  BANK12
      Params:         0       0       0       0       0       0       0       0       0       0       0       0       0       0
      Locals:         0       1       0       0       0       0       0       0       0       0       0       0       0       0
      Temps:          0       0       0       0       0       0       0       0       0       0       0       0       0       0
      Totals:         0       1       0       0       0       0       0       0       0       0       0       0       0       0
Total ram usage:        1 bytes
 Hardware stack levels used:    1
 Hardware stack levels required when called:    5
 This function calls:
		Nothing
 This function is called by:
		_Lcd_Cmd
		_Lcd_Start
		_Lcd_Print_Char
 This function uses a non-reentrant model


 *************** function _ADC_Initialize *****************
 Defined at:
		line 22 in file "adc.c"
 Parameters:    Size  Location     Type
		None
 Auto vars:     Size  Location     Type
		None
 Return value:  Size  Location     Type
                  1    wreg      void 
 Registers used:
		wreg, status,2
 Tracked objects:
		On entry : 
		On exit  : 
		Unchanged: 
 Data sizes:     COMRAM   BANK0   BANK1   BANK2   BANK3   BANK4   BANK5   BANK6   BANK7   BANK8   BANK9  BANK10  BANK11  BANK12
      Params:         0       0       0       0       0       0       0       0       0       0       0       0       0       0
      Locals:         0       0       0       0       0       0       0       0       0       0       0       0       0       0
      Temps:          0       0       0       0       0       0       0       0       0       0       0       0       0       0
      Totals:         0       0       0       0       0       0       0       0       0       0       0       0       0       0
Total ram usage:        0 bytes
 Hardware stack levels used:    1
 Hardware stack levels required when called:    5
 This function calls:
		Nothing
 This function is called by:
		_main
 This function uses a non-reentrant model


 *************** function _ISR *****************
 Defined at:
		line 310 in file "main.c"
 Parameters:    Size  Location     Type
		None
 Auto vars:     Size  Location     Type
		None
 Return value:  Size  Location     Type
                  1    wreg      void 
 Registers used:
		wreg, fsr1l, fsr1h, fsr2l, fsr2h, status,2, status,0, tblptrl, tblptrh, tblptru, prodl, prodh, cstack
 Tracked objects:
		On entry : 
		On exit  : 
		Unchanged: 
 Data sizes:     COMRAM   BANK0   BANK1   BANK2   BANK3   BANK4   BANK5   BANK6   BANK7   BANK8   BANK9  BANK10  BANK11  BANK12
      Params:         0       0       0       0       0       0       0       0       0       0       0       0       0       0
      Locals:         0       0       0       0       0       0       0       0       0       0       0       0       0       0
      Temps:         20       0       0       0       0       0       0       0       0       0       0       0       0       0
      Totals:        20       0       0       0       0       0       0       0       0       0       0       0       0       0
Total ram usage:       20 bytes
 Hardware stack levels used:    1
 Hardware stack levels required when called:    4
 This function calls:
		_display
		_encoderInputsBuxton
		_playArpeggio
		i2___lbmod
		i2_printThisNumber
 This function is called by:
		Interrupt level 2
 This function uses a non-reentrant model


 *************** function i2_printThisNumber *****************
 Defined at:
		line 21 in file "octave.c"
 Parameters:    Size  Location     Type
  n               2    0[COMRAM] int 
 Auto vars:     Size  Location     Type
		None
 Return value:  Size  Location     Type
                  1    wreg      void 
 Registers used:
		wreg, status,2
 Tracked objects:
		On entry : 
		On exit  : 
		Unchanged: 
 Data sizes:     COMRAM   BANK0   BANK1   BANK2   BANK3   BANK4   BANK5   BANK6   BANK7   BANK8   BANK9  BANK10  BANK11  BANK12
      Params:         2       0       0       0       0       0       0       0       0       0       0       0       0       0
      Locals:         0       0       0       0       0       0       0       0       0       0       0       0       0       0
      Temps:          0       0       0       0       0       0       0       0       0       0       0       0       0       0
      Totals:         2       0       0       0       0       0       0       0       0       0       0       0       0       0
Total ram usage:        2 bytes
 Hardware stack levels used:    1
 This function calls:
		Nothing
 This function is called by:
		_ISR
 This function uses a non-reentrant model


 *************** function i2___lbmod *****************
 Defined at:
		line 4 in file "C:\Program Files (x86)\Microchip\xc8\v1.45\sources\common\lbmod.c"
 Parameters:    Size  Location     Type
  dividend        1    wreg     unsigned char 
  divisor         1    0[COMRAM] unsigned char 
 Auto vars:     Size  Location     Type
  dividend        1    1[COMRAM] unsigned char 
  __lbmod         1    3[COMRAM] unsigned char 
  __lbmod         1    2[COMRAM] unsigned char 
 Return value:  Size  Location     Type
                  1    wreg      unsigned char 
 Registers used:
		wreg, status,2, status,0
 Tracked objects:
		On entry : 
		On exit  : 
		Unchanged: 
 Data sizes:     COMRAM   BANK0   BANK1   BANK2   BANK3   BANK4   BANK5   BANK6   BANK7   BANK8   BANK9  BANK10  BANK11  BANK12
      Params:         1       0       0       0       0       0       0       0       0       0       0       0       0       0
      Locals:         3       0       0       0       0       0       0       0       0       0       0       0       0       0
      Temps:          0       0       0       0       0       0       0       0       0       0       0       0       0       0
      Totals:         4       0       0       0       0       0       0       0       0       0       0       0       0       0
Total ram usage:        4 bytes
 Hardware stack levels used:    1
 This function calls:
		Nothing
 This function is called by:
		_ISR
 This function uses a non-reentrant model


 *************** function _playArpeggio *****************
 Defined at:
		line 264 in file "arpeggio.c"
 Parameters:    Size  Location     Type
		None
 Auto vars:     Size  Location     Type
		None
 Return value:  Size  Location     Type
                  1    wreg      void 
 Registers used:
		wreg, fsr1l, fsr1h, fsr2l, fsr2h, status,2, status,0, prodl, prodh, cstack
 Tracked objects:
		On entry : 
		On exit  : 
		Unchanged: 
 Data sizes:     COMRAM   BANK0   BANK1   BANK2   BANK3   BANK4   BANK5   BANK6   BANK7   BANK8   BANK9  BANK10  BANK11  BANK12
      Params:         0       0       0       0       0       0       0       0       0       0       0       0       0       0
      Locals:         0       0       0       0       0       0       0       0       0       0       0       0       0       0
      Temps:          6       0       0       0       0       0       0       0       0       0       0       0       0       0
      Totals:         6       0       0       0       0       0       0       0       0       0       0       0       0       0
Total ram usage:        6 bytes
 Hardware stack levels used:    1
 Hardware stack levels required when called:    3
 This function calls:
		_sort_pitches
		i2___awmod
		i2_noteOff
		i2_noteOn
		i2_rand
		i2_random_pitches
		i2_random_pitches_non_repeating
 This function is called by:
		_ISR
 This function uses a non-reentrant model


 *************** function i2_random_pitches_non_repeating *****************
 Defined at:
		line 252 in file "arpeggio.c"
 Parameters:    Size  Location     Type
		None
 Auto vars:     Size  Location     Type
  random_pitch    1   22[COMRAM] unsigned char 
  random_pitch    1   21[COMRAM] unsigned char 
  random_pitch    1   20[COMRAM] unsigned char 
 Return value:  Size  Location     Type
                  1    wreg      void 
 Registers used:
		wreg, fsr1l, fsr1h, fsr2l, fsr2h, status,2, status,0, prodl, prodh, cstack
 Tracked objects:
		On entry : 
		On exit  : 
		Unchanged: 
 Data sizes:     COMRAM   BANK0   BANK1   BANK2   BANK3   BANK4   BANK5   BANK6   BANK7   BANK8   BANK9  BANK10  BANK11  BANK12
      Params:         0       0       0       0       0       0       0       0       0       0       0       0       0       0
      Locals:         3       0       0       0       0       0       0       0       0       0       0       0       0       0
      Temps:          0       0       0       0       0       0       0       0       0       0       0       0       0       0
      Totals:         3       0       0       0       0       0       0       0       0       0       0       0       0       0
Total ram usage:        3 bytes
 Hardware stack levels used:    1
 Hardware stack levels required when called:    2
 This function calls:
		i2___awmod
		i2_rand
 This function is called by:
		_playArpeggio
 This function uses a non-reentrant model


 *************** function i2_random_pitches *****************
 Defined at:
		line 241 in file "arpeggio.c"
 Parameters:    Size  Location     Type
		None
 Auto vars:     Size  Location     Type
  random_pitch    1   21[COMRAM] unsigned char 
  random_pitch    1   20[COMRAM] unsigned char 
 Return value:  Size  Location     Type
                  1    wreg      void 
 Registers used:
		wreg, fsr1l, fsr1h, fsr2l, fsr2h, status,2, status,0, prodl, prodh, cstack
 Tracked objects:
		On entry : 
		On exit  : 
		Unchanged: 
 Data sizes:     COMRAM   BANK0   BANK1   BANK2   BANK3   BANK4   BANK5   BANK6   BANK7   BANK8   BANK9  BANK10  BANK11  BANK12
      Params:         0       0       0       0       0       0       0       0       0       0       0       0       0       0
      Locals:         2       0       0       0       0       0       0       0       0       0       0       0       0       0
      Temps:          0       0       0       0       0       0       0       0       0       0       0       0       0       0
      Totals:         2       0       0       0       0       0       0       0       0       0       0       0       0       0
Total ram usage:        2 bytes
 Hardware stack levels used:    1
 Hardware stack levels required when called:    2
 This function calls:
		i2___awmod
		i2_rand
 This function is called by:
		_playArpeggio
 This function uses a non-reentrant model


 *************** function i2_rand *****************
 Defined at:
		line 12 in file "C:\Program Files (x86)\Microchip\xc8\v1.45\sources\common\rand.c"
 Parameters:    Size  Location     Type
		None
 Auto vars:     Size  Location     Type
		None
 Return value:  Size  Location     Type
                  2   12[COMRAM] int 
 Registers used:
		wreg, status,2, status,0, cstack
 Tracked objects:
		On entry : 
		On exit  : 
		Unchanged: 
 Data sizes:     COMRAM   BANK0   BANK1   BANK2   BANK3   BANK4   BANK5   BANK6   BANK7   BANK8   BANK9  BANK10  BANK11  BANK12
      Params:         2       0       0       0       0       0       0       0       0       0       0       0       0       0
      Locals:         0       0       0       0       0       0       0       0       0       0       0       0       0       0
      Temps:          0       0       0       0       0       0       0       0       0       0       0       0       0       0
      Totals:         2       0       0       0       0       0       0       0       0       0       0       0       0       0
Total ram usage:        2 bytes
 Hardware stack levels used:    1
 Hardware stack levels required when called:    1
 This function calls:
		i2___lmul
 This function is called by:
		_playArpeggio
		i2_random_pitches
		i2_random_pitches_non_repeating
 This function uses a non-reentrant model


 *************** function i2___lmul *****************
 Defined at:
		line 15 in file "C:\Program Files (x86)\Microchip\xc8\v1.45\sources\common\Umul32.c"
 Parameters:    Size  Location     Type
  multiplier      4    0[COMRAM] unsigned long 
  multiplicand    4    4[COMRAM] unsigned long 
 Auto vars:     Size  Location     Type
  __lmul          4    8[COMRAM] unsigned long 
 Return value:  Size  Location     Type
                  4    0[COMRAM] unsigned long 
 Registers used:
		wreg, status,2, status,0
 Tracked objects:
		On entry : 
		On exit  : 
		Unchanged: 
 Data sizes:     COMRAM   BANK0   BANK1   BANK2   BANK3   BANK4   BANK5   BANK6   BANK7   BANK8   BANK9  BANK10  BANK11  BANK12
      Params:         8       0       0       0       0       0       0       0       0       0       0       0       0       0
      Locals:         4       0       0       0       0       0       0       0       0       0       0       0       0       0
      Temps:          0       0       0       0       0       0       0       0       0       0       0       0       0       0
      Totals:        12       0       0       0       0       0       0       0       0       0       0       0       0       0
Total ram usage:       12 bytes
 Hardware stack levels used:    1
 This function calls:
		Nothing
 This function is called by:
		i2_rand
 This function uses a non-reentrant model


 *************** function i2_noteOn *****************
 Defined at:
		line 83 in file "midi.c"
 Parameters:    Size  Location     Type
  channel         1    wreg     unsigned char 
  pitch           1   14[COMRAM] unsigned char 
  velocity        1   15[COMRAM] unsigned char 
 Auto vars:     Size  Location     Type
  channel         1   16[COMRAM] unsigned char 
 Return value:  Size  Location     Type
                  1    wreg      void 
 Registers used:
		wreg, fsr2l, fsr2h, status,2, status,0, prodl, prodh, cstack
 Tracked objects:
		On entry : 
		On exit  : 
		Unchanged: 
 Data sizes:     COMRAM   BANK0   BANK1   BANK2   BANK3   BANK4   BANK5   BANK6   BANK7   BANK8   BANK9  BANK10  BANK11  BANK12
      Params:         2       0       0       0       0       0       0       0       0       0       0       0       0       0
      Locals:         1       0       0       0       0       0       0       0       0       0       0       0       0       0
      Temps:          0       0       0       0       0       0       0       0       0       0       0       0       0       0
      Totals:         3       0       0       0       0       0       0       0       0       0       0       0       0       0
Total ram usage:        3 bytes
 Hardware stack levels used:    1
 Hardware stack levels required when called:    2
 This function calls:
		i2_noteOff
		i2_sendOut
		i2_sendUSB
 This function is called by:
		_playArpeggio
 This function uses a non-reentrant model


 *************** function i2_noteOff *****************
 Defined at:
		line 66 in file "midi.c"
 Parameters:    Size  Location     Type
  channel         1    wreg     unsigned char 
  pitch           1   11[COMRAM] unsigned char 
  velocity        1   12[COMRAM] unsigned char 
 Auto vars:     Size  Location     Type
  channel         1   13[COMRAM] unsigned char 
 Return value:  Size  Location     Type
                  1    wreg      void 
 Registers used:
		wreg, fsr2l, fsr2h, status,2, status,0, prodl, prodh, cstack
 Tracked objects:
		On entry : 
		On exit  : 
		Unchanged: 
 Data sizes:     COMRAM   BANK0   BANK1   BANK2   BANK3   BANK4   BANK5   BANK6   BANK7   BANK8   BANK9  BANK10  BANK11  BANK12
      Params:         2       0       0       0       0       0       0       0       0       0       0       0       0       0
      Locals:         1       0       0       0       0       0       0       0       0       0       0       0       0       0
      Temps:          0       0       0       0       0       0       0       0       0       0       0       0       0       0
      Totals:         3       0       0       0       0       0       0       0       0       0       0       0       0       0
Total ram usage:        3 bytes
 Hardware stack levels used:    1
 Hardware stack levels required when called:    1
 This function calls:
		i2_sendOut
		i2_sendUSB
 This function is called by:
		_playArpeggio
		i2_noteOn
 This function uses a non-reentrant model


 *************** function i2_sendUSB *****************
 Defined at:
		line 32 in file "midi.c"
 Parameters:    Size  Location     Type
  message1        1    wreg     unsigned char 
  message2        1    0[COMRAM] unsigned char 
  message3        1    1[COMRAM] unsigned char 
 Auto vars:     Size  Location     Type
  message1        1    8[COMRAM] unsigned char 
  sendUSB         3    5[COMRAM] unsigned char [3]
  sendUSB         1   10[COMRAM] unsigned char 
  sendUSB         1    9[COMRAM] unsigned char 
 Return value:  Size  Location     Type
                  1    wreg      void 
 Registers used:
		wreg, fsr2l, fsr2h, status,2, status,0, prodl, prodh
 Tracked objects:
		On entry : 
		On exit  : 
		Unchanged: 
 Data sizes:     COMRAM   BANK0   BANK1   BANK2   BANK3   BANK4   BANK5   BANK6   BANK7   BANK8   BANK9  BANK10  BANK11  BANK12
      Params:         2       0       0       0       0       0       0       0       0       0       0       0       0       0
      Locals:         6       0       0       0       0       0       0       0       0       0       0       0       0       0
      Temps:          3       0       0       0       0       0       0       0       0       0       0       0       0       0
      Totals:        11       0       0       0       0       0       0       0       0       0       0       0       0       0
Total ram usage:       11 bytes
 Hardware stack levels used:    1
 This function calls:
		Nothing
 This function is called by:
		i2_noteOff
		i2_noteOn
 This function uses a non-reentrant model


 *************** function i2_sendOut *****************
 Defined at:
		line 22 in file "midi.c"
 Parameters:    Size  Location     Type
  a               1    wreg     unsigned char 
 Auto vars:     Size  Location     Type
  a               1    0[COMRAM] unsigned char 
 Return value:  Size  Location     Type
                  1    wreg      void 
 Registers used:
		wreg, status,2, cstack
 Tracked objects:
		On entry : 
		On exit  : 
		Unchanged: 
 Data sizes:     COMRAM   BANK0   BANK1   BANK2   BANK3   BANK4   BANK5   BANK6   BANK7   BANK8   BANK9  BANK10  BANK11  BANK12
      Params:         0       0       0       0       0       0       0       0       0       0       0       0       0       0
      Locals:         1       0       0       0       0       0       0       0       0       0       0       0       0       0
      Temps:          0       0       0       0       0       0       0       0       0       0       0       0       0       0
      Totals:         1       0       0       0       0       0       0       0       0       0       0       0       0       0
Total ram usage:        1 bytes
 Hardware stack levels used:    1
 This function calls:
		Nothing
 This function is called by:
		i2_noteOff
		i2_noteOn
 This function uses a non-reentrant model


 *************** function _sort_pitches *****************
 Defined at:
		line 209 in file "arpeggio.c"
 Parameters:    Size  Location     Type
		None
 Auto vars:     Size  Location     Type
  j               1    3[COMRAM] unsigned char 
  i               1    4[COMRAM] unsigned char 
  a               1    2[COMRAM] unsigned char 
 Return value:  Size  Location     Type
                  1    wreg      void 
 Registers used:
		wreg, fsr1l, fsr1h, fsr2l, fsr2h, status,2, status,0, prodl, prodh
 Tracked objects:
		On entry : 
		On exit  : 
		Unchanged: 
 Data sizes:     COMRAM   BANK0   BANK1   BANK2   BANK3   BANK4   BANK5   BANK6   BANK7   BANK8   BANK9  BANK10  BANK11  BANK12
      Params:         0       0       0       0       0       0       0       0       0       0       0       0       0       0
      Locals:         3       0       0       0       0       0       0       0       0       0       0       0       0       0
      Temps:          2       0       0       0       0       0       0       0       0       0       0       0       0       0
      Totals:         5       0       0       0       0       0       0       0       0       0       0       0       0       0
Total ram usage:        5 bytes
 Hardware stack levels used:    1
 This function calls:
		Nothing
 This function is called by:
		_playArpeggio
 This function uses a non-reentrant model


 *************** function _encoderInputsBuxton *****************
 Defined at:
		line 27 in file "encoder.c"
 Parameters:    Size  Location     Type
		None
 Auto vars:     Size  Location     Type
  pinstate        1    5[COMRAM] unsigned char 
  tempB           1    4[COMRAM] unsigned char 
  tempA           1    3[COMRAM] unsigned char 
 Return value:  Size  Location     Type
                  1    wreg      void 
 Registers used:
		wreg, status,2, status,0, tblptrl, tblptrh, tblptru, prodl, prodh
 Tracked objects:
		On entry : 
		On exit  : 
		Unchanged: 
 Data sizes:     COMRAM   BANK0   BANK1   BANK2   BANK3   BANK4   BANK5   BANK6   BANK7   BANK8   BANK9  BANK10  BANK11  BANK12
      Params:         0       0       0       0       0       0       0       0       0       0       0       0       0       0
      Locals:         3       0       0       0       0       0       0       0       0       0       0       0       0       0
      Temps:          3       0       0       0       0       0       0       0       0       0       0       0       0       0
      Totals:         6       0       0       0       0       0       0       0       0       0       0       0       0       0
Total ram usage:        6 bytes
 Hardware stack levels used:    1
 This function calls:
		Nothing
 This function is called by:
		_ISR
 This function uses a non-reentrant model


 *************** function _display *****************
 Defined at:
		line 21 in file "segment.c"
 Parameters:    Size  Location     Type
		None
 Auto vars:     Size  Location     Type
		None
 Return value:  Size  Location     Type
                  1    wreg      void 
 Registers used:
		wreg, fsr1l, fsr1h, fsr2l, fsr2h, status,2, status,0, tblptrl, tblptrh, tblptru, prodl, prodh, cstack
 Tracked objects:
		On entry : 
		On exit  : 
		Unchanged: 
 Data sizes:     COMRAM   BANK0   BANK1   BANK2   BANK3   BANK4   BANK5   BANK6   BANK7   BANK8   BANK9  BANK10  BANK11  BANK12
      Params:         0       0       0       0       0       0       0       0       0       0       0       0       0       0
      Locals:         0       0       0       0       0       0       0       0       0       0       0       0       0       0
      Temps:          0       0       0       0       0       0       0       0       0       0       0       0       0       0
      Totals:         0       0       0       0       0       0       0       0       0       0       0       0       0       0
Total ram usage:        0 bytes
 Hardware stack levels used:    1
 Hardware stack levels required when called:    2
 This function calls:
		_displayDigits
		_displayString
 This function is called by:
		_ISR
 This function uses a non-reentrant model


 *************** function _displayString *****************
 Defined at:
		line 164 in file "segment.c"
 Parameters:    Size  Location     Type
		None
 Auto vars:     Size  Location     Type
  i               1    1[COMRAM] unsigned char 
 Return value:  Size  Location     Type
                  1    wreg      void 
 Registers used:
		wreg, fsr1l, fsr1h, fsr2l, fsr2h, status,2, status,0, tblptrl, tblptrh, tblptru, prodl, prodh
 Tracked objects:
		On entry : 
		On exit  : 
		Unchanged: 
 Data sizes:     COMRAM   BANK0   BANK1   BANK2   BANK3   BANK4   BANK5   BANK6   BANK7   BANK8   BANK9  BANK10  BANK11  BANK12
      Params:         0       0       0       0       0       0       0       0       0       0       0       0       0       0
      Locals:         1       0       0       0       0       0       0       0       0       0       0       0       0       0
      Temps:          1       0       0       0       0       0       0       0       0       0       0       0       0       0
      Totals:         2       0       0       0       0       0       0       0       0       0       0       0       0       0
Total ram usage:        2 bytes
 Hardware stack levels used:    1
 This function calls:
		Nothing
 This function is called by:
		_display
 This function uses a non-reentrant model


 *************** function _displayDigits *****************
 Defined at:
		line 54 in file "segment.c"
 Parameters:    Size  Location     Type
		None
 Auto vars:     Size  Location     Type
  highByte        1   24[COMRAM] unsigned char 
  lowByte         1   23[COMRAM] unsigned char 
 Return value:  Size  Location     Type
                  1    wreg      void 
 Registers used:
		wreg, status,2, status,0, tblptrl, tblptrh, tblptru, prodl, prodh, cstack
 Tracked objects:
		On entry : 
		On exit  : 
		Unchanged: 
 Data sizes:     COMRAM   BANK0   BANK1   BANK2   BANK3   BANK4   BANK5   BANK6   BANK7   BANK8   BANK9  BANK10  BANK11  BANK12
      Params:         0       0       0       0       0       0       0       0       0       0       0       0       0       0
      Locals:         2       0       0       0       0       0       0       0       0       0       0       0       0       0
      Temps:          3       0       0       0       0       0       0       0       0       0       0       0       0       0
      Totals:         5       0       0       0       0       0       0       0       0       0       0       0       0       0
Total ram usage:        5 bytes
 Hardware stack levels used:    1
 Hardware stack levels required when called:    1
 This function calls:
		i2___awdiv
		i2___awmod
 This function is called by:
		_display
 This function uses a non-reentrant model


 *************** function i2___awmod *****************
 Defined at:
		line 8 in file "C:\Program Files (x86)\Microchip\xc8\v1.45\sources\common\awmod.c"
 Parameters:    Size  Location     Type
  dividend        2   14[COMRAM] int 
  divisor         2   16[COMRAM] int 
 Auto vars:     Size  Location     Type
  __awmod         1   19[COMRAM] unsigned char 
  __awmod         1   18[COMRAM] unsigned char 
 Return value:  Size  Location     Type
                  2   14[COMRAM] int 
 Registers used:
		wreg, status,2, status,0
 Tracked objects:
		On entry : 
		On exit  : 
		Unchanged: 
 Data sizes:     COMRAM   BANK0   BANK1   BANK2   BANK3   BANK4   BANK5   BANK6   BANK7   BANK8   BANK9  BANK10  BANK11  BANK12
      Params:         4       0       0       0       0       0       0       0       0       0       0       0       0       0
      Locals:         2       0       0       0       0       0       0       0       0       0       0       0       0       0
      Temps:          0       0       0       0       0       0       0       0       0       0       0       0       0       0
      Totals:         6       0       0       0       0       0       0       0       0       0       0       0       0       0
Total ram usage:        6 bytes
 Hardware stack levels used:    1
 This function calls:
		Nothing
 This function is called by:
		_displayDigits
		_playArpeggio
		i2_random_pitches
		i2_random_pitches_non_repeating
 This function uses a non-reentrant model


 *************** function i2___awdiv *****************
 Defined at:
		line 8 in file "C:\Program Files (x86)\Microchip\xc8\v1.45\sources\common\awdiv.c"
 Parameters:    Size  Location     Type
  dividend        2    0[COMRAM] int 
  divisor         2    2[COMRAM] int 
 Auto vars:     Size  Location     Type
  __awdiv         2    6[COMRAM] int 
  __awdiv         1    5[COMRAM] unsigned char 
  __awdiv         1    4[COMRAM] unsigned char 
 Return value:  Size  Location     Type
                  2    0[COMRAM] int 
 Registers used:
		wreg, status,2, status,0
 Tracked objects:
		On entry : 
		On exit  : 
		Unchanged: 
 Data sizes:     COMRAM   BANK0   BANK1   BANK2   BANK3   BANK4   BANK5   BANK6   BANK7   BANK8   BANK9  BANK10  BANK11  BANK12
      Params:         4       0       0       0       0       0       0       0       0       0       0       0       0       0
      Locals:         4       0       0       0       0       0       0       0       0       0       0       0       0       0
      Temps:          0       0       0       0       0       0       0       0       0       0       0       0       0       0
      Totals:         8       0       0       0       0       0       0       0       0       0       0       0       0       0
Total ram usage:        8 bytes
 Hardware stack levels used:    1
 This function calls:
		Nothing
 This function is called by:
		_displayDigits
 This function uses a non-reentrant model



MODULE INFORMATION

Module		Function		Class		Link	Load	Size
C:\Program Files (x86)\Microchip\xc8\v1.45\sources\common\sprcdiv.c
		___fldiv       		CODE           	398C	0000	695

C:\Program Files (x86)\Microchip\xc8\v1.45\sources\common\sprcdiv.c estimated size: 695

octave.c
		_processOctave 		CODE           	2674	0000	1121
		_keyboardTranspose		CODE           	4440	0000	679
		_printThisNumber		CODE           	958E	0000	19

octave.c estimated size: 1819

drum.c
		_processDrumpad		CODE           	1C66	0000	1303

drum.c estimated size: 1303

C:\Program Files (x86)\Microchip\xc8\v1.45\sources\common\Umul16.c
		___wmul        		CODE           	9464	0000	41

C:\Program Files (x86)\Microchip\xc8\v1.45\sources\common\Umul16.c estimated size: 41

C:\Program Files (x86)\Microchip\xc8\v1.45\sources\pic18\plib\EEP\busy_eep.c
		_Busy_eep      		CODE           	95DA	0000	7

C:\Program Files (x86)\Microchip\xc8\v1.45\sources\pic18\plib\EEP\busy_eep.c estimated size: 7

potentiometers.c
		_map           		CODE           	66D4	0000	231
		_processPotentiometers		CODE           	3EF0	0000	681
		_readPotentiometers		CODE           	114C	0000	1537
		_calculate_alpha		CODE           	8EBC	0000	75

potentiometers.c estimated size: 2524

C:\Program Files (x86)\Microchip\xc8\v1.45\sources\common\sprcadd.c
		___fladd       		CODE           	364E	0000	831

C:\Program Files (x86)\Microchip\xc8\v1.45\sources\common\sprcadd.c estimated size: 831

C:\Program Files (x86)\Microchip\xc8\v1.45\sources\common\awmod.c
		___awmod       		CODE           	84BE	0000	115

C:\Program Files (x86)\Microchip\xc8\v1.45\sources\common\awmod.c estimated size: 115

eeprom.c
		_selectSlotOnBoot		CODE           	94D4	0000	33
		_loadFromEEPROM		CODE           	4BA0	0000	569
		_saveToEEPROM  		CODE           	4FDA	0000	501
		_initializeSaveSlotsOnce		CODE           	8F06	0000	75

eeprom.c estimated size: 1178

adc.c
		_ADC_Initialize		CODE           	9566	0000	21
		_ADC_Read      		CODE           	91AE	0000	57

adc.c estimated size: 78

arpeggio.c
		_calculate_pulse_length		CODE           	5C8C	0000	351
		_key_press_release_note_off		CODE           	5B2A	0000	355
		_wait_one_pulse		CODE           	9398	0000	43
		_add_notes_to_arpeggio		CODE           	7F86	0000	127
		_playArpeggio  		CODE           	0A42	0000	1803
		_random_pitches_non_repeating		CODE           	7B04	0000	133
		_setupArpeggio 		CODE           	8178	0000	125
		_sort_pitches  		CODE           	62D4	0000	283
		_findArrayIndex		CODE           	90FE	0000	61
		_copy_array    		CODE           	8882	0000	99
		_finish_arpeggio_setup		CODE           	94F4	0000	31
		_random_pitches		CODE           	8A5C	0000	93
		_delete_notes_from_arpeggio		CODE           	9280	0000	51
		_resetArpeggio 		CODE           	90C2	0000	61
		_rotateArrayLeft		CODE           	8362	0000	121

arpeggio.c estimated size: 3737

C:\Program Files (x86)\Microchip\xc8\v1.45\sources\common\Umul32.c
		___lmul        		CODE           	8C24	0000	89

C:\Program Files (x86)\Microchip\xc8\v1.45\sources\common\Umul32.c estimated size: 89

C:\Program Files (x86)\Microchip\xc8\v1.45\sources\common\rand.c
		_srand         		CODE           	95B2	0000	17
		_rand          		CODE           	8AB8	0000	93

C:\Program Files (x86)\Microchip\xc8\v1.45\sources\common\rand.c estimated size: 110

C:\Program Files (x86)\Microchip\xc8\v1.45\sources\common\fltol.c
		___fltol       		CODE           	689C	0000	223

C:\Program Files (x86)\Microchip\xc8\v1.45\sources\common\fltol.c estimated size: 223

shared
		i2_sendOut     		CODE           	9530	0000	29
		_diatonic_major		MEDIUMCONST    	F310	0000	46
		_diatonic_minor		MEDIUMCONST    	F2E3	0000	46
		i2_noteOn      		CODE           	8B14	0000	93
		i2_noteOff     		CODE           	913A	0000	61
		_LCD_STRINGS   		MEDIUMCONST    	F39E	0000	2398
		_lydian_key    		MEDIUMCONST    	FD28	0000	16
		ascii@LCD_STRINGS		MEDIUMCONST    	0000	0000	0
		i2_sendUSB     		CODE           	74FC	0000	155
		i2___lbmod     		CODE           	93C2	0000	43
		_ionian_key    		MEDIUMCONST    	FD55	0000	16
		i2_rand        		CODE           	8D7C	0000	85
		_major_key     		MEDIUMCONST    	F378	0000	16
		i2_printThisNumber		CODE           	95A0	0000	19
		_pentatonic_major_key		MEDIUMCONST    	F392	0000	12
		_dorian_key    		MEDIUMCONST    	FD46	0000	16
		_pentatonic_minor_key		MEDIUMCONST    	F387	0000	12
		i2___awdiv     		CODE           	7B88	0000	133
		_seg_ascii     		MEDIUMCONST    	F220	0000	76
		_phrygian_key  		MEDIUMCONST    	FD37	0000	16
		_aeolian_key   		MEDIUMCONST    	FD0A	0000	16
		_mixolydian_key		MEDIUMCONST    	FD19	0000	16
		__initialization		CODE           	65EC	0000	219
		_diatonic_seventh_minor		MEDIUMCONST    	F26B	0000	61
		i2___lmul      		CODE           	8CD2	0000	87
		i2___awmod     		CODE           	85A0	0000	113
		_minor_key     		MEDIUMCONST    	F369	0000	16
		_ttable        		MEDIUMCONST    	F33D	0000	29
		i2_random_pitches_non_repeating		CODE           	7C0C	0000	131
		i2_random_pitches		CODE           	8BCA	0000	91
		_locrian_key   		MEDIUMCONST    	FCFB	0000	16
		_seg_bcd_hex   		MEDIUMCONST    	F359	0000	17
		_diatonic_seventh_major		MEDIUMCONST    	F2A7	0000	61
		_MAX_NUM_NOTES 		MEDIUMCONST    	F39D	0000	2

shared estimated size: 4163

segment.c
		_display       		CODE           	957A	0000	21
		_displayTest   		CODE           	7F08	0000	127
		_displayString 		CODE           	64F2	0000	251
		_displayDigits 		CODE           	4198	0000	681

segment.c estimated size: 1080

C:\Program Files (x86)\Microchip\xc8\v1.45\sources\pic18\plib\EEP\read_B.c
		_Read_b_eep    		CODE           	954C	0000	27

C:\Program Files (x86)\Microchip\xc8\v1.45\sources\pic18\plib\EEP\read_B.c estimated size: 27

menu.c
		_eepromExit    		CODE           	9086	0000	61
		_Function_A    		CODE           	7E8A	0000	127
		_Function_B    		CODE           	7C8E	0000	129
		_Function_C    		CODE           	786A	0000	137
		_Function_D    		CODE           	7978	0000	133
		_Function_E    		CODE           	8530	0000	113
		_Function_F    		CODE           	867C	0000	107
		_Function_G    		CODE           	762E	0000	149
		_Function_H    		CODE           	6DFE	0000	173
		_exitSave      		CODE           	904A	0000	61
		_Function_A_1  		CODE           	8080	0000	125
		_Function_C_1  		CODE           	76C2	0000	149
		_Function_D_1  		CODE           	77E2	0000	137
		_Function_A_2  		CODE           	8004	0000	125
		_Function_E_1  		CODE           	8E6E	0000	79
		_Function_C_2  		CODE           	61AC	0000	297
		_Function_G_1  		CODE           	7280	0000	163
		_Function_D_2  		CODE           	88E4	0000	97
		_Function_H_1  		CODE           	7462	0000	155
		_Function_A_3  		CODE           	79FC	0000	133
		_Function_E_2  		CODE           	8E20	0000	79
		_Function_C_3  		CODE           	6084	0000	297
		_Function_G_2  		CODE           	71DE	0000	163
		_Function_D_3  		CODE           	8270	0000	123
		_Function_H_2  		CODE           	8750	0000	105
		_Function_G_3  		CODE           	8A00	0000	93
		_Function_D_4  		CODE           	7E0C	0000	127
		_Function_H_3  		CODE           	89A4	0000	93
		_Function_G_4  		CODE           	73C4	0000	159
		_Function_D_5  		CODE           	7D8E	0000	127
		_Function_H_4  		CODE           	6BE8	0000	185
		_Function_H_5  		CODE           	6D50	0000	175
		_Function_H_6  		CODE           	844C	0000	115
		_Function_H_7  		CODE           	6CA0	0000	177
		_Function_H_8  		CODE           	83DA	0000	115
		_Function_H_9  		CODE           	7596	0000	153
		_setControllerNumbers		CODE           	217C	0000	1273
		_Function_H_6_1		CODE           	5F3E	0000	327
		_Function_H_8_1		CODE           	82EA	0000	121
		_Function_H_9_1		CODE           	713C	0000	163
		_Function_H_6_2		CODE           	6EAA	0000	173
		_Function_H_8_2		CODE           	87B8	0000	103
		_Function_H_9_2		CODE           	709A	0000	163
		_Function_H_9_3		CODE           	6FF8	0000	163
		_Function_H_9_4		CODE           	6F56	0000	163
		_exitLoad      		CODE           	900E	0000	61
		_exitFunction  		CODE           	8FD2	0000	61
		_initializeMenuArray		CODE           	4DD8	0000	515
		_setControllerResolution		CODE           	936C	0000	45
		_menu_lcd      		CODE           	67BA	0000	227
		_clear_row1    		CODE           	943C	0000	41
		_clear_row2    		CODE           	9414	0000	41
		_int2string    		CODE           	697A	0000	213

menu.c estimated size: 8789

C:\Program Files (x86)\Microchip\xc8\v1.45\sources\common\awdiv.c
		___awdiv       		CODE           	78F2	0000	135

C:\Program Files (x86)\Microchip\xc8\v1.45\sources\common\awdiv.c estimated size: 135

lcd.c
		_Lcd_Cmd       		CODE           	948C	0000	39
		_Lcd_SetBit    		CODE           	92E2	0000	49
		_Lcd_Start     		CODE           	7756	0000	141
		_Lcd_Set_Cursor		CODE           	8B70	0000	91
		_Lcd_Clear     		CODE           	95C2	0000	15
		_Lcd_Print_String		CODE           	80FC	0000	125
		_Lcd_Print_Char		CODE           	7A80	0000	133

lcd.c estimated size: 593

C:\Program Files (x86)\Microchip\xc8\v1.45\sources\common\lbmod.c
		___lbmod       		CODE           	9312	0000	47

C:\Program Files (x86)\Microchip\xc8\v1.45\sources\common\lbmod.c estimated size: 47

encoder.c
		_processEncoderBuxton		CODE           	0012	0000	2609
		_encoderInputsBuxton		CODE           	7D0E	0000	129

encoder.c estimated size: 2738

midi.c
		_pitchBend     		CODE           	91E6	0000	53
		_noteOff       		CODE           	8F92	0000	65
		_noteOffDrum   		CODE           	9176	0000	57
		_sendUSB       		CODE           	7322	0000	163
		_sendOut       		CODE           	9512	0000	31
		_controlChange 		CODE           	921A	0000	53
		_programChange 		CODE           	9340	0000	45
		_noteOnDrum    		CODE           	8C7C	0000	87
		_noteOn        		CODE           	8944	0000	97

midi.c estimated size: 651

C:\Program Files (x86)\Microchip\xc8\v1.45\sources\common\xxtofl.c
		___xxtofl      		CODE           	5DEA	0000	341

C:\Program Files (x86)\Microchip\xc8\v1.45\sources\common\xxtofl.c estimated size: 341

C:\Program Files (x86)\Microchip\xc8\v1.45\sources\common\aldiv.c
		___aldiv       		CODE           	6A4E	0000	207

C:\Program Files (x86)\Microchip\xc8\v1.45\sources\common\aldiv.c estimated size: 207

C:\Program Files (x86)\Microchip\xc8\v1.45\sources\pic18\plib\EEP\write_B.c
		_Write_b_eep   		CODE           	8F50	0000	67

C:\Program Files (x86)\Microchip\xc8\v1.45\sources\pic18\plib\EEP\write_B.c estimated size: 67

C:\Program Files (x86)\Microchip\xc8\v1.45\sources\common\flneg.c
		___flneg       		CODE           	92B2	0000	49

C:\Program Files (x86)\Microchip\xc8\v1.45\sources\common\flneg.c estimated size: 49

main.c
		_clock         		CODE           	95E6	0000	7
		_ISR           		CODE           	0008	0000	415
		_buttonInputsSerial		CODE           	81F4	0000	125
		_main          		CODE           	6B1C	0000	205
		_panic_button  		CODE           	94B2	0000	35
		_load          		CODE           	95E0	0000	7
		_digitalInputs 		CODE           	8D28	0000	85
		_analogInputs  		CODE           	95EC	0000	7
		_setup         		CODE           	881E	0000	101

main.c estimated size: 987

C:\Program Files (x86)\Microchip\xc8\v1.45\sources\common\strcpy.c
		_strcpy        		CODE           	924E	0000	51

C:\Program Files (x86)\Microchip\xc8\v1.45\sources\common\strcpy.c estimated size: 51

C:\Program Files (x86)\Microchip\xc8\v1.45\sources\common\sprcmul.c
		___flmul       		CODE           	32FC	0000	851

C:\Program Files (x86)\Microchip\xc8\v1.45\sources\common\sprcmul.c estimated size: 851

keyboard.c
		_keyboard_eight_note_efficient		CODE           	2EFA	0000	1027
		_playTriad     		CODE           	59AA	0000	385
		_playDiatonicTriadMajor		CODE           	568C	0000	401
		_playDiatonicSeventhMajor		CODE           	54FA	0000	403
		_keyboard_all_note_efficient		CODE           	174C	0000	1307
		_keyboard_sharps_only_efficient		CODE           	3C42	0000	687
		_playSeventh   		CODE           	581C	0000	399
		_processKeyboard		CODE           	8610	0000	109
		_playThisNotePentatonic		CODE           	5366	0000	405
		_playThisNote  		CODE           	63EE	0000	261
		_playThisNote8 		CODE           	2AD4	0000	1063
		_playDiatonicTriadMinor		CODE           	46E6	0000	607
		_playDiatonicSeventhMinor		CODE           	4944	0000	605

keyboard.c estimated size: 7659

